ccopy_reg
_reconstructor
p0
(caxelrod.tournament_manager
DeterministicCache
p1
c__builtin__
object
p2
Ntp3
Rp4
(dp5
S'turns'
p6
I200
sS'cache'
p7
(dp8
(caxelrod.strategies.retaliate
Retaliate3
p9
caxelrod.strategies.mindcontrol
MindController
p10
tp11
(dp12
S'cooperation_rates'
p13
(I200
I0
tp14
sS'scores'
p15
(I0
I1000
tp16
ss(caxelrod.strategies.grudger
Aggravater
p17
caxelrod.strategies.backstabber
BackStabber
p18
tp19
(dp20
g13
(I196
I198
tp21
sg15
(I601
I591
tp22
ss(caxelrod.strategies.cycler
AntiCycler
p23
g18
tp24
(dp25
g13
(I182
I14
tp26
sg15
(I64
I904
tp27
ss(caxelrod.strategies.titfortat
HardTitForTat
p28
caxelrod.strategies.grudger
OppositeGrudger
p29
tp30
(dp31
g13
(I197
I199
tp32
sg15
(I603
I593
tp33
ss(caxelrod.strategies.cycler
CyclerCCCCCD
p34
caxelrod.strategies.geller
GellerCooperator
p35
tp36
(dp37
g13
(I167
I167
tp38
sg15
(I534
I534
tp39
ss(g17
caxelrod.strategies.mindreader
MirrorMindReader
p40
tp41
(dp42
g13
(I200
I200
tp43
sg15
(I600
I600
tp44
ss(caxelrod.strategies.prober
Prober3
p45
caxelrod.strategies.axelrod_tournaments
Shubik
p46
tp47
(dp48
g13
(I2
I2
tp49
sg15
(I206
I206
tp50
ss(g23
caxelrod.strategies.gobymajority
GoByMajority5
p51
tp52
(dp53
g13
(I182
I200
tp54
sg15
(I636
I546
tp55
ss(g34
caxelrod.strategies.mindreader
ProtectedMindReader
p56
tp57
(dp58
g13
(I200
I0
tp59
sg15
(I0
I1000
tp60
ss(caxelrod.strategies.backstabber
DoubleCrosser
p61
caxelrod.strategies.memoryone
WinStayLoseShift
p62
tp63
(dp64
g13
(I198
I199
tp65
sg15
(I600
I595
tp66
ss(caxelrod.strategies.cycler
CyclerCCD
p67
caxelrod.strategies.prober
Prober2
p68
tp69
(dp70
g13
(I134
I133
tp71
sg15
(I531
I536
tp72
ss(caxelrod.strategies.mathematicalconstants
Golden
p73
caxelrod.strategies.prober
HardProber
p74
tp75
(dp76
g13
(I198
I2
tp77
sg15
(I9
I989
tp78
ss(g61
caxelrod.strategies.grumpy
Grumpy
p79
tp80
(dp81
g13
(I198
I200
tp82
sg15
(I604
I594
tp83
ss(caxelrod.strategies.hunter
EventualCycleHunter
p84
g29
tp85
(dp86
g13
(I16
I199
tp87
sg15
(I965
I50
tp88
ss(caxelrod.strategies.titfortat
HardTitFor2Tats
p89
caxelrod.strategies.mathematicalconstants
Pi
p90
tp91
(dp92
g13
(I197
I106
tp93
sg15
(I323
I778
tp94
ss(caxelrod.strategies.hunter
AlternatorHunter
p95
g23
tp96
(dp97
g13
(I200
I182
tp98
sg15
(I546
I636
tp99
ss(caxelrod.strategies.titfortat
AntiTitForTat
p100
caxelrod.strategies.punisher
InversePunisher
p101
tp102
(dp103
g13
(I178
I22
tp104
sg15
(I99
I879
tp105
ss(caxelrod.strategies.cooperator
Cooperator
p106
g45
tp107
(dp108
g13
(I200
I1
tp109
sg15
(I3
I998
tp110
ss(caxelrod.strategies.forgiver
ForgivingTitForTat
p111
caxelrod.strategies.gobymajority
GoByMajority10
p112
tp113
(dp114
g13
(I200
I200
tp115
sg15
(I600
I600
tp116
ss(caxelrod.strategies.oncebitten
FoolMeForever
p117
caxelrod.strategies.oncebitten
FoolMeOnce
p118
tp119
(dp120
g13
(I197
I2
tp121
sg15
(I11
I986
tp122
ss(g28
caxelrod.strategies.retaliate
LimitedRetaliate2
p123
tp124
(dp125
g13
(I200
I200
tp126
sg15
(I600
I600
tp127
ss(g34
g117
tp128
(dp129
g13
(I167
I194
tp130
sg15
(I647
I512
tp131
ss(caxelrod.strategies.appeaser
Appeaser
p132
g67
tp133
(dp134
g13
(I101
I134
tp135
sg15
(I567
I402
tp136
ss(caxelrod.strategies.alternator
Alternator
p137
g111
tp138
(dp139
g13
(I100
I101
tp140
sg15
(I503
I498
tp141
ss(g117
caxelrod.strategies.retaliate
Retaliate
p142
tp143
(dp144
g13
(I198
I189
tp145
sg15
(I570
I615
tp146
ss(g137
caxelrod.strategies.hunter
CooperatorHunter
p147
tp148
(dp149
g13
(I100
I200
tp150
sg15
(I800
I300
tp151
ss(g89
caxelrod.strategies.titfortat
TwoTitsForTat
p152
tp153
(dp154
g13
(I200
I200
tp155
sg15
(I600
I600
tp156
ss(g84
caxelrod.strategies.grudger
ForgetfulGrudger
p157
tp158
(dp159
g13
(I200
I200
tp160
sg15
(I600
I600
tp161
ss(g61
g51
tp162
(dp163
g13
(I198
I200
tp164
sg15
(I604
I594
tp165
ss(caxelrod.strategies.hunter
MathConstantHunter
p166
g62
tp167
(dp168
g13
(I200
I200
tp169
sg15
(I600
I600
tp170
ss(g123
caxelrod.strategies.titfortat
SneakyTitForTat
p171
tp172
(dp173
g13
(I15
I101
tp174
sg15
(I587
I157
tp175
ss(g132
g132
tp176
(dp177
g13
(I200
I200
tp178
sg15
(I600
I600
tp179
ss(g118
g166
tp180
(dp181
g13
(I200
I200
tp182
sg15
(I600
I600
tp183
ss(g84
g90
tp184
(dp185
g13
(I29
I184
tp186
sg15
(I893
I118
tp187
ss(g90
g142
tp188
(dp189
g13
(I190
I109
tp190
sg15
(I346
I751
tp191
ss(caxelrod.strategies.prober
Prober
p192
caxelrod.strategies.mindreader
MindReader
p193
tp194
(dp195
g13
(I200
I0
tp196
sg15
(I0
I1000
tp197
ss(g142
caxelrod.strategies.meta
MetaHunter
p198
tp199
(dp200
g13
(I200
I200
tp201
sg15
(I600
I600
tp202
ss(g23
g193
tp203
(dp204
g13
(I200
I0
tp205
sg15
(I0
I1000
tp206
ss(caxelrod.strategies.axelrod_tournaments
Davis
p207
caxelrod.strategies.retaliate
LimitedRetaliate3
p208
tp209
(dp210
g13
(I200
I200
tp211
sg15
(I600
I600
tp212
ss(g84
g166
tp213
(dp214
g13
(I200
I200
tp215
sg15
(I600
I600
tp216
ss(g137
caxelrod.strategies.cycler
CyclerCCCD
p217
tp218
(dp219
g13
(I100
I150
tp220
sg15
(I600
I350
tp221
ss(g132
caxelrod.strategies.punisher
Punisher
p222
tp223
(dp224
g13
(I200
I200
tp225
sg15
(I600
I600
tp226
ss(caxelrod.strategies.cooperator
TrickyCooperator
p227
g193
tp228
(dp229
g13
(I200
I0
tp230
sg15
(I0
I1000
tp231
ss(caxelrod.strategies.defector
Defector
p232
g89
tp233
(dp234
g13
(I0
I2
tp235
sg15
(I208
I198
tp236
ss(g123
g56
tp237
(dp238
g13
(I200
I0
tp239
sg15
(I0
I1000
tp240
ss(g51
caxelrod.strategies.grudger
Grudger
p241
tp242
(dp243
g13
(I200
I200
tp244
sg15
(I600
I600
tp245
ss(g137
caxelrod.strategies.hunter
CycleHunter
p246
tp247
(dp248
g13
(I100
I6
tp249
sg15
(I121
I591
tp250
ss(g34
g46
tp251
(dp252
g13
(I167
I60
tp253
sg15
(I230
I765
tp254
ss(g74
caxelrod.strategies.axelrod_tournaments
Tester
p255
tp256
(dp257
g13
(I198
I198
tp258
sg15
(I597
I597
tp259
ss(caxelrod.strategies.defector
TrickyDefector
p260
g56
tp261
(dp262
g13
(I200
I0
tp263
sg15
(I0
I1000
tp264
ss(caxelrod.strategies.titfortat
Bully
p265
g207
tp266
(dp267
g13
(I189
I10
tp268
sg15
(I51
I946
tp269
ss(g111
caxelrod.strategies.geller
GellerDefector
p270
tp271
(dp272
g13
(I200
I200
tp273
sg15
(I600
I600
tp274
ss(g147
g40
tp275
(dp276
g13
(I200
I200
tp277
sg15
(I600
I600
tp278
ss(g157
g166
tp279
(dp280
g13
(I200
I200
tp281
sg15
(I600
I600
tp282
ss(caxelrod.strategies.retaliate
LimitedRetaliate
p283
g62
tp284
(dp285
g13
(I200
I200
tp286
sg15
(I600
I600
tp287
ss(caxelrod.strategies.gobymajority
GoByMajority
p288
g192
tp289
(dp290
g13
(I199
I199
tp291
sg15
(I599
I599
tp292
ss(g9
caxelrod.strategies.titfortat
SuspiciousTitForTat
p293
tp294
(dp295
g13
(I1
I1
tp296
sg15
(I203
I203
tp297
ss(g147
caxelrod.strategies.gobymajority
GoByMajority40
p298
tp299
(dp300
g13
(I194
I197
tp301
sg15
(I602
I587
tp302
ss(g117
caxelrod.strategies.mindcontrol
MindBender
p303
tp304
(dp305
g13
(I199
I0
tp306
sg15
(I1
I996
tp307
ss(g123
caxelrod.strategies.retaliate
Retaliate2
p308
tp309
(dp310
g13
(I200
I200
tp311
sg15
(I600
I600
tp312
ss(g51
g89
tp313
(dp314
g13
(I200
I200
tp315
sg15
(I600
I600
tp316
ss(g74
g35
tp317
(dp318
g13
(I198
I198
tp319
sg15
(I596
I596
tp320
ss(g222
caxelrod.strategies.mindcontrol
MindWarper
p321
tp322
(dp323
g13
(I200
I0
tp324
sg15
(I0
I1000
tp325
ss(g23
g45
tp326
(dp327
g13
(I182
I181
tp328
sg15
(I579
I584
tp329
ss(g246
g68
tp330
(dp331
g13
(I200
I199
tp332
sg15
(I597
I602
tp333
ss(g18
g56
tp334
(dp335
g13
(I200
I0
tp336
sg15
(I0
I1000
tp337
ss(g61
g28
tp338
(dp339
g13
(I198
I199
tp340
sg15
(I600
I595
tp341
ss(g34
g283
tp342
(dp343
g13
(I167
I22
tp344
sg15
(I116
I841
tp345
ss(caxelrod.strategies.oncebitten
OnceBitten
p346
g303
tp347
(dp348
g13
(I200
I0
tp349
sg15
(I0
I1000
tp350
ss(g260
g40
tp351
(dp352
g13
(I200
I200
tp353
sg15
(I600
I600
tp354
ss(g241
g171
tp355
(dp356
g13
(I3
I100
tp357
sg15
(I595
I110
tp358
ss(g67
g51
tp359
(dp360
g13
(I134
I200
tp361
sg15
(I732
I402
tp362
ss(g308
g270
tp363
(dp364
g13
(I200
I200
tp365
sg15
(I600
I600
tp366
ss(g123
g123
tp367
(dp368
g13
(I200
I200
tp369
sg15
(I600
I600
tp370
ss(caxelrod.strategies.hunter
DefectorHunter
p371
g117
tp372
(dp373
g13
(I198
I195
tp374
sg15
(I588
I603
tp375
ss(g371
g142
tp376
(dp377
g13
(I200
I200
tp378
sg15
(I600
I600
tp379
ss(g111
g89
tp380
(dp381
g13
(I200
I200
tp382
sg15
(I600
I600
tp383
ss(g34
g10
tp384
(dp385
g13
(I200
I0
tp386
sg15
(I0
I1000
tp387
ss(g157
g29
tp388
(dp389
g13
(I189
I199
tp390
sg15
(I619
I569
tp391
ss(g35
g10
tp392
(dp393
g13
(I200
I0
tp394
sg15
(I0
I1000
tp395
ss(g17
g73
tp396
(dp397
g13
(I2
I199
tp398
sg15
(I993
I8
tp399
ss(g293
caxelrod.strategies.titfortat
TitFor2Tats
p400
tp401
(dp402
g13
(I199
I200
tp403
sg15
(I602
I597
tp404
ss(g111
g9
tp405
(dp406
g13
(I200
I200
tp407
sg15
(I600
I600
tp408
ss(g111
g288
tp409
(dp410
g13
(I200
I200
tp411
sg15
(I600
I600
tp412
ss(g23
g171
tp413
(dp414
g13
(I182
I182
tp415
sg15
(I582
I582
tp416
ss(g132
g227
tp417
(dp418
g13
(I183
I166
tp419
sg15
(I515
I600
tp420
ss(g137
g40
tp421
(dp422
g13
(I200
I200
tp423
sg15
(I600
I600
tp424
ss(g192
g171
tp425
(dp426
g13
(I2
I102
tp427
sg15
(I604
I104
tp428
ss(g207
caxelrod.strategies.mathematicalconstants
e
p429
tp430
(dp431
g13
(I10
I190
tp432
sg15
(I949
I49
tp433
ss(caxelrod.strategies.forgiver
Forgiver
p434
g142
tp435
(dp436
g13
(I200
I200
tp437
sg15
(I600
I600
tp438
ss(g137
g371
tp439
(dp440
g13
(I100
I200
tp441
sg15
(I800
I300
tp442
ss(g17
g101
tp443
(dp444
g13
(I0
I1
tp445
sg15
(I204
I199
tp446
ss(g74
g123
tp447
(dp448
g13
(I14
I13
tp449
sg15
(I238
I243
tp450
ss(g101
g193
tp451
(dp452
g13
(I200
I0
tp453
sg15
(I0
I1000
tp454
ss(g51
g227
tp455
(dp456
g13
(I152
I152
tp457
sg15
(I540
I540
tp458
ss(g152
caxelrod.strategies.darwin
Darwin
p459
tp460
(dp461
g13
(I200
I199
tp462
sg15
(I597
I602
tp463
ss(g232
g62
tp464
(dp465
g13
(I0
I100
tp466
sg15
(I600
I100
tp467
ss(g246
g34
tp468
(dp469
g13
(I14
I167
tp470
sg15
(I842
I77
tp471
ss(g117
g198
tp472
(dp473
g13
(I195
I7
tp474
sg15
(I30
I970
tp475
ss(g100
g255
tp476
(dp477
g13
(I100
I101
tp478
sg15
(I454
I449
tp479
ss(g106
g157
tp480
(dp481
g13
(I200
I200
tp482
sg15
(I600
I600
tp483
ss(g171
g62
tp484
(dp485
g13
(I198
I199
tp486
sg15
(I600
I595
tp487
ss(g29
g46
tp488
(dp489
g13
(I199
I199
tp490
sg15
(I599
I599
tp491
ss(g67
g260
tp492
(dp493
g13
(I134
I0
tp494
sg15
(I66
I736
tp495
ss(g137
g207
tp496
(dp497
g13
(I100
I10
tp498
sg15
(I135
I585
tp499
ss(g118
g222
tp500
(dp501
g13
(I200
I200
tp502
sg15
(I600
I600
tp503
ss(g288
caxelrod.strategies.titfortat
TitForTat
p504
tp505
(dp506
g13
(I200
I200
tp507
sg15
(I600
I600
tp508
ss(g246
g40
tp509
(dp510
g13
(I200
I200
tp511
sg15
(I600
I600
tp512
ss(g95
g232
tp513
(dp514
g13
(I200
I0
tp515
sg15
(I0
I1000
tp516
ss(g147
g400
tp517
(dp518
g13
(I197
I198
tp519
sg15
(I599
I594
tp520
ss(g95
g46
tp521
(dp522
g13
(I200
I200
tp523
sg15
(I600
I600
tp524
ss(g89
g29
tp525
(dp526
g13
(I200
I199
tp527
sg15
(I597
I602
tp528
ss(g100
g459
tp529
(dp530
g13
(I1
I199
tp531
sg15
(I994
I4
tp532
ss(g112
g171
tp533
(dp534
g13
(I196
I195
tp535
sg15
(I592
I597
tp536
ss(g90
g45
tp537
(dp538
g13
(I200
I1
tp539
sg15
(I3
I998
tp540
ss(g23
g298
tp541
(dp542
g13
(I182
I200
tp543
sg15
(I636
I546
tp544
ss(g255
g255
tp545
(dp546
g13
(I199
I199
tp547
sg15
(I598
I598
tp548
ss(g241
g56
tp549
(dp550
g13
(I200
I0
tp551
sg15
(I0
I1000
tp552
ss(g74
g29
tp553
(dp554
g13
(I198
I197
tp555
sg15
(I593
I598
tp556
ss(caxelrod.strategies.hunter
RandomHunter
p557
g260
tp558
(dp559
g13
(I200
I0
tp560
sg15
(I0
I1000
tp561
ss(g232
g222
tp562
(dp563
g13
(I0
I1
tp564
sg15
(I204
I199
tp565
ss(g100
g208
tp566
(dp567
g13
(I176
I24
tp568
sg15
(I104
I864
tp569
ss(g147
g68
tp570
(dp571
g13
(I200
I199
tp572
sg15
(I597
I602
tp573
ss(g40
g56
tp574
(dp575
g13
(I200
I200
tp576
sg15
(I600
I600
tp577
ss(g106
g68
tp578
(dp579
g13
(I200
I199
tp580
sg15
(I597
I602
tp581
ss(g34
g207
tp582
(dp583
g13
(I167
I10
tp584
sg15
(I64
I849
tp585
ss(g106
g35
tp586
(dp587
g13
(I200
I200
tp588
sg15
(I600
I600
tp589
ss(g118
g283
tp590
(dp591
g13
(I200
I200
tp592
sg15
(I600
I600
tp593
ss(g18
g227
tp594
(dp595
g13
(I7
I195
tp596
sg15
(I970
I30
tp597
ss(g101
g10
tp598
(dp599
g13
(I200
I0
tp600
sg15
(I0
I1000
tp601
ss(g61
g241
tp602
(dp603
g13
(I198
I199
tp604
sg15
(I600
I595
tp605
ss(g171
g227
tp606
(dp607
g13
(I2
I200
tp608
sg15
(I996
I6
tp609
ss(g74
g90
tp610
(dp611
g13
(I2
I200
tp612
sg15
(I996
I6
tp613
ss(g111
g40
tp614
(dp615
g13
(I200
I200
tp616
sg15
(I600
I600
tp617
ss(g265
g40
tp618
(dp619
g13
(I200
I200
tp620
sg15
(I600
I600
tp621
ss(g157
g557
tp622
(dp623
g13
(I200
I200
tp624
sg15
(I600
I600
tp625
ss(g100
g118
tp626
(dp627
g13
(I197
I3
tp628
sg15
(I14
I984
tp629
ss(g557
g10
tp630
(dp631
g13
(I200
I0
tp632
sg15
(I0
I1000
tp633
ss(g132
g74
tp634
(dp635
g13
(I199
I198
tp636
sg15
(I595
I600
tp637
ss(g100
g142
tp638
(dp639
g13
(I168
I32
tp640
sg15
(I144
I824
tp641
ss(g118
g321
tp642
(dp643
g13
(I200
I0
tp644
sg15
(I0
I1000
tp645
ss(g123
g193
tp646
(dp647
g13
(I200
I0
tp648
sg15
(I0
I1000
tp649
ss(g106
g227
tp650
(dp651
g13
(I200
I3
tp652
sg15
(I9
I994
tp653
ss(g137
g84
tp654
(dp655
g13
(I100
I10
tp656
sg15
(I135
I585
tp657
ss(g118
g298
tp658
(dp659
g13
(I200
I200
tp660
sg15
(I600
I600
tp661
ss(g157
g283
tp662
(dp663
g13
(I200
I200
tp664
sg15
(I600
I600
tp665
ss(g89
g28
tp666
(dp667
g13
(I200
I200
tp668
sg15
(I600
I600
tp669
ss(g84
g101
tp670
(dp671
g13
(I200
I200
tp672
sg15
(I600
I600
tp673
ss(g17
g241
tp674
(dp675
g13
(I0
I1
tp676
sg15
(I204
I199
tp677
ss(g217
g62
tp678
(dp679
g13
(I150
I100
tp680
sg15
(I375
I625
tp681
ss(g222
g198
tp682
(dp683
g13
(I200
I200
tp684
sg15
(I600
I600
tp685
ss(g101
g166
tp686
(dp687
g13
(I200
I200
tp688
sg15
(I600
I600
tp689
ss(g111
g222
tp690
(dp691
g13
(I200
I200
tp692
sg15
(I600
I600
tp693
ss(g90
g270
tp694
(dp695
g13
(I151
I151
tp696
sg15
(I502
I502
tp697
ss(g118
g152
tp698
(dp699
g13
(I200
I200
tp700
sg15
(I600
I600
tp701
ss(g9
g504
tp702
(dp703
g13
(I200
I200
tp704
sg15
(I600
I600
tp705
ss(g34
g193
tp706
(dp707
g13
(I200
I0
tp708
sg15
(I0
I1000
tp709
ss(g18
g142
tp710
(dp711
g13
(I198
I199
tp712
sg15
(I600
I595
tp713
ss(g74
g400
tp714
(dp715
g13
(I198
I199
tp716
sg15
(I601
I596
tp717
ss(g132
g68
tp718
(dp719
g13
(I67
I67
tp720
sg15
(I401
I401
tp721
ss(g132
g346
tp722
(dp723
g13
(I200
I200
tp724
sg15
(I600
I600
tp725
ss(g106
g260
tp726
(dp727
g13
(I200
I0
tp728
sg15
(I0
I1000
tp729
ss(g112
g227
tp730
(dp731
g13
(I149
I135
tp732
sg15
(I498
I568
tp733
ss(g557
g321
tp734
(dp735
g13
(I200
I0
tp736
sg15
(I0
I1000
tp737
ss(g132
g157
tp738
(dp739
g13
(I200
I200
tp740
sg15
(I600
I600
tp741
ss(g67
g557
tp742
(dp743
g13
(I134
I12
tp744
sg15
(I106
I716
tp745
ss(g208
g29
tp746
(dp747
g13
(I180
I199
tp748
sg15
(I637
I542
tp749
ss(g46
g429
tp750
(dp751
g13
(I108
I184
tp752
sg15
(I734
I354
tp753
ss(g147
g9
tp754
(dp755
g13
(I198
I179
tp756
sg15
(I540
I635
tp757
ss(g23
g117
tp758
(dp759
g13
(I182
I198
tp760
sg15
(I629
I549
tp761
ss(g89
g40
tp762
(dp763
g13
(I200
I200
tp764
sg15
(I600
I600
tp765
ss(g283
g303
tp766
(dp767
g13
(I200
I0
tp768
sg15
(I0
I1000
tp769
ss(g171
g56
tp770
(dp771
g13
(I200
I0
tp772
sg15
(I0
I1000
tp773
ss(g241
g10
tp774
(dp775
g13
(I200
I0
tp776
sg15
(I0
I1000
tp777
ss(g23
g504
tp778
(dp779
g13
(I182
I182
tp780
sg15
(I582
I582
tp781
ss(g157
g46
tp782
(dp783
g13
(I200
I200
tp784
sg15
(I600
I600
tp785
ss(g232
g40
tp786
(dp787
g13
(I200
I200
tp788
sg15
(I600
I600
tp789
ss(g371
g89
tp790
(dp791
g13
(I200
I200
tp792
sg15
(I600
I600
tp793
ss(g265
g171
tp794
(dp795
g13
(I99
I100
tp796
sg15
(I452
I447
tp797
ss(g73
g255
tp798
(dp799
g13
(I123
I123
tp800
sg15
(I494
I494
tp801
ss(g23
g111
tp802
(dp803
g13
(I182
I184
tp804
sg15
(I588
I578
tp805
ss(g246
g79
tp806
(dp807
g13
(I200
I200
tp808
sg15
(I600
I600
tp809
ss(caxelrod.strategies.gobymajority
GoByMajority20
p810
g303
tp811
(dp812
g13
(I200
I0
tp813
sg15
(I0
I1000
tp814
ss(g90
g9
tp815
(dp816
g13
(I194
I99
tp817
sg15
(I308
I783
tp818
ss(g74
g557
tp819
(dp820
g13
(I2
I200
tp821
sg15
(I996
I6
tp822
ss(g18
g321
tp823
(dp824
g13
(I200
I0
tp825
sg15
(I0
I1000
tp826
ss(g61
g152
tp827
(dp828
g13
(I198
I199
tp829
sg15
(I600
I595
tp830
ss(g95
g222
tp831
(dp832
g13
(I200
I200
tp833
sg15
(I600
I600
tp834
ss(g79
g28
tp835
(dp836
g13
(I200
I200
tp837
sg15
(I600
I600
tp838
ss(g308
g193
tp839
(dp840
g13
(I200
I0
tp841
sg15
(I0
I1000
tp842
ss(g288
g79
tp843
(dp844
g13
(I200
I200
tp845
sg15
(I600
I600
tp846
ss(g137
g400
tp847
(dp848
g13
(I100
I200
tp849
sg15
(I800
I300
tp850
ss(g18
g298
tp851
(dp852
g13
(I198
I200
tp853
sg15
(I604
I594
tp854
ss(g434
g192
tp855
(dp856
g13
(I1
I2
tp857
sg15
(I207
I202
tp858
ss(g35
g40
tp859
(dp860
g13
(I200
I200
tp861
sg15
(I600
I600
tp862
ss(g18
g29
tp863
(dp864
g13
(I198
I199
tp865
sg15
(I601
I596
tp866
ss(g208
g227
tp867
(dp868
g13
(I74
I188
tp869
sg15
(I810
I240
tp870
ss(g34
g217
tp871
(dp872
g13
(I167
I150
tp873
sg15
(I500
I585
tp874
ss(g28
g193
tp875
(dp876
g13
(I200
I0
tp877
sg15
(I0
I1000
tp878
ss(g68
g193
tp879
(dp880
g13
(I200
I0
tp881
sg15
(I0
I1000
tp882
ss(g95
g557
tp883
(dp884
g13
(I200
I200
tp885
sg15
(I600
I600
tp886
ss(g265
g45
tp887
(dp888
g13
(I198
I1
tp889
sg15
(I5
I990
tp890
ss(g137
g208
tp891
(dp892
g13
(I100
I11
tp893
sg15
(I138
I583
tp894
ss(g157
g73
tp895
(dp896
g13
(I68
I176
tp897
sg15
(I780
I240
tp898
ss(g208
g171
tp899
(dp900
g13
(I120
I158
tp901
sg15
(I594
I404
tp902
ss(g157
g260
tp903
(dp904
g13
(I31
I136
tp905
sg15
(I698
I173
tp906
ss(g208
g400
tp907
(dp908
g13
(I200
I200
tp909
sg15
(I600
I600
tp910
ss(g346
g255
tp911
(dp912
g13
(I200
I100
tp913
sg15
(I300
I800
tp914
ss(g246
g232
tp915
(dp916
g13
(I200
I0
tp917
sg15
(I0
I1000
tp918
ss(g283
g40
tp919
(dp920
g13
(I200
I200
tp921
sg15
(I600
I600
tp922
ss(g371
g429
tp923
(dp924
g13
(I200
I1
tp925
sg15
(I3
I998
tp926
ss(g293
g35
tp927
(dp928
g13
(I0
I0
tp929
sg15
(I200
I200
tp930
ss(g79
g227
tp931
(dp932
g13
(I128
I102
tp933
sg15
(I447
I577
tp934
ss(g246
g346
tp935
(dp936
g13
(I200
I200
tp937
sg15
(I600
I600
tp938
ss(g89
g208
tp939
(dp940
g13
(I200
I200
tp941
sg15
(I600
I600
tp942
ss(g371
g227
tp943
(dp944
g13
(I200
I3
tp945
sg15
(I9
I994
tp946
ss(g100
g198
tp947
(dp948
g13
(I191
I9
tp949
sg15
(I43
I953
tp950
ss(g142
g40
tp951
(dp952
g13
(I200
I200
tp953
sg15
(I600
I600
tp954
ss(g346
g504
tp955
(dp956
g13
(I200
I200
tp957
sg15
(I600
I600
tp958
ss(g208
g152
tp959
(dp960
g13
(I200
I200
tp961
sg15
(I600
I600
tp962
ss(g17
g28
tp963
(dp964
g13
(I0
I1
tp965
sg15
(I204
I199
tp966
ss(g100
g34
tp967
(dp968
g13
(I34
I167
tp969
sg15
(I800
I135
tp970
ss(g400
g193
tp971
(dp972
g13
(I200
I0
tp973
sg15
(I0
I1000
tp974
ss(g84
g227
tp975
(dp976
g13
(I179
I87
tp977
sg15
(I296
I756
tp978
ss(g73
g123
tp979
(dp980
g13
(I184
I61
tp981
sg15
(I210
I825
tp982
ss(g504
g270
tp983
(dp984
g13
(I200
I200
tp985
sg15
(I600
I600
tp986
ss(g298
g293
tp987
(dp988
g13
(I180
I179
tp989
sg15
(I577
I582
tp990
ss(g246
g434
tp991
(dp992
g13
(I200
I200
tp993
sg15
(I600
I600
tp994
ss(g137
g265
tp995
(dp996
g13
(I100
I99
tp997
sg15
(I397
I402
tp998
ss(g217
g166
tp999
(dp1000
g13
(I150
I33
tp1001
sg15
(I155
I740
tp1002
ss(g137
g23
tp1003
(dp1004
g13
(I100
I182
tp1005
sg15
(I737
I327
tp1006
ss(g51
g198
tp1007
(dp1008
g13
(I200
I200
tp1009
sg15
(I600
I600
tp1010
ss(g95
g117
tp1011
(dp1012
g13
(I200
I0
tp1013
sg15
(I0
I1000
tp1014
ss(g18
g171
tp1015
(dp1016
g13
(I6
I99
tp1017
sg15
(I588
I123
tp1018
ss(g17
g35
tp1019
(dp1020
g13
(I0
I0
tp1021
sg15
(I200
I200
tp1022
ss(g111
g346
tp1023
(dp1024
g13
(I200
I200
tp1025
sg15
(I600
I600
tp1026
ss(g100
g557
tp1027
(dp1028
g13
(I1
I200
tp1029
sg15
(I998
I3
tp1030
ss(g67
g35
tp1031
(dp1032
g13
(I134
I134
tp1033
sg15
(I468
I468
tp1034
ss(g207
g117
tp1035
(dp1036
g13
(I10
I189
tp1037
sg15
(I946
I51
tp1038
ss(g429
g193
tp1039
(dp1040
g13
(I200
I0
tp1041
sg15
(I0
I1000
tp1042
ss(g95
g147
tp1043
(dp1044
g13
(I200
I4
tp1045
sg15
(I12
I992
tp1046
ss(g308
g303
tp1047
(dp1048
g13
(I200
I0
tp1049
sg15
(I0
I1000
tp1050
ss(g111
g255
tp1051
(dp1052
g13
(I199
I199
tp1053
sg15
(I599
I599
tp1054
ss(g73
g303
tp1055
(dp1056
g13
(I200
I0
tp1057
sg15
(I0
I1000
tp1058
ss(g222
g227
tp1059
(dp1060
g13
(I155
I172
tp1061
sg15
(I592
I507
tp1062
ss(g100
g62
tp1063
(dp1064
g13
(I67
I134
tp1065
sg15
(I602
I267
tp1066
ss(g241
g321
tp1067
(dp1068
g13
(I200
I0
tp1069
sg15
(I0
I1000
tp1070
ss(g90
g152
tp1071
(dp1072
g13
(I167
I135
tp1073
sg15
(I470
I630
tp1074
ss(g67
g101
tp1075
(dp1076
g13
(I134
I16
tp1077
sg15
(I128
I718
tp1078
ss(g232
g73
tp1079
(dp1080
g13
(I0
I200
tp1081
sg15
(I1000
I0
tp1082
ss(g265
g166
tp1083
(dp1084
g13
(I0
I200
tp1085
sg15
(I1000
I0
tp1086
ss(g246
g308
tp1087
(dp1088
g13
(I200
I200
tp1089
sg15
(I600
I600
tp1090
ss(g17
g288
tp1091
(dp1092
g13
(I0
I1
tp1093
sg15
(I204
I199
tp1094
ss(g137
g9
tp1095
(dp1096
g13
(I100
I6
tp1097
sg15
(I123
I593
tp1098
ss(g84
g28
tp1099
(dp1100
g13
(I200
I200
tp1101
sg15
(I600
I600
tp1102
ss(g67
g73
tp1103
(dp1104
g13
(I134
I113
tp1105
sg15
(I421
I526
tp1106
ss(g147
g67
tp1107
(dp1108
g13
(I200
I134
tp1109
sg15
(I402
I732
tp1110
ss(g67
g117
tp1111
(dp1112
g13
(I134
I197
tp1113
sg15
(I722
I407
tp1114
ss(g17
g51
tp1115
(dp1116
g13
(I0
I1
tp1117
sg15
(I204
I199
tp1118
ss(g34
g222
tp1119
(dp1120
g13
(I167
I70
tp1121
sg15
(I276
I761
tp1122
ss(g23
g40
tp1123
(dp1124
g13
(I200
I200
tp1125
sg15
(I600
I600
tp1126
ss(g18
g89
tp1127
(dp1128
g13
(I198
I200
tp1129
sg15
(I604
I594
tp1130
ss(g132
g459
tp1131
(dp1132
g13
(I200
I199
tp1133
sg15
(I597
I602
tp1134
ss(g17
g95
tp1135
(dp1136
g13
(I197
I200
tp1137
sg15
(I606
I591
tp1138
ss(g123
g303
tp1139
(dp1140
g13
(I200
I0
tp1141
sg15
(I0
I1000
tp1142
ss(g111
g74
tp1143
(dp1144
g13
(I198
I198
tp1145
sg15
(I597
I597
tp1146
ss(g34
g118
tp1147
(dp1148
g13
(I167
I12
tp1149
sg15
(I71
I846
tp1150
ss(g232
g111
tp1151
(dp1152
g13
(I0
I1
tp1153
sg15
(I204
I199
tp1154
ss(g265
g504
tp1155
(dp1156
g13
(I100
I100
tp1157
sg15
(I450
I450
tp1158
ss(g106
g232
tp1159
(dp1160
g13
(I200
I0
tp1161
sg15
(I0
I1000
tp1162
ss(g142
g400
tp1163
(dp1164
g13
(I200
I200
tp1165
sg15
(I600
I600
tp1166
ss(g84
g171
tp1167
(dp1168
g13
(I168
I164
tp1169
sg15
(I536
I556
tp1170
ss(g123
g68
tp1171
(dp1172
g13
(I13
I14
tp1173
sg15
(I243
I238
tp1174
ss(g283
g56
tp1175
(dp1176
g13
(I200
I0
tp1177
sg15
(I0
I1000
tp1178
ss(g192
g557
tp1179
(dp1180
g13
(I2
I200
tp1181
sg15
(I996
I6
tp1182
ss(g232
g255
tp1183
(dp1184
g13
(I0
I1
tp1185
sg15
(I204
I199
tp1186
ss(g117
g56
tp1187
(dp1188
g13
(I200
I0
tp1189
sg15
(I0
I1000
tp1190
ss(g45
g557
tp1191
(dp1192
g13
(I1
I200
tp1193
sg15
(I998
I3
tp1194
ss(g137
g68
tp1195
(dp1196
g13
(I100
I199
tp1197
sg15
(I797
I302
tp1198
ss(g123
g429
tp1199
(dp1200
g13
(I98
I189
tp1201
sg15
(I768
I313
tp1202
ss(g557
g152
tp1203
(dp1204
g13
(I200
I200
tp1205
sg15
(I600
I600
tp1206
ss(g123
g166
tp1207
(dp1208
g13
(I200
I200
tp1209
sg15
(I600
I600
tp1210
ss(g288
g51
tp1211
(dp1212
g13
(I200
I200
tp1213
sg15
(I600
I600
tp1214
ss(g192
g270
tp1215
(dp1216
g13
(I2
I2
tp1217
sg15
(I204
I204
tp1218
ss(g23
g283
tp1219
(dp1220
g13
(I182
I65
tp1221
sg15
(I226
I811
tp1222
ss(g298
g89
tp1223
(dp1224
g13
(I200
I200
tp1225
sg15
(I600
I600
tp1226
ss(g23
g56
tp1227
(dp1228
g13
(I200
I0
tp1229
sg15
(I0
I1000
tp1230
ss(g51
g40
tp1231
(dp1232
g13
(I200
I200
tp1233
sg15
(I600
I600
tp1234
ss(g217
g459
tp1235
(dp1236
g13
(I150
I199
tp1237
sg15
(I696
I451
tp1238
ss(g79
g40
tp1239
(dp1240
g13
(I200
I200
tp1241
sg15
(I600
I600
tp1242
ss(g106
g429
tp1243
(dp1244
g13
(I200
I1
tp1245
sg15
(I3
I998
tp1246
ss(g29
g227
tp1247
(dp1248
g13
(I199
I11
tp1249
sg15
(I35
I975
tp1250
ss(g198
g40
tp1251
(dp1252
g13
(I200
I200
tp1253
sg15
(I600
I600
tp1254
ss(g132
g193
tp1255
(dp1256
g13
(I200
I0
tp1257
sg15
(I0
I1000
tp1258
ss(g23
g232
tp1259
(dp1260
g13
(I182
I0
tp1261
sg15
(I18
I928
tp1262
ss(g208
g62
tp1263
(dp1264
g13
(I200
I200
tp1265
sg15
(I600
I600
tp1266
ss(g17
g208
tp1267
(dp1268
g13
(I0
I10
tp1269
sg15
(I240
I190
tp1270
ss(g23
g29
tp1271
(dp1272
g13
(I182
I199
tp1273
sg15
(I633
I548
tp1274
ss(g504
g321
tp1275
(dp1276
g13
(I200
I0
tp1277
sg15
(I0
I1000
tp1278
ss(g232
g28
tp1279
(dp1280
g13
(I0
I1
tp1281
sg15
(I204
I199
tp1282
ss(g232
g142
tp1283
(dp1284
g13
(I0
I1
tp1285
sg15
(I204
I199
tp1286
ss(g95
g123
tp1287
(dp1288
g13
(I200
I200
tp1289
sg15
(I600
I600
tp1290
ss(g111
g227
tp1291
(dp1292
g13
(I169
I168
tp1293
sg15
(I550
I555
tp1294
ss(g241
g193
tp1295
(dp1296
g13
(I200
I0
tp1297
sg15
(I0
I1000
tp1298
ss(g73
g400
tp1299
(dp1300
g13
(I99
I147
tp1301
sg15
(I626
I386
tp1302
ss(g17
g557
tp1303
(dp1304
g13
(I197
I200
tp1305
sg15
(I606
I591
tp1306
ss(g67
g56
tp1307
(dp1308
g13
(I200
I0
tp1309
sg15
(I0
I1000
tp1310
ss(g29
g504
tp1311
(dp1312
g13
(I199
I199
tp1313
sg15
(I599
I599
tp1314
ss(g283
g459
tp1315
(dp1316
g13
(I200
I199
tp1317
sg15
(I597
I602
tp1318
ss(g45
g400
tp1319
(dp1320
g13
(I1
I4
tp1321
sg15
(I214
I199
tp1322
ss(g100
g260
tp1323
(dp1324
g13
(I200
I0
tp1325
sg15
(I0
I1000
tp1326
ss(g232
g157
tp1327
(dp1328
g13
(I0
I1
tp1329
sg15
(I204
I199
tp1330
ss(g73
g89
tp1331
(dp1332
g13
(I117
I129
tp1333
sg15
(I529
I469
tp1334
ss(g111
g111
tp1335
(dp1336
g13
(I200
I200
tp1337
sg15
(I600
I600
tp1338
ss(g101
g321
tp1339
(dp1340
g13
(I200
I0
tp1341
sg15
(I0
I1000
tp1342
ss(g265
g9
tp1343
(dp1344
g13
(I182
I17
tp1345
sg15
(I78
I903
tp1346
ss(g246
g810
tp1347
(dp1348
g13
(I200
I200
tp1349
sg15
(I600
I600
tp1350
ss(g132
g288
tp1351
(dp1352
g13
(I200
I200
tp1353
sg15
(I600
I600
tp1354
ss(g222
g35
tp1355
(dp1356
g13
(I200
I200
tp1357
sg15
(I600
I600
tp1358
ss(g810
g192
tp1359
(dp1360
g13
(I199
I199
tp1361
sg15
(I599
I599
tp1362
ss(g810
g51
tp1363
(dp1364
g13
(I200
I200
tp1365
sg15
(I600
I600
tp1366
ss(g51
g123
tp1367
(dp1368
g13
(I200
I200
tp1369
sg15
(I600
I600
tp1370
ss(g67
g293
tp1371
(dp1372
g13
(I134
I133
tp1373
sg15
(I531
I536
tp1374
ss(g371
g62
tp1375
(dp1376
g13
(I200
I200
tp1377
sg15
(I600
I600
tp1378
ss(g95
g346
tp1379
(dp1380
g13
(I200
I200
tp1381
sg15
(I600
I600
tp1382
ss(g95
g171
tp1383
(dp1384
g13
(I200
I2
tp1385
sg15
(I6
I996
tp1386
ss(g157
g222
tp1387
(dp1388
g13
(I200
I200
tp1389
sg15
(I600
I600
tp1390
ss(g810
g293
tp1391
(dp1392
g13
(I190
I189
tp1393
sg15
(I587
I592
tp1394
ss(g51
g308
tp1395
(dp1396
g13
(I200
I200
tp1397
sg15
(I600
I600
tp1398
ss(g67
g40
tp1399
(dp1400
g13
(I200
I200
tp1401
sg15
(I600
I600
tp1402
ss(g73
g557
tp1403
(dp1404
g13
(I1
I200
tp1405
sg15
(I998
I3
tp1406
ss(g265
g56
tp1407
(dp1408
g13
(I200
I0
tp1409
sg15
(I0
I1000
tp1410
ss(g118
g208
tp1411
(dp1412
g13
(I200
I200
tp1413
sg15
(I600
I600
tp1414
ss(g288
g227
tp1415
(dp1416
g13
(I175
I99
tp1417
sg15
(I338
I718
tp1418
ss(g434
g62
tp1419
(dp1420
g13
(I200
I200
tp1421
sg15
(I600
I600
tp1422
ss(g95
g112
tp1423
(dp1424
g13
(I200
I200
tp1425
sg15
(I600
I600
tp1426
ss(g434
g79
tp1427
(dp1428
g13
(I200
I200
tp1429
sg15
(I600
I600
tp1430
ss(g112
g9
tp1431
(dp1432
g13
(I200
I200
tp1433
sg15
(I600
I600
tp1434
ss(g18
g67
tp1435
(dp1436
g13
(I12
I134
tp1437
sg15
(I716
I106
tp1438
ss(g117
g260
tp1439
(dp1440
g13
(I199
I0
tp1441
sg15
(I1
I996
tp1442
ss(g459
g459
tp1443
(dp1444
g13
(I199
I199
tp1445
sg15
(I598
I598
tp1446
ss(g9
g193
tp1447
(dp1448
g13
(I200
I0
tp1449
sg15
(I0
I1000
tp1450
ss(g118
g79
tp1451
(dp1452
g13
(I200
I200
tp1453
sg15
(I600
I600
tp1454
ss(g246
g111
tp1455
(dp1456
g13
(I200
I200
tp1457
sg15
(I600
I600
tp1458
ss(g434
g193
tp1459
(dp1460
g13
(I200
I0
tp1461
sg15
(I0
I1000
tp1462
ss(g371
g241
tp1463
(dp1464
g13
(I200
I200
tp1465
sg15
(I600
I600
tp1466
ss(g241
g29
tp1467
(dp1468
g13
(I1
I199
tp1469
sg15
(I995
I5
tp1470
ss(g73
g171
tp1471
(dp1472
g13
(I123
I123
tp1473
sg15
(I493
I493
tp1474
ss(g112
g112
tp1475
(dp1476
g13
(I200
I200
tp1477
sg15
(I600
I600
tp1478
ss(g79
g29
tp1479
(dp1480
g13
(I200
I199
tp1481
sg15
(I597
I602
tp1482
ss(g106
g288
tp1483
(dp1484
g13
(I200
I200
tp1485
sg15
(I600
I600
tp1486
ss(g17
g111
tp1487
(dp1488
g13
(I0
I1
tp1489
sg15
(I204
I199
tp1490
ss(g166
g68
tp1491
(dp1492
g13
(I117
I117
tp1493
sg15
(I443
I443
tp1494
ss(g157
g400
tp1495
(dp1496
g13
(I200
I200
tp1497
sg15
(I600
I600
tp1498
ss(g84
g270
tp1499
(dp1500
g13
(I200
I200
tp1501
sg15
(I600
I600
tp1502
ss(g810
g557
tp1503
(dp1504
g13
(I200
I200
tp1505
sg15
(I600
I600
tp1506
ss(g17
g132
tp1507
(dp1508
g13
(I0
I100
tp1509
sg15
(I600
I100
tp1510
ss(g142
g255
tp1511
(dp1512
g13
(I1
I2
tp1513
sg15
(I207
I202
tp1514
ss(g90
g62
tp1515
(dp1516
g13
(I197
I7
tp1517
sg15
(I26
I976
tp1518
ss(g241
g90
tp1519
(dp1520
g13
(I2
I198
tp1521
sg15
(I989
I9
tp1522
ss(g283
g142
tp1523
(dp1524
g13
(I200
I200
tp1525
sg15
(I600
I600
tp1526
ss(g298
g101
tp1527
(dp1528
g13
(I200
I200
tp1529
sg15
(I600
I600
tp1530
ss(g207
g29
tp1531
(dp1532
g13
(I10
I199
tp1533
sg15
(I977
I32
tp1534
ss(g89
g222
tp1535
(dp1536
g13
(I200
I200
tp1537
sg15
(I600
I600
tp1538
ss(g100
g308
tp1539
(dp1540
g13
(I174
I26
tp1541
sg15
(I117
I857
tp1542
ss(g118
g101
tp1543
(dp1544
g13
(I200
I200
tp1545
sg15
(I600
I600
tp1546
ss(g67
g10
tp1547
(dp1548
g13
(I200
I0
tp1549
sg15
(I0
I1000
tp1550
ss(g166
g166
tp1551
(dp1552
g13
(I200
I200
tp1553
sg15
(I600
I600
tp1554
ss(g241
g62
tp1555
(dp1556
g13
(I200
I200
tp1557
sg15
(I600
I600
tp1558
ss(g84
g321
tp1559
(dp1560
g13
(I200
I0
tp1561
sg15
(I0
I1000
tp1562
ss(g117
g35
tp1563
(dp1564
g13
(I199
I199
tp1565
sg15
(I598
I598
tp1566
ss(g232
g10
tp1567
(dp1568
g13
(I200
I0
tp1569
sg15
(I0
I1000
tp1570
ss(g45
g260
tp1571
(dp1572
g13
(I67
I66
tp1573
sg15
(I364
I369
tp1574
ss(g84
g255
tp1575
(dp1576
g13
(I168
I160
tp1577
sg15
(I522
I562
tp1578
ss(g217
g112
tp1579
(dp1580
g13
(I150
I200
tp1581
sg15
(I700
I450
tp1582
ss(g106
g293
tp1583
(dp1584
g13
(I200
I199
tp1585
sg15
(I597
I602
tp1586
ss(g132
g34
tp1587
(dp1588
g13
(I102
I167
tp1589
sg15
(I681
I356
tp1590
ss(g51
g400
tp1591
(dp1592
g13
(I200
I200
tp1593
sg15
(I600
I600
tp1594
ss(g217
g118
tp1595
(dp1596
g13
(I150
I8
tp1597
sg15
(I76
I786
tp1598
ss(g67
g400
tp1599
(dp1600
g13
(I134
I200
tp1601
sg15
(I732
I402
tp1602
ss(g84
g62
tp1603
(dp1604
g13
(I200
I200
tp1605
sg15
(I600
I600
tp1606
ss(g61
g84
tp1607
(dp1608
g13
(I198
I199
tp1609
sg15
(I600
I595
tp1610
ss(g371
g198
tp1611
(dp1612
g13
(I200
I200
tp1613
sg15
(I600
I600
tp1614
ss(g111
g193
tp1615
(dp1616
g13
(I200
I0
tp1617
sg15
(I0
I1000
tp1618
ss(g142
g152
tp1619
(dp1620
g13
(I200
I200
tp1621
sg15
(I600
I600
tp1622
ss(g371
g208
tp1623
(dp1624
g13
(I200
I200
tp1625
sg15
(I600
I600
tp1626
ss(g23
g166
tp1627
(dp1628
g13
(I182
I18
tp1629
sg15
(I75
I895
tp1630
ss(g73
g73
tp1631
(dp1632
g13
(I123
I123
tp1633
sg15
(I446
I446
tp1634
ss(g23
g142
tp1635
(dp1636
g13
(I182
I65
tp1637
sg15
(I226
I811
tp1638
ss(g288
g321
tp1639
(dp1640
g13
(I200
I0
tp1641
sg15
(I0
I1000
tp1642
ss(g193
g193
tp1643
(dp1644
g13
(I200
I0
tp1645
sg15
(I0
I1000
tp1646
ss(g217
g288
tp1647
(dp1648
g13
(I150
I200
tp1649
sg15
(I700
I450
tp1650
ss(g157
g89
tp1651
(dp1652
g13
(I200
I200
tp1653
sg15
(I600
I600
tp1654
ss(g34
g241
tp1655
(dp1656
g13
(I167
I6
tp1657
sg15
(I52
I857
tp1658
ss(g118
g46
tp1659
(dp1660
g13
(I200
I200
tp1661
sg15
(I600
I600
tp1662
ss(g100
g132
tp1663
(dp1664
g13
(I67
I134
tp1665
sg15
(I602
I267
tp1666
ss(g246
g198
tp1667
(dp1668
g13
(I200
I200
tp1669
sg15
(I600
I600
tp1670
ss(g371
g557
tp1671
(dp1672
g13
(I200
I200
tp1673
sg15
(I600
I600
tp1674
ss(g132
g166
tp1675
(dp1676
g13
(I200
I200
tp1677
sg15
(I600
I600
tp1678
ss(g67
g118
tp1679
(dp1680
g13
(I134
I6
tp1681
sg15
(I86
I726
tp1682
ss(g29
g222
tp1683
(dp1684
g13
(I199
I179
tp1685
sg15
(I539
I639
tp1686
ss(g100
g73
tp1687
(dp1688
g13
(I3
I198
tp1689
sg15
(I986
I11
tp1690
ss(g90
g35
tp1691
(dp1692
g13
(I151
I151
tp1693
sg15
(I502
I502
tp1694
ss(g45
g293
tp1695
(dp1696
g13
(I100
I99
tp1697
sg15
(I496
I501
tp1698
ss(g147
g34
tp1699
(dp1700
g13
(I198
I167
tp1701
sg15
(I504
I659
tp1702
ss(g61
g192
tp1703
(dp1704
g13
(I6
I2
tp1705
sg15
(I200
I220
tp1706
ss(g147
g111
tp1707
(dp1708
g13
(I198
I198
tp1709
sg15
(I597
I597
tp1710
ss(g61
g434
tp1711
(dp1712
g13
(I198
I200
tp1713
sg15
(I604
I594
tp1714
ss(g288
g208
tp1715
(dp1716
g13
(I200
I200
tp1717
sg15
(I600
I600
tp1718
ss(g112
g260
tp1719
(dp1720
g13
(I92
I79
tp1721
sg15
(I411
I476
tp1722
ss(g137
g79
tp1723
(dp1724
g13
(I100
I200
tp1725
sg15
(I800
I300
tp1726
ss(g61
g142
tp1727
(dp1728
g13
(I198
I199
tp1729
sg15
(I600
I595
tp1730
ss(g74
g171
tp1731
(dp1732
g13
(I198
I199
tp1733
sg15
(I601
I596
tp1734
ss(g45
g35
tp1735
(dp1736
g13
(I1
I1
tp1737
sg15
(I202
I202
tp1738
ss(g137
g222
tp1739
(dp1740
g13
(I100
I18
tp1741
sg15
(I171
I581
tp1742
ss(g79
g166
tp1743
(dp1744
g13
(I200
I200
tp1745
sg15
(I600
I600
tp1746
ss(g137
g193
tp1747
(dp1748
g13
(I200
I0
tp1749
sg15
(I0
I1000
tp1750
ss(g112
g74
tp1751
(dp1752
g13
(I194
I194
tp1753
sg15
(I593
I593
tp1754
ss(g18
g118
tp1755
(dp1756
g13
(I198
I200
tp1757
sg15
(I604
I594
tp1758
ss(g95
g400
tp1759
(dp1760
g13
(I200
I200
tp1761
sg15
(I600
I600
tp1762
ss(g79
g142
tp1763
(dp1764
g13
(I200
I200
tp1765
sg15
(I600
I600
tp1766
ss(g246
g400
tp1767
(dp1768
g13
(I200
I200
tp1769
sg15
(I600
I600
tp1770
ss(g198
g270
tp1771
(dp1772
g13
(I200
I200
tp1773
sg15
(I600
I600
tp1774
ss(g84
g45
tp1775
(dp1776
g13
(I17
I1
tp1777
sg15
(I186
I266
tp1778
ss(g298
g346
tp1779
(dp1780
g13
(I200
I200
tp1781
sg15
(I600
I600
tp1782
ss(g100
g232
tp1783
(dp1784
g13
(I200
I0
tp1785
sg15
(I0
I1000
tp1786
ss(g18
g90
tp1787
(dp1788
g13
(I5
I195
tp1789
sg15
(I974
I24
tp1790
ss(g557
g171
tp1791
(dp1792
g13
(I200
I2
tp1793
sg15
(I6
I996
tp1794
ss(g17
g56
tp1795
(dp1796
g13
(I200
I0
tp1797
sg15
(I0
I1000
tp1798
ss(g157
g293
tp1799
(dp1800
g13
(I1
I1
tp1801
sg15
(I203
I203
tp1802
ss(g208
g557
tp1803
(dp1804
g13
(I200
I200
tp1805
sg15
(I600
I600
tp1806
ss(g28
g40
tp1807
(dp1808
g13
(I200
I200
tp1809
sg15
(I600
I600
tp1810
ss(g346
g308
tp1811
(dp1812
g13
(I200
I200
tp1813
sg15
(I600
I600
tp1814
ss(g89
g62
tp1815
(dp1816
g13
(I200
I200
tp1817
sg15
(I600
I600
tp1818
ss(g810
g35
tp1819
(dp1820
g13
(I200
I200
tp1821
sg15
(I600
I600
tp1822
ss(g61
g308
tp1823
(dp1824
g13
(I198
I199
tp1825
sg15
(I600
I595
tp1826
ss(g111
g79
tp1827
(dp1828
g13
(I200
I200
tp1829
sg15
(I600
I600
tp1830
ss(g147
g51
tp1831
(dp1832
g13
(I196
I196
tp1833
sg15
(I595
I595
tp1834
ss(g118
g56
tp1835
(dp1836
g13
(I200
I0
tp1837
sg15
(I0
I1000
tp1838
ss(g18
g557
tp1839
(dp1840
g13
(I198
I200
tp1841
sg15
(I604
I594
tp1842
ss(g283
g193
tp1843
(dp1844
g13
(I200
I0
tp1845
sg15
(I0
I1000
tp1846
ss(g118
g51
tp1847
(dp1848
g13
(I200
I200
tp1849
sg15
(I600
I600
tp1850
ss(g207
g557
tp1851
(dp1852
g13
(I200
I200
tp1853
sg15
(I600
I600
tp1854
ss(g504
g227
tp1855
(dp1856
g13
(I169
I168
tp1857
sg15
(I550
I555
tp1858
ss(g298
g123
tp1859
(dp1860
g13
(I200
I200
tp1861
sg15
(I600
I600
tp1862
ss(g241
g28
tp1863
(dp1864
g13
(I200
I200
tp1865
sg15
(I600
I600
tp1866
ss(g17
g303
tp1867
(dp1868
g13
(I199
I0
tp1869
sg15
(I1
I996
tp1870
ss(g346
g142
tp1871
(dp1872
g13
(I200
I200
tp1873
sg15
(I600
I600
tp1874
ss(g232
g56
tp1875
(dp1876
g13
(I200
I0
tp1877
sg15
(I0
I1000
tp1878
ss(g118
g293
tp1879
(dp1880
g13
(I200
I199
tp1881
sg15
(I597
I602
tp1882
ss(g217
g192
tp1883
(dp1884
g13
(I150
I2
tp1885
sg15
(I56
I796
tp1886
ss(g400
g10
tp1887
(dp1888
g13
(I200
I0
tp1889
sg15
(I0
I1000
tp1890
ss(g17
g308
tp1891
(dp1892
g13
(I0
I1
tp1893
sg15
(I204
I199
tp1894
ss(g298
g260
tp1895
(dp1896
g13
(I70
I94
tp1897
sg15
(I488
I368
tp1898
ss(g283
g9
tp1899
(dp1900
g13
(I200
I200
tp1901
sg15
(I600
I600
tp1902
ss(g265
g265
tp1903
(dp1904
g13
(I100
I100
tp1905
sg15
(I400
I400
tp1906
ss(g147
g10
tp1907
(dp1908
g13
(I200
I0
tp1909
sg15
(I0
I1000
tp1910
ss(g18
g68
tp1911
(dp1912
g13
(I198
I198
tp1913
sg15
(I597
I597
tp1914
ss(g265
g371
tp1915
(dp1916
g13
(I2
I198
tp1917
sg15
(I989
I9
tp1918
ss(g810
g193
tp1919
(dp1920
g13
(I200
I0
tp1921
sg15
(I0
I1000
tp1922
ss(g283
g293
tp1923
(dp1924
g13
(I10
I10
tp1925
sg15
(I230
I230
tp1926
ss(g371
g56
tp1927
(dp1928
g13
(I200
I0
tp1929
sg15
(I0
I1000
tp1930
ss(g106
g298
tp1931
(dp1932
g13
(I200
I200
tp1933
sg15
(I600
I600
tp1934
ss(g217
g429
tp1935
(dp1936
g13
(I150
I141
tp1937
sg15
(I496
I541
tp1938
ss(g106
g459
tp1939
(dp1940
g13
(I200
I199
tp1941
sg15
(I597
I602
tp1942
ss(g265
g810
tp1943
(dp1944
g13
(I96
I103
tp1945
sg15
(I482
I447
tp1946
ss(g227
g260
tp1947
(dp1948
g13
(I200
I0
tp1949
sg15
(I0
I1000
tp1950
ss(g371
g51
tp1951
(dp1952
g13
(I200
I200
tp1953
sg15
(I600
I600
tp1954
ss(g810
g79
tp1955
(dp1956
g13
(I200
I200
tp1957
sg15
(I600
I600
tp1958
ss(g265
g217
tp1959
(dp1960
g13
(I49
I150
tp1961
sg15
(I702
I197
tp1962
ss(g147
g35
tp1963
(dp1964
g13
(I199
I199
tp1965
sg15
(I598
I598
tp1966
ss(g101
g29
tp1967
(dp1968
g13
(I198
I199
tp1969
sg15
(I601
I596
tp1970
ss(g241
g255
tp1971
(dp1972
g13
(I1
I2
tp1973
sg15
(I207
I202
tp1974
ss(g810
g123
tp1975
(dp1976
g13
(I200
I200
tp1977
sg15
(I600
I600
tp1978
ss(g62
g270
tp1979
(dp1980
g13
(I200
I200
tp1981
sg15
(I600
I600
tp1982
ss(g106
g208
tp1983
(dp1984
g13
(I200
I200
tp1985
sg15
(I600
I600
tp1986
ss(g429
g35
tp1987
(dp1988
g13
(I146
I146
tp1989
sg15
(I492
I492
tp1990
ss(g207
g101
tp1991
(dp1992
g13
(I200
I200
tp1993
sg15
(I600
I600
tp1994
ss(g17
g434
tp1995
(dp1996
g13
(I0
I1
tp1997
sg15
(I204
I199
tp1998
ss(g101
g400
tp1999
(dp2000
g13
(I200
I200
tp2001
sg15
(I600
I600
tp2002
ss(g67
g255
tp2003
(dp2004
g13
(I134
I134
tp2005
sg15
(I534
I534
tp2006
ss(g117
g101
tp2007
(dp2008
g13
(I198
I198
tp2009
sg15
(I597
I597
tp2010
ss(g118
g260
tp2011
(dp2012
g13
(I2
I195
tp2013
sg15
(I978
I13
tp2014
ss(g9
g40
tp2015
(dp2016
g13
(I200
I200
tp2017
sg15
(I600
I600
tp2018
ss(g371
g303
tp2019
(dp2020
g13
(I200
I0
tp2021
sg15
(I0
I1000
tp2022
ss(g61
g117
tp2023
(dp2024
g13
(I4
I195
tp2025
sg15
(I976
I21
tp2026
ss(g371
g810
tp2027
(dp2028
g13
(I200
I200
tp2029
sg15
(I600
I600
tp2030
ss(g79
g9
tp2031
(dp2032
g13
(I200
I200
tp2033
sg15
(I600
I600
tp2034
ss(g208
g56
tp2035
(dp2036
g13
(I200
I0
tp2037
sg15
(I0
I1000
tp2038
ss(g434
g166
tp2039
(dp2040
g13
(I200
I200
tp2041
sg15
(I600
I600
tp2042
ss(g459
g303
tp2043
(dp2044
g13
(I200
I0
tp2045
sg15
(I0
I1000
tp2046
ss(g17
g232
tp2047
(dp2048
g13
(I0
I0
tp2049
sg15
(I200
I200
tp2050
ss(g46
g152
tp2051
(dp2052
g13
(I200
I200
tp2053
sg15
(I600
I600
tp2054
ss(g132
g171
tp2055
(dp2056
g13
(I199
I198
tp2057
sg15
(I595
I600
tp2058
ss(g18
g270
tp2059
(dp2060
g13
(I198
I198
tp2061
sg15
(I596
I596
tp2062
ss(g23
g90
tp2063
(dp2064
g13
(I182
I121
tp2065
sg15
(I395
I700
tp2066
ss(g28
g10
tp2067
(dp2068
g13
(I200
I0
tp2069
sg15
(I0
I1000
tp2070
ss(g28
g459
tp2071
(dp2072
g13
(I200
I199
tp2073
sg15
(I597
I602
tp2074
ss(g137
g34
tp2075
(dp2076
g13
(I100
I167
tp2077
sg15
(I668
I333
tp2078
ss(g106
g142
tp2079
(dp2080
g13
(I200
I200
tp2081
sg15
(I600
I600
tp2082
ss(g241
g459
tp2083
(dp2084
g13
(I200
I199
tp2085
sg15
(I597
I602
tp2086
ss(g293
g255
tp2087
(dp2088
g13
(I99
I100
tp2089
sg15
(I501
I496
tp2090
ss(g298
g90
tp2091
(dp2092
g13
(I197
I106
tp2093
sg15
(I323
I778
tp2094
ss(g288
g74
tp2095
(dp2096
g13
(I99
I100
tp2097
sg15
(I501
I496
tp2098
ss(g106
g84
tp2099
(dp2100
g13
(I200
I200
tp2101
sg15
(I600
I600
tp2102
ss(g255
g198
tp2103
(dp2104
g13
(I35
I37
tp2105
sg15
(I284
I274
tp2106
ss(g45
g429
tp2107
(dp2108
g13
(I1
I199
tp2109
sg15
(I994
I4
tp2110
ss(g73
g208
tp2111
(dp2112
g13
(I186
I56
tp2113
sg15
(I189
I839
tp2114
ss(g62
g10
tp2115
(dp2116
g13
(I200
I0
tp2117
sg15
(I0
I1000
tp2118
ss(g222
g308
tp2119
(dp2120
g13
(I200
I200
tp2121
sg15
(I600
I600
tp2122
ss(g147
g222
tp2123
(dp2124
g13
(I198
I195
tp2125
sg15
(I588
I603
tp2126
ss(g241
g283
tp2127
(dp2128
g13
(I200
I200
tp2129
sg15
(I600
I600
tp2130
ss(g112
g193
tp2131
(dp2132
g13
(I200
I0
tp2133
sg15
(I0
I1000
tp2134
ss(g147
g270
tp2135
(dp2136
g13
(I199
I199
tp2137
sg15
(I598
I598
tp2138
ss(g434
g255
tp2139
(dp2140
g13
(I1
I2
tp2141
sg15
(I207
I202
tp2142
ss(g90
g198
tp2143
(dp2144
g13
(I192
I9
tp2145
sg15
(I42
I957
tp2146
ss(g132
g152
tp2147
(dp2148
g13
(I200
I200
tp2149
sg15
(I600
I600
tp2150
ss(g303
g303
tp2151
(dp2152
g13
(I0
I200
tp2153
sg15
(I1000
I0
tp2154
ss(g137
g62
tp2155
(dp2156
g13
(I100
I100
tp2157
sg15
(I450
I450
tp2158
ss(g288
g303
tp2159
(dp2160
g13
(I200
I0
tp2161
sg15
(I0
I1000
tp2162
ss(g67
g321
tp2163
(dp2164
g13
(I200
I0
tp2165
sg15
(I0
I1000
tp2166
ss(g73
g193
tp2167
(dp2168
g13
(I200
I0
tp2169
sg15
(I0
I1000
tp2170
ss(g207
g321
tp2171
(dp2172
g13
(I200
I0
tp2173
sg15
(I0
I1000
tp2174
ss(g61
g56
tp2175
(dp2176
g13
(I200
I0
tp2177
sg15
(I0
I1000
tp2178
ss(g117
g192
tp2179
(dp2180
g13
(I199
I2
tp2181
sg15
(I7
I992
tp2182
ss(g241
g89
tp2183
(dp2184
g13
(I200
I200
tp2185
sg15
(I600
I600
tp2186
ss(g147
g232
tp2187
(dp2188
g13
(I200
I0
tp2189
sg15
(I0
I1000
tp2190
ss(g61
g111
tp2191
(dp2192
g13
(I198
I200
tp2193
sg15
(I604
I594
tp2194
ss(g371
g10
tp2195
(dp2196
g13
(I200
I0
tp2197
sg15
(I0
I1000
tp2198
ss(g74
g222
tp2199
(dp2200
g13
(I2
I1
tp2201
sg15
(I202
I207
tp2202
ss(g9
g35
tp2203
(dp2204
g13
(I200
I200
tp2205
sg15
(I600
I600
tp2206
ss(g100
g293
tp2207
(dp2208
g13
(I100
I100
tp2209
sg15
(I450
I450
tp2210
ss(g89
g10
tp2211
(dp2212
g13
(I200
I0
tp2213
sg15
(I0
I1000
tp2214
ss(g112
g222
tp2215
(dp2216
g13
(I200
I200
tp2217
sg15
(I600
I600
tp2218
ss(g45
g193
tp2219
(dp2220
g13
(I200
I0
tp2221
sg15
(I0
I1000
tp2222
ss(g84
g112
tp2223
(dp2224
g13
(I200
I200
tp2225
sg15
(I600
I600
tp2226
ss(g34
g67
tp2227
(dp2228
g13
(I167
I134
tp2229
sg15
(I435
I600
tp2230
ss(g137
g61
tp2231
(dp2232
g13
(I100
I8
tp2233
sg15
(I128
I588
tp2234
ss(g46
g459
tp2235
(dp2236
g13
(I200
I199
tp2237
sg15
(I597
I602
tp2238
ss(g100
g90
tp2239
(dp2240
g13
(I2
I199
tp2241
sg15
(I992
I7
tp2242
ss(g346
g429
tp2243
(dp2244
g13
(I112
I176
tp2245
sg15
(I703
I383
tp2246
ss(g100
g51
tp2247
(dp2248
g13
(I101
I100
tp2249
sg15
(I473
I478
tp2250
ss(g84
g429
tp2251
(dp2252
g13
(I29
I184
tp2253
sg15
(I893
I118
tp2254
ss(g117
g241
tp2255
(dp2256
g13
(I198
I1
tp2257
sg15
(I6
I991
tp2258
ss(g62
g303
tp2259
(dp2260
g13
(I200
I0
tp2261
sg15
(I0
I1000
tp2262
ss(g207
g123
tp2263
(dp2264
g13
(I200
I200
tp2265
sg15
(I600
I600
tp2266
ss(g137
g298
tp2267
(dp2268
g13
(I100
I200
tp2269
sg15
(I800
I300
tp2270
ss(g241
g270
tp2271
(dp2272
g13
(I200
I200
tp2273
sg15
(I600
I600
tp2274
ss(g137
g346
tp2275
(dp2276
g13
(I100
I200
tp2277
sg15
(I800
I300
tp2278
ss(g18
g51
tp2279
(dp2280
g13
(I198
I200
tp2281
sg15
(I604
I594
tp2282
ss(g132
g217
tp2283
(dp2284
g13
(I100
I150
tp2285
sg15
(I625
I375
tp2286
ss(g100
g147
tp2287
(dp2288
g13
(I1
I200
tp2289
sg15
(I998
I3
tp2290
ss(g17
g321
tp2291
(dp2292
g13
(I200
I0
tp2293
sg15
(I0
I1000
tp2294
ss(g17
g79
tp2295
(dp2296
g13
(I197
I200
tp2297
sg15
(I606
I591
tp2298
ss(g217
g303
tp2299
(dp2300
g13
(I200
I0
tp2301
sg15
(I0
I1000
tp2302
ss(g51
g303
tp2303
(dp2304
g13
(I200
I0
tp2305
sg15
(I0
I1000
tp2306
ss(g137
g112
tp2307
(dp2308
g13
(I100
I200
tp2309
sg15
(I800
I300
tp2310
ss(g217
g434
tp2311
(dp2312
g13
(I150
I4
tp2313
sg15
(I63
I793
tp2314
ss(g137
g132
tp2315
(dp2316
g13
(I100
I100
tp2317
sg15
(I450
I450
tp2318
ss(g117
g193
tp2319
(dp2320
g13
(I200
I0
tp2321
sg15
(I0
I1000
tp2322
ss(g90
g303
tp2323
(dp2324
g13
(I200
I0
tp2325
sg15
(I0
I1000
tp2326
ss(g95
g61
tp2327
(dp2328
g13
(I200
I198
tp2329
sg15
(I594
I604
tp2330
ss(g106
g34
tp2331
(dp2332
g13
(I200
I167
tp2333
sg15
(I501
I666
tp2334
ss(g137
g255
tp2335
(dp2336
g13
(I100
I101
tp2337
sg15
(I503
I498
tp2338
ss(g166
g222
tp2339
(dp2340
g13
(I200
I200
tp2341
sg15
(I600
I600
tp2342
ss(g34
g9
tp2343
(dp2344
g13
(I167
I14
tp2345
sg15
(I84
I849
tp2346
ss(g157
g298
tp2347
(dp2348
g13
(I200
I200
tp2349
sg15
(I600
I600
tp2350
ss(g61
g198
tp2351
(dp2352
g13
(I198
I199
tp2353
sg15
(I600
I595
tp2354
ss(g67
g241
tp2355
(dp2356
g13
(I134
I3
tp2357
sg15
(I76
I731
tp2358
ss(g61
g10
tp2359
(dp2360
g13
(I200
I0
tp2361
sg15
(I0
I1000
tp2362
ss(g308
g35
tp2363
(dp2364
g13
(I200
I200
tp2365
sg15
(I600
I600
tp2366
ss(g147
g193
tp2367
(dp2368
g13
(I200
I0
tp2369
sg15
(I0
I1000
tp2370
ss(g123
g152
tp2371
(dp2372
g13
(I200
I200
tp2373
sg15
(I600
I600
tp2374
ss(g192
g321
tp2375
(dp2376
g13
(I200
I0
tp2377
sg15
(I0
I1000
tp2378
ss(g101
g222
tp2379
(dp2380
g13
(I200
I200
tp2381
sg15
(I600
I600
tp2382
ss(g293
g504
tp2383
(dp2384
g13
(I100
I100
tp2385
sg15
(I500
I500
tp2386
ss(g810
g68
tp2387
(dp2388
g13
(I199
I199
tp2389
sg15
(I599
I599
tp2390
ss(g434
g283
tp2391
(dp2392
g13
(I200
I200
tp2393
sg15
(I600
I600
tp2394
ss(g217
g152
tp2395
(dp2396
g13
(I150
I102
tp2397
sg15
(I406
I646
tp2398
ss(g810
g241
tp2399
(dp2400
g13
(I200
I200
tp2401
sg15
(I600
I600
tp2402
ss(g346
g90
tp2403
(dp2404
g13
(I189
I114
tp2405
sg15
(I363
I738
tp2406
ss(g18
g28
tp2407
(dp2408
g13
(I198
I199
tp2409
sg15
(I600
I595
tp2410
ss(g207
g90
tp2411
(dp2412
g13
(I10
I190
tp2413
sg15
(I949
I49
tp2414
ss(g371
g29
tp2415
(dp2416
g13
(I200
I199
tp2417
sg15
(I597
I602
tp2418
ss(g152
g35
tp2419
(dp2420
g13
(I200
I200
tp2421
sg15
(I600
I600
tp2422
ss(g157
g112
tp2423
(dp2424
g13
(I200
I200
tp2425
sg15
(I600
I600
tp2426
ss(g89
g56
tp2427
(dp2428
g13
(I200
I0
tp2429
sg15
(I0
I1000
tp2430
ss(g118
g255
tp2431
(dp2432
g13
(I4
I4
tp2433
sg15
(I210
I210
tp2434
ss(g459
g321
tp2435
(dp2436
g13
(I200
I0
tp2437
sg15
(I0
I1000
tp2438
ss(g18
g123
tp2439
(dp2440
g13
(I198
I199
tp2441
sg15
(I600
I595
tp2442
ss(g208
g166
tp2443
(dp2444
g13
(I200
I200
tp2445
sg15
(I600
I600
tp2446
ss(g207
g118
tp2447
(dp2448
g13
(I200
I200
tp2449
sg15
(I600
I600
tp2450
ss(g17
g504
tp2451
(dp2452
g13
(I0
I1
tp2453
sg15
(I204
I199
tp2454
ss(g137
g459
tp2455
(dp2456
g13
(I100
I199
tp2457
sg15
(I796
I301
tp2458
ss(g192
g62
tp2459
(dp2460
g13
(I67
I67
tp2461
sg15
(I401
I401
tp2462
ss(g123
g9
tp2463
(dp2464
g13
(I200
I200
tp2465
sg15
(I600
I600
tp2466
ss(g371
g101
tp2467
(dp2468
g13
(I200
I200
tp2469
sg15
(I600
I600
tp2470
ss(g208
g192
tp2471
(dp2472
g13
(I10
I11
tp2473
sg15
(I234
I229
tp2474
ss(g288
g222
tp2475
(dp2476
g13
(I200
I200
tp2477
sg15
(I600
I600
tp2478
ss(g434
g40
tp2479
(dp2480
g13
(I200
I200
tp2481
sg15
(I600
I600
tp2482
ss(g106
g246
tp2483
(dp2484
g13
(I200
I200
tp2485
sg15
(I600
I600
tp2486
ss(g283
g90
tp2487
(dp2488
g13
(I109
I190
tp2489
sg15
(I751
I346
tp2490
ss(g23
g106
tp2491
(dp2492
g13
(I182
I200
tp2493
sg15
(I636
I546
tp2494
ss(g100
g67
tp2495
(dp2496
g13
(I67
I134
tp2497
sg15
(I602
I267
tp2498
ss(g232
g193
tp2499
(dp2500
g13
(I200
I0
tp2501
sg15
(I0
I1000
tp2502
ss(g246
g101
tp2503
(dp2504
g13
(I200
I200
tp2505
sg15
(I600
I600
tp2506
ss(g112
g56
tp2507
(dp2508
g13
(I200
I0
tp2509
sg15
(I0
I1000
tp2510
ss(g18
g10
tp2511
(dp2512
g13
(I200
I0
tp2513
sg15
(I0
I1000
tp2514
ss(g67
g434
tp2515
(dp2516
g13
(I134
I3
tp2517
sg15
(I76
I731
tp2518
ss(g28
g227
tp2519
(dp2520
g13
(I147
I172
tp2521
sg15
(I608
I483
tp2522
ss(g192
g68
tp2523
(dp2524
g13
(I2
I3
tp2525
sg15
(I208
I203
tp2526
ss(g371
g46
tp2527
(dp2528
g13
(I200
I200
tp2529
sg15
(I600
I600
tp2530
ss(g222
g400
tp2531
(dp2532
g13
(I200
I200
tp2533
sg15
(I600
I600
tp2534
ss(g132
g9
tp2535
(dp2536
g13
(I200
I200
tp2537
sg15
(I600
I600
tp2538
ss(g79
g429
tp2539
(dp2540
g13
(I176
I116
tp2541
sg15
(I395
I695
tp2542
ss(g67
g74
tp2543
(dp2544
g13
(I134
I133
tp2545
sg15
(I531
I536
tp2546
ss(g74
g9
tp2547
(dp2548
g13
(I2
I1
tp2549
sg15
(I202
I207
tp2550
ss(g95
g260
tp2551
(dp2552
g13
(I200
I0
tp2553
sg15
(I0
I1000
tp2554
ss(g147
g29
tp2555
(dp2556
g13
(I200
I199
tp2557
sg15
(I597
I602
tp2558
ss(g67
g198
tp2559
(dp2560
g13
(I134
I8
tp2561
sg15
(I92
I722
tp2562
ss(g137
g35
tp2563
(dp2564
g13
(I100
I100
tp2565
sg15
(I400
I400
tp2566
ss(g111
g198
tp2567
(dp2568
g13
(I200
I200
tp2569
sg15
(I600
I600
tp2570
ss(g23
g303
tp2571
(dp2572
g13
(I200
I0
tp2573
sg15
(I0
I1000
tp2574
ss(g207
g46
tp2575
(dp2576
g13
(I200
I200
tp2577
sg15
(I600
I600
tp2578
ss(g17
g17
tp2579
(dp2580
g13
(I0
I0
tp2581
sg15
(I200
I200
tp2582
ss(g293
g293
tp2583
(dp2584
g13
(I0
I0
tp2585
sg15
(I200
I200
tp2586
ss(g29
g193
tp2587
(dp2588
g13
(I200
I0
tp2589
sg15
(I0
I1000
tp2590
ss(g118
g73
tp2591
(dp2592
g13
(I3
I197
tp2593
sg15
(I984
I14
tp2594
ss(g371
g171
tp2595
(dp2596
g13
(I200
I2
tp2597
sg15
(I6
I996
tp2598
ss(g61
g504
tp2599
(dp2600
g13
(I198
I199
tp2601
sg15
(I600
I595
tp2602
ss(g810
g198
tp2603
(dp2604
g13
(I200
I200
tp2605
sg15
(I600
I600
tp2606
ss(g23
g89
tp2607
(dp2608
g13
(I182
I200
tp2609
sg15
(I636
I546
tp2610
ss(g232
g74
tp2611
(dp2612
g13
(I0
I2
tp2613
sg15
(I208
I198
tp2614
ss(g100
g106
tp2615
(dp2616
g13
(I1
I200
tp2617
sg15
(I998
I3
tp2618
ss(g74
g74
tp2619
(dp2620
g13
(I198
I198
tp2621
sg15
(I596
I596
tp2622
ss(g255
g152
tp2623
(dp2624
g13
(I3
I2
tp2625
sg15
(I205
I210
tp2626
ss(g557
g429
tp2627
(dp2628
g13
(I200
I1
tp2629
sg15
(I3
I998
tp2630
ss(g17
g68
tp2631
(dp2632
g13
(I0
I2
tp2633
sg15
(I208
I198
tp2634
ss(g74
g429
tp2635
(dp2636
g13
(I2
I199
tp2637
sg15
(I992
I7
tp2638
ss(g147
g90
tp2639
(dp2640
g13
(I200
I1
tp2641
sg15
(I3
I998
tp2642
ss(g371
g308
tp2643
(dp2644
g13
(I200
I200
tp2645
sg15
(I600
I600
tp2646
ss(g118
g123
tp2647
(dp2648
g13
(I200
I200
tp2649
sg15
(I600
I600
tp2650
ss(g288
g557
tp2651
(dp2652
g13
(I200
I200
tp2653
sg15
(I600
I600
tp2654
ss(g142
g270
tp2655
(dp2656
g13
(I200
I200
tp2657
sg15
(I600
I600
tp2658
ss(g9
g459
tp2659
(dp2660
g13
(I200
I199
tp2661
sg15
(I597
I602
tp2662
ss(g61
g45
tp2663
(dp2664
g13
(I5
I1
tp2665
sg15
(I198
I218
tp2666
ss(g73
g308
tp2667
(dp2668
g13
(I184
I61
tp2669
sg15
(I210
I825
tp2670
ss(g84
g123
tp2671
(dp2672
g13
(I200
I200
tp2673
sg15
(I600
I600
tp2674
ss(g106
g79
tp2675
(dp2676
g13
(I200
I200
tp2677
sg15
(I600
I600
tp2678
ss(g217
g157
tp2679
(dp2680
g13
(I150
I20
tp2681
sg15
(I127
I777
tp2682
ss(g288
g298
tp2683
(dp2684
g13
(I200
I200
tp2685
sg15
(I600
I600
tp2686
ss(g192
g400
tp2687
(dp2688
g13
(I2
I5
tp2689
sg15
(I216
I201
tp2690
ss(g74
g346
tp2691
(dp2692
g13
(I2
I2
tp2693
sg15
(I206
I206
tp2694
ss(g90
g46
tp2695
(dp2696
g13
(I186
I113
tp2697
sg15
(I366
I731
tp2698
ss(g100
g100
tp2699
(dp2700
g13
(I100
I100
tp2701
sg15
(I400
I400
tp2702
ss(g84
g40
tp2703
(dp2704
g13
(I200
I200
tp2705
sg15
(I600
I600
tp2706
ss(g118
g303
tp2707
(dp2708
g13
(I200
I0
tp2709
sg15
(I0
I1000
tp2710
ss(g157
g35
tp2711
(dp2712
g13
(I200
I200
tp2713
sg15
(I600
I600
tp2714
ss(g118
g810
tp2715
(dp2716
g13
(I200
I200
tp2717
sg15
(I600
I600
tp2718
ss(g68
g459
tp2719
(dp2720
g13
(I199
I199
tp2721
sg15
(I599
I599
tp2722
ss(g73
g142
tp2723
(dp2724
g13
(I176
I68
tp2725
sg15
(I240
I780
tp2726
ss(g346
g152
tp2727
(dp2728
g13
(I200
I200
tp2729
sg15
(I600
I600
tp2730
ss(g35
g270
tp2731
(dp2732
g13
(I0
I200
tp2733
sg15
(I1000
I0
tp2734
ss(g308
g198
tp2735
(dp2736
g13
(I200
I200
tp2737
sg15
(I600
I600
tp2738
ss(g100
g241
tp2739
(dp2740
g13
(I198
I2
tp2741
sg15
(I9
I989
tp2742
ss(g61
g68
tp2743
(dp2744
g13
(I198
I198
tp2745
sg15
(I597
I597
tp2746
ss(g112
g504
tp2747
(dp2748
g13
(I200
I200
tp2749
sg15
(I600
I600
tp2750
ss(g504
g459
tp2751
(dp2752
g13
(I200
I199
tp2753
sg15
(I597
I602
tp2754
ss(g23
g241
tp2755
(dp2756
g13
(I182
I2
tp2757
sg15
(I25
I925
tp2758
ss(g810
g504
tp2759
(dp2760
g13
(I200
I200
tp2761
sg15
(I600
I600
tp2762
ss(g34
g434
tp2763
(dp2764
g13
(I167
I8
tp2765
sg15
(I59
I854
tp2766
ss(g9
g255
tp2767
(dp2768
g13
(I1
I2
tp2769
sg15
(I207
I202
tp2770
ss(g34
g227
tp2771
(dp2772
g13
(I167
I197
tp2773
sg15
(I656
I506
tp2774
ss(g123
g46
tp2775
(dp2776
g13
(I200
I200
tp2777
sg15
(I600
I600
tp2778
ss(g346
g198
tp2779
(dp2780
g13
(I200
I200
tp2781
sg15
(I600
I600
tp2782
ss(g100
g222
tp2783
(dp2784
g13
(I150
I50
tp2785
sg15
(I225
I725
tp2786
ss(g434
g227
tp2787
(dp2788
g13
(I76
I180
tp2789
sg15
(I781
I261
tp2790
ss(g106
g101
tp2791
(dp2792
g13
(I200
I200
tp2793
sg15
(I600
I600
tp2794
ss(g557
g303
tp2795
(dp2796
g13
(I200
I0
tp2797
sg15
(I0
I1000
tp2798
ss(g241
g346
tp2799
(dp2800
g13
(I200
I200
tp2801
sg15
(I600
I600
tp2802
ss(g246
g303
tp2803
(dp2804
g13
(I200
I0
tp2805
sg15
(I0
I1000
tp2806
ss(g298
g227
tp2807
(dp2808
g13
(I158
I117
tp2809
sg15
(I427
I632
tp2810
ss(g101
g56
tp2811
(dp2812
g13
(I200
I0
tp2813
sg15
(I0
I1000
tp2814
ss(g142
g459
tp2815
(dp2816
g13
(I200
I199
tp2817
sg15
(I597
I602
tp2818
ss(g132
g79
tp2819
(dp2820
g13
(I200
I200
tp2821
sg15
(I600
I600
tp2822
ss(g293
g227
tp2823
(dp2824
g13
(I169
I170
tp2825
sg15
(I557
I552
tp2826
ss(g222
g303
tp2827
(dp2828
g13
(I200
I0
tp2829
sg15
(I0
I1000
tp2830
ss(g89
g255
tp2831
(dp2832
g13
(I200
I100
tp2833
sg15
(I300
I800
tp2834
ss(g34
g308
tp2835
(dp2836
g13
(I167
I41
tp2837
sg15
(I167
I797
tp2838
ss(g166
g260
tp2839
(dp2840
g13
(I200
I0
tp2841
sg15
(I0
I1000
tp2842
ss(g46
g193
tp2843
(dp2844
g13
(I200
I0
tp2845
sg15
(I0
I1000
tp2846
ss(g371
g504
tp2847
(dp2848
g13
(I200
I200
tp2849
sg15
(I600
I600
tp2850
ss(g434
g35
tp2851
(dp2852
g13
(I200
I200
tp2853
sg15
(I600
I600
tp2854
ss(g557
g56
tp2855
(dp2856
g13
(I200
I0
tp2857
sg15
(I0
I1000
tp2858
ss(g207
g371
tp2859
(dp2860
g13
(I200
I200
tp2861
sg15
(I600
I600
tp2862
ss(g434
g123
tp2863
(dp2864
g13
(I200
I200
tp2865
sg15
(I600
I600
tp2866
ss(g118
g40
tp2867
(dp2868
g13
(I200
I200
tp2869
sg15
(I600
I600
tp2870
ss(g157
g193
tp2871
(dp2872
g13
(I200
I0
tp2873
sg15
(I0
I1000
tp2874
ss(g95
g101
tp2875
(dp2876
g13
(I200
I200
tp2877
sg15
(I600
I600
tp2878
ss(g118
g241
tp2879
(dp2880
g13
(I200
I200
tp2881
sg15
(I600
I600
tp2882
ss(g9
g152
tp2883
(dp2884
g13
(I200
I200
tp2885
sg15
(I600
I600
tp2886
ss(g434
g28
tp2887
(dp2888
g13
(I200
I200
tp2889
sg15
(I600
I600
tp2890
ss(g208
g90
tp2891
(dp2892
g13
(I99
I194
tp2893
sg15
(I783
I308
tp2894
ss(g17
g298
tp2895
(dp2896
g13
(I0
I1
tp2897
sg15
(I204
I199
tp2898
ss(g157
g157
tp2899
(dp2900
g13
(I200
I200
tp2901
sg15
(I600
I600
tp2902
ss(g45
g198
tp2903
(dp2904
g13
(I1
I14
tp2905
sg15
(I254
I189
tp2906
ss(g459
g56
tp2907
(dp2908
g13
(I200
I0
tp2909
sg15
(I0
I1000
tp2910
ss(g68
g260
tp2911
(dp2912
g13
(I67
I66
tp2913
sg15
(I364
I369
tp2914
ss(g90
g192
tp2915
(dp2916
g13
(I199
I2
tp2917
sg15
(I7
I992
tp2918
ss(g95
g34
tp2919
(dp2920
g13
(I200
I167
tp2921
sg15
(I501
I666
tp2922
ss(g265
g68
tp2923
(dp2924
g13
(I99
I100
tp2925
sg15
(I451
I446
tp2926
ss(g46
g255
tp2927
(dp2928
g13
(I199
I199
tp2929
sg15
(I599
I599
tp2930
ss(g217
g74
tp2931
(dp2932
g13
(I150
I2
tp2933
sg15
(I57
I797
tp2934
ss(g68
g46
tp2935
(dp2936
g13
(I199
I199
tp2937
sg15
(I599
I599
tp2938
ss(g106
g308
tp2939
(dp2940
g13
(I200
I200
tp2941
sg15
(I600
I600
tp2942
ss(g95
g73
tp2943
(dp2944
g13
(I200
I1
tp2945
sg15
(I3
I998
tp2946
ss(g308
g260
tp2947
(dp2948
g13
(I23
I152
tp2949
sg15
(I774
I129
tp2950
ss(g112
g62
tp2951
(dp2952
g13
(I200
I200
tp2953
sg15
(I600
I600
tp2954
ss(g68
g68
tp2955
(dp2956
g13
(I199
I199
tp2957
sg15
(I598
I598
tp2958
ss(g288
g68
tp2959
(dp2960
g13
(I199
I199
tp2961
sg15
(I599
I599
tp2962
ss(g400
g270
tp2963
(dp2964
g13
(I200
I200
tp2965
sg15
(I600
I600
tp2966
ss(g434
g346
tp2967
(dp2968
g13
(I200
I200
tp2969
sg15
(I600
I600
tp2970
ss(g18
g111
tp2971
(dp2972
g13
(I198
I200
tp2973
sg15
(I604
I594
tp2974
ss(g111
g293
tp2975
(dp2976
g13
(I100
I100
tp2977
sg15
(I500
I500
tp2978
ss(g157
g40
tp2979
(dp2980
g13
(I200
I200
tp2981
sg15
(I600
I600
tp2982
ss(g557
g40
tp2983
(dp2984
g13
(I200
I200
tp2985
sg15
(I600
I600
tp2986
ss(g84
g400
tp2987
(dp2988
g13
(I200
I200
tp2989
sg15
(I600
I600
tp2990
ss(g23
g74
tp2991
(dp2992
g13
(I182
I181
tp2993
sg15
(I578
I583
tp2994
ss(g459
g270
tp2995
(dp2996
g13
(I199
I200
tp2997
sg15
(I602
I597
tp2998
ss(g95
g62
tp2999
(dp3000
g13
(I200
I200
tp3001
sg15
(I600
I600
tp3002
ss(g84
g89
tp3003
(dp3004
g13
(I200
I200
tp3005
sg15
(I600
I600
tp3006
ss(g810
g208
tp3007
(dp3008
g13
(I200
I200
tp3009
sg15
(I600
I600
tp3010
ss(g303
g56
tp3011
(dp3012
g13
(I0
I200
tp3013
sg15
(I1000
I0
tp3014
ss(g207
g51
tp3015
(dp3016
g13
(I200
I200
tp3017
sg15
(I600
I600
tp3018
ss(g166
g557
tp3019
(dp3020
g13
(I200
I200
tp3021
sg15
(I600
I600
tp3022
ss(g147
g255
tp3023
(dp3024
g13
(I200
I100
tp3025
sg15
(I300
I800
tp3026
ss(g241
g293
tp3027
(dp3028
g13
(I1
I1
tp3029
sg15
(I203
I203
tp3030
ss(g23
g429
tp3031
(dp3032
g13
(I182
I110
tp3033
sg15
(I353
I713
tp3034
ss(g246
g90
tp3035
(dp3036
g13
(I200
I1
tp3037
sg15
(I3
I998
tp3038
ss(g117
g45
tp3039
(dp3040
g13
(I199
I1
tp3041
sg15
(I4
I994
tp3042
ss(g118
g434
tp3043
(dp3044
g13
(I200
I200
tp3045
sg15
(I600
I600
tp3046
ss(g298
g171
tp3047
(dp3048
g13
(I196
I195
tp3049
sg15
(I592
I597
tp3050
ss(g308
g293
tp3051
(dp3052
g13
(I1
I1
tp3053
sg15
(I203
I203
tp3054
ss(g217
g84
tp3055
(dp3056
g13
(I150
I10
tp3057
sg15
(I82
I782
tp3058
ss(g95
g192
tp3059
(dp3060
g13
(I200
I2
tp3061
sg15
(I6
I996
tp3062
ss(g28
g270
tp3063
(dp3064
g13
(I200
I200
tp3065
sg15
(I600
I600
tp3066
ss(g288
g90
tp3067
(dp3068
g13
(I197
I106
tp3069
sg15
(I323
I778
tp3070
ss(g227
g62
tp3071
(dp3072
g13
(I166
I183
tp3073
sg15
(I600
I515
tp3074
ss(g118
g198
tp3075
(dp3076
g13
(I200
I200
tp3077
sg15
(I600
I600
tp3078
ss(g246
g246
tp3079
(dp3080
g13
(I200
I200
tp3081
sg15
(I600
I600
tp3082
ss(g84
g557
tp3083
(dp3084
g13
(I200
I200
tp3085
sg15
(I600
I600
tp3086
ss(g67
g270
tp3087
(dp3088
g13
(I134
I134
tp3089
sg15
(I468
I468
tp3090
ss(g95
g95
tp3091
(dp3092
g13
(I200
I200
tp3093
sg15
(I600
I600
tp3094
ss(g371
g270
tp3095
(dp3096
g13
(I200
I200
tp3097
sg15
(I600
I600
tp3098
ss(g246
g10
tp3099
(dp3100
g13
(I200
I0
tp3101
sg15
(I0
I1000
tp3102
ss(g152
g198
tp3103
(dp3104
g13
(I200
I200
tp3105
sg15
(I600
I600
tp3106
ss(g166
g400
tp3107
(dp3108
g13
(I200
I200
tp3109
sg15
(I600
I600
tp3110
ss(g95
g29
tp3111
(dp3112
g13
(I200
I199
tp3113
sg15
(I597
I602
tp3114
ss(g241
g45
tp3115
(dp3116
g13
(I1
I1
tp3117
sg15
(I203
I203
tp3118
ss(g29
g68
tp3119
(dp3120
g13
(I198
I199
tp3121
sg15
(I600
I595
tp3122
ss(g298
g152
tp3123
(dp3124
g13
(I200
I200
tp3125
sg15
(I600
I600
tp3126
ss(g100
g35
tp3127
(dp3128
g13
(I100
I100
tp3129
sg15
(I400
I400
tp3130
ss(g73
g192
tp3131
(dp3132
g13
(I123
I123
tp3133
sg15
(I493
I493
tp3134
ss(g17
g293
tp3135
(dp3136
g13
(I0
I0
tp3137
sg15
(I200
I200
tp3138
ss(g61
g89
tp3139
(dp3140
g13
(I198
I200
tp3141
sg15
(I604
I594
tp3142
ss(g90
g459
tp3143
(dp3144
g13
(I1
I199
tp3145
sg15
(I994
I4
tp3146
ss(g68
g504
tp3147
(dp3148
g13
(I199
I199
tp3149
sg15
(I599
I599
tp3150
ss(g283
g166
tp3151
(dp3152
g13
(I200
I200
tp3153
sg15
(I600
I600
tp3154
ss(g246
g459
tp3155
(dp3156
g13
(I200
I199
tp3157
sg15
(I597
I602
tp3158
ss(g74
g40
tp3159
(dp3160
g13
(I200
I200
tp3161
sg15
(I600
I600
tp3162
ss(g29
g260
tp3163
(dp3164
g13
(I0
I0
tp3165
sg15
(I200
I200
tp3166
ss(g101
g35
tp3167
(dp3168
g13
(I200
I200
tp3169
sg15
(I600
I600
tp3170
ss(g67
g90
tp3171
(dp3172
g13
(I134
I169
tp3173
sg15
(I609
I434
tp3174
ss(g9
g400
tp3175
(dp3176
g13
(I200
I200
tp3177
sg15
(I600
I600
tp3178
ss(g45
g45
tp3179
(dp3180
g13
(I1
I1
tp3181
sg15
(I202
I202
tp3182
ss(g17
g371
tp3183
(dp3184
g13
(I197
I200
tp3185
sg15
(I606
I591
tp3186
ss(g67
g192
tp3187
(dp3188
g13
(I134
I133
tp3189
sg15
(I531
I536
tp3190
ss(g142
g321
tp3191
(dp3192
g13
(I200
I0
tp3193
sg15
(I0
I1000
tp3194
ss(g232
g198
tp3195
(dp3196
g13
(I0
I4
tp3197
sg15
(I216
I196
tp3198
ss(g288
g459
tp3199
(dp3200
g13
(I200
I199
tp3201
sg15
(I597
I602
tp3202
ss(g17
g265
tp3203
(dp3204
g13
(I0
I199
tp3205
sg15
(I996
I1
tp3206
ss(g157
g51
tp3207
(dp3208
g13
(I200
I200
tp3209
sg15
(I600
I600
tp3210
ss(g217
g56
tp3211
(dp3212
g13
(I200
I0
tp3213
sg15
(I0
I1000
tp3214
ss(g321
g321
tp3215
(dp3216
g13
(I200
I0
tp3217
sg15
(I0
I1000
tp3218
ss(g132
g308
tp3219
(dp3220
g13
(I200
I200
tp3221
sg15
(I600
I600
tp3222
ss(g34
g346
tp3223
(dp3224
g13
(I167
I200
tp3225
sg15
(I666
I501
tp3226
ss(g232
g434
tp3227
(dp3228
g13
(I0
I1
tp3229
sg15
(I204
I199
tp3230
ss(g18
g504
tp3231
(dp3232
g13
(I198
I199
tp3233
sg15
(I600
I595
tp3234
ss(g241
g222
tp3235
(dp3236
g13
(I200
I200
tp3237
sg15
(I600
I600
tp3238
ss(g29
g90
tp3239
(dp3240
g13
(I199
I104
tp3241
sg15
(I314
I789
tp3242
ss(g227
g10
tp3243
(dp3244
g13
(I200
I0
tp3245
sg15
(I0
I1000
tp3246
ss(g100
g123
tp3247
(dp3248
g13
(I174
I26
tp3249
sg15
(I117
I857
tp3250
ss(g100
g74
tp3251
(dp3252
g13
(I198
I2
tp3253
sg15
(I9
I989
tp3254
ss(g132
g106
tp3255
(dp3256
g13
(I200
I200
tp3257
sg15
(I600
I600
tp3258
ss(g84
g293
tp3259
(dp3260
g13
(I170
I169
tp3261
sg15
(I547
I552
tp3262
ss(g106
g192
tp3263
(dp3264
g13
(I200
I2
tp3265
sg15
(I6
I996
tp3266
ss(g298
g255
tp3267
(dp3268
g13
(I199
I199
tp3269
sg15
(I599
I599
tp3270
ss(g111
g298
tp3271
(dp3272
g13
(I200
I200
tp3273
sg15
(I600
I600
tp3274
ss(g117
g40
tp3275
(dp3276
g13
(I200
I200
tp3277
sg15
(I600
I600
tp3278
ss(g28
g9
tp3279
(dp3280
g13
(I200
I200
tp3281
sg15
(I600
I600
tp3282
ss(g34
g68
tp3283
(dp3284
g13
(I167
I166
tp3285
sg15
(I564
I569
tp3286
ss(g29
g293
tp3287
(dp3288
g13
(I0
I0
tp3289
sg15
(I200
I200
tp3290
ss(g117
g73
tp3291
(dp3292
g13
(I0
I200
tp3293
sg15
(I1000
I0
tp3294
ss(g73
g346
tp3295
(dp3296
g13
(I168
I79
tp3297
sg15
(I295
I740
tp3298
ss(g79
g193
tp3299
(dp3300
g13
(I200
I0
tp3301
sg15
(I0
I1000
tp3302
ss(g132
g142
tp3303
(dp3304
g13
(I200
I200
tp3305
sg15
(I600
I600
tp3306
ss(g147
g308
tp3307
(dp3308
g13
(I198
I186
tp3309
sg15
(I561
I621
tp3310
ss(g171
g400
tp3311
(dp3312
g13
(I197
I198
tp3313
sg15
(I599
I594
tp3314
ss(g111
g56
tp3315
(dp3316
g13
(I200
I0
tp3317
sg15
(I0
I1000
tp3318
ss(g29
g10
tp3319
(dp3320
g13
(I200
I0
tp3321
sg15
(I0
I1000
tp3322
ss(g46
g56
tp3323
(dp3324
g13
(I200
I0
tp3325
sg15
(I0
I1000
tp3326
ss(g17
g46
tp3327
(dp3328
g13
(I0
I1
tp3329
sg15
(I204
I199
tp3330
ss(g100
g346
tp3331
(dp3332
g13
(I155
I45
tp3333
sg15
(I210
I760
tp3334
ss(g18
g222
tp3335
(dp3336
g13
(I198
I199
tp3337
sg15
(I600
I595
tp3338
ss(g504
g303
tp3339
(dp3340
g13
(I200
I0
tp3341
sg15
(I0
I1000
tp3342
ss(g61
g166
tp3343
(dp3344
g13
(I198
I199
tp3345
sg15
(I600
I595
tp3346
ss(g227
g321
tp3347
(dp3348
g13
(I200
I0
tp3349
sg15
(I0
I1000
tp3350
ss(g18
g166
tp3351
(dp3352
g13
(I198
I199
tp3353
sg15
(I600
I595
tp3354
ss(g68
g152
tp3355
(dp3356
g13
(I3
I2
tp3357
sg15
(I205
I210
tp3358
ss(g95
g208
tp3359
(dp3360
g13
(I200
I200
tp3361
sg15
(I600
I600
tp3362
ss(g157
g9
tp3363
(dp3364
g13
(I200
I200
tp3365
sg15
(I600
I600
tp3366
ss(g84
g260
tp3367
(dp3368
g13
(I154
I27
tp3369
sg15
(I145
I780
tp3370
ss(g68
g10
tp3371
(dp3372
g13
(I200
I0
tp3373
sg15
(I0
I1000
tp3374
ss(g147
g142
tp3375
(dp3376
g13
(I198
I189
tp3377
sg15
(I570
I615
tp3378
ss(g89
g303
tp3379
(dp3380
g13
(I200
I0
tp3381
sg15
(I0
I1000
tp3382
ss(g79
g303
tp3383
(dp3384
g13
(I200
I0
tp3385
sg15
(I0
I1000
tp3386
ss(g117
g123
tp3387
(dp3388
g13
(I198
I186
tp3389
sg15
(I561
I621
tp3390
ss(g232
g241
tp3391
(dp3392
g13
(I0
I1
tp3393
sg15
(I204
I199
tp3394
ss(g142
g429
tp3395
(dp3396
g13
(I104
I187
tp3397
sg15
(I750
I335
tp3398
ss(g89
g459
tp3399
(dp3400
g13
(I200
I199
tp3401
sg15
(I597
I602
tp3402
ss(g35
g321
tp3403
(dp3404
g13
(I200
I0
tp3405
sg15
(I0
I1000
tp3406
ss(g95
g10
tp3407
(dp3408
g13
(I200
I0
tp3409
sg15
(I0
I1000
tp3410
ss(g346
g46
tp3411
(dp3412
g13
(I200
I200
tp3413
sg15
(I600
I600
tp3414
ss(g68
g222
tp3415
(dp3416
g13
(I2
I1
tp3417
sg15
(I202
I207
tp3418
ss(g51
g208
tp3419
(dp3420
g13
(I200
I200
tp3421
sg15
(I600
I600
tp3422
ss(g117
g308
tp3423
(dp3424
g13
(I198
I186
tp3425
sg15
(I561
I621
tp3426
ss(g222
g557
tp3427
(dp3428
g13
(I200
I200
tp3429
sg15
(I600
I600
tp3430
ss(g192
g46
tp3431
(dp3432
g13
(I199
I199
tp3433
sg15
(I599
I599
tp3434
ss(g89
g89
tp3435
(dp3436
g13
(I200
I200
tp3437
sg15
(I600
I600
tp3438
ss(g95
g118
tp3439
(dp3440
g13
(I200
I200
tp3441
sg15
(I600
I600
tp3442
ss(g246
g255
tp3443
(dp3444
g13
(I200
I100
tp3445
sg15
(I300
I800
tp3446
ss(g265
g79
tp3447
(dp3448
g13
(I96
I104
tp3449
sg15
(I516
I476
tp3450
ss(g95
g293
tp3451
(dp3452
g13
(I200
I199
tp3453
sg15
(I597
I602
tp3454
ss(g207
g207
tp3455
(dp3456
g13
(I200
I200
tp3457
sg15
(I600
I600
tp3458
ss(g68
g227
tp3459
(dp3460
g13
(I169
I170
tp3461
sg15
(I557
I552
tp3462
ss(g557
g35
tp3463
(dp3464
g13
(I200
I200
tp3465
sg15
(I600
I600
tp3466
ss(g34
g198
tp3467
(dp3468
g13
(I167
I11
tp3469
sg15
(I68
I848
tp3470
ss(g90
g308
tp3471
(dp3472
g13
(I192
I111
tp3473
sg15
(I348
I753
tp3474
ss(g101
g557
tp3475
(dp3476
g13
(I200
I200
tp3477
sg15
(I600
I600
tp3478
ss(g34
g208
tp3479
(dp3480
g13
(I167
I42
tp3481
sg15
(I166
I791
tp3482
ss(g79
g260
tp3483
(dp3484
g13
(I88
I104
tp3485
sg15
(I524
I444
tp3486
ss(g293
g260
tp3487
(dp3488
g13
(I0
I0
tp3489
sg15
(I200
I200
tp3490
ss(g265
g193
tp3491
(dp3492
g13
(I200
I0
tp3493
sg15
(I0
I1000
tp3494
ss(g288
g255
tp3495
(dp3496
g13
(I199
I199
tp3497
sg15
(I599
I599
tp3498
ss(g400
g227
tp3499
(dp3500
g13
(I172
I157
tp3501
sg15
(I513
I588
tp3502
ss(g308
g459
tp3503
(dp3504
g13
(I200
I199
tp3505
sg15
(I597
I602
tp3506
ss(g95
g51
tp3507
(dp3508
g13
(I200
I200
tp3509
sg15
(I600
I600
tp3510
ss(g18
g232
tp3511
(dp3512
g13
(I4
I0
tp3513
sg15
(I196
I216
tp3514
ss(g112
g166
tp3515
(dp3516
g13
(I200
I200
tp3517
sg15
(I600
I600
tp3518
ss(g117
g90
tp3519
(dp3520
g13
(I0
I200
tp3521
sg15
(I1000
I0
tp3522
ss(g132
g61
tp3523
(dp3524
g13
(I199
I198
tp3525
sg15
(I595
I600
tp3526
ss(g260
g303
tp3527
(dp3528
g13
(I199
I0
tp3529
sg15
(I1
I996
tp3530
ss(g101
g283
tp3531
(dp3532
g13
(I200
I200
tp3533
sg15
(I600
I600
tp3534
ss(g308
g62
tp3535
(dp3536
g13
(I200
I200
tp3537
sg15
(I600
I600
tp3538
ss(g504
g40
tp3539
(dp3540
g13
(I200
I200
tp3541
sg15
(I600
I600
tp3542
ss(g117
g434
tp3543
(dp3544
g13
(I198
I181
tp3545
sg15
(I546
I631
tp3546
ss(g217
g293
tp3547
(dp3548
g13
(I150
I150
tp3549
sg15
(I550
I550
tp3550
ss(g67
g142
tp3551
(dp3552
g13
(I134
I16
tp3553
sg15
(I128
I718
tp3554
ss(g67
g28
tp3555
(dp3556
g13
(I134
I3
tp3557
sg15
(I76
I731
tp3558
ss(g79
g459
tp3559
(dp3560
g13
(I200
I199
tp3561
sg15
(I597
I602
tp3562
ss(g207
g260
tp3563
(dp3564
g13
(I10
I187
tp3565
sg15
(I938
I53
tp3566
ss(g73
g293
tp3567
(dp3568
g13
(I123
I123
tp3569
sg15
(I493
I493
tp3570
ss(g232
g459
tp3571
(dp3572
g13
(I0
I199
tp3573
sg15
(I996
I1
tp3574
ss(g246
g84
tp3575
(dp3576
g13
(I200
I200
tp3577
sg15
(I600
I600
tp3578
ss(g434
g68
tp3579
(dp3580
g13
(I1
I2
tp3581
sg15
(I207
I202
tp3582
ss(g504
g152
tp3583
(dp3584
g13
(I200
I200
tp3585
sg15
(I600
I600
tp3586
ss(g147
g84
tp3587
(dp3588
g13
(I184
I32
tp3589
sg15
(I127
I887
tp3590
ss(g23
g208
tp3591
(dp3592
g13
(I182
I58
tp3593
sg15
(I199
I819
tp3594
ss(g246
g157
tp3595
(dp3596
g13
(I200
I200
tp3597
sg15
(I600
I600
tp3598
ss(g101
g459
tp3599
(dp3600
g13
(I200
I199
tp3601
sg15
(I597
I602
tp3602
ss(g283
g283
tp3603
(dp3604
g13
(I200
I200
tp3605
sg15
(I600
I600
tp3606
ss(g46
g198
tp3607
(dp3608
g13
(I200
I200
tp3609
sg15
(I600
I600
tp3610
ss(g46
g10
tp3611
(dp3612
g13
(I200
I0
tp3613
sg15
(I0
I1000
tp3614
ss(g265
g111
tp3615
(dp3616
g13
(I100
I100
tp3617
sg15
(I450
I450
tp3618
ss(g293
g321
tp3619
(dp3620
g13
(I200
I0
tp3621
sg15
(I0
I1000
tp3622
ss(g95
g303
tp3623
(dp3624
g13
(I200
I0
tp3625
sg15
(I0
I1000
tp3626
ss(g298
g222
tp3627
(dp3628
g13
(I200
I200
tp3629
sg15
(I600
I600
tp3630
ss(g288
g73
tp3631
(dp3632
g13
(I147
I99
tp3633
sg15
(I391
I631
tp3634
ss(g28
g222
tp3635
(dp3636
g13
(I200
I200
tp3637
sg15
(I600
I600
tp3638
ss(g106
g51
tp3639
(dp3640
g13
(I200
I200
tp3641
sg15
(I600
I600
tp3642
ss(g265
g429
tp3643
(dp3644
g13
(I0
I200
tp3645
sg15
(I1000
I0
tp3646
ss(g51
g35
tp3647
(dp3648
g13
(I200
I200
tp3649
sg15
(I600
I600
tp3650
ss(g810
g308
tp3651
(dp3652
g13
(I200
I200
tp3653
sg15
(I600
I600
tp3654
ss(g208
g35
tp3655
(dp3656
g13
(I200
I200
tp3657
sg15
(I600
I600
tp3658
ss(g10
g56
tp3659
(dp3660
g13
(I200
I200
tp3661
sg15
(I600
I600
tp3662
ss(g84
g117
tp3663
(dp3664
g13
(I23
I189
tp3665
sg15
(I920
I90
tp3666
ss(g73
g260
tp3667
(dp3668
g13
(I200
I0
tp3669
sg15
(I0
I1000
tp3670
ss(g29
g255
tp3671
(dp3672
g13
(I198
I198
tp3673
sg15
(I597
I597
tp3674
ss(g241
g101
tp3675
(dp3676
g13
(I200
I200
tp3677
sg15
(I600
I600
tp3678
ss(g117
g270
tp3679
(dp3680
g13
(I199
I199
tp3681
sg15
(I598
I598
tp3682
ss(g142
g303
tp3683
(dp3684
g13
(I200
I0
tp3685
sg15
(I0
I1000
tp3686
ss(g17
g217
tp3687
(dp3688
g13
(I1
I150
tp3689
sg15
(I799
I54
tp3690
ss(g74
g166
tp3691
(dp3692
g13
(I2
I67
tp3693
sg15
(I464
I139
tp3694
ss(g147
g171
tp3695
(dp3696
g13
(I200
I2
tp3697
sg15
(I6
I996
tp3698
ss(g207
g255
tp3699
(dp3700
g13
(I10
I7
tp3701
sg15
(I213
I228
tp3702
ss(g246
g222
tp3703
(dp3704
g13
(I200
I200
tp3705
sg15
(I600
I600
tp3706
ss(g118
g90
tp3707
(dp3708
g13
(I3
I197
tp3709
sg15
(I984
I14
tp3710
ss(g217
g346
tp3711
(dp3712
g13
(I150
I200
tp3713
sg15
(I700
I450
tp3714
ss(g346
g29
tp3715
(dp3716
g13
(I200
I199
tp3717
sg15
(I597
I602
tp3718
ss(g217
g46
tp3719
(dp3720
g13
(I150
I43
tp3721
sg15
(I197
I732
tp3722
ss(g171
g321
tp3723
(dp3724
g13
(I200
I0
tp3725
sg15
(I0
I1000
tp3726
ss(g232
g45
tp3727
(dp3728
g13
(I0
I1
tp3729
sg15
(I204
I199
tp3730
ss(g100
g283
tp3731
(dp3732
g13
(I168
I32
tp3733
sg15
(I144
I824
tp3734
ss(g51
g429
tp3735
(dp3736
g13
(I155
I136
tp3737
sg15
(I484
I579
tp3738
ss(g73
g79
tp3739
(dp3740
g13
(I97
I149
tp3741
sg15
(I652
I392
tp3742
ss(g106
g117
tp3743
(dp3744
g13
(I200
I0
tp3745
sg15
(I0
I1000
tp3746
ss(g298
g270
tp3747
(dp3748
g13
(I200
I200
tp3749
sg15
(I600
I600
tp3750
ss(g84
g504
tp3751
(dp3752
g13
(I200
I200
tp3753
sg15
(I600
I600
tp3754
ss(g288
g308
tp3755
(dp3756
g13
(I200
I200
tp3757
sg15
(I600
I600
tp3758
ss(g217
g89
tp3759
(dp3760
g13
(I150
I200
tp3761
sg15
(I700
I450
tp3762
ss(g84
g208
tp3763
(dp3764
g13
(I200
I200
tp3765
sg15
(I600
I600
tp3766
ss(g95
g198
tp3767
(dp3768
g13
(I200
I200
tp3769
sg15
(I600
I600
tp3770
ss(g346
g459
tp3771
(dp3772
g13
(I200
I199
tp3773
sg15
(I597
I602
tp3774
ss(g232
g35
tp3775
(dp3776
g13
(I0
I0
tp3777
sg15
(I200
I200
tp3778
ss(g34
g142
tp3779
(dp3780
g13
(I167
I22
tp3781
sg15
(I116
I841
tp3782
ss(g166
g227
tp3783
(dp3784
g13
(I17
I186
tp3785
sg15
(I923
I78
tp3786
ss(g34
g79
tp3787
(dp3788
g13
(I167
I200
tp3789
sg15
(I666
I501
tp3790
ss(g222
g260
tp3791
(dp3792
g13
(I39
I121
tp3793
sg15
(I626
I216
tp3794
ss(g46
g504
tp3795
(dp3796
g13
(I200
I200
tp3797
sg15
(I600
I600
tp3798
ss(g217
g283
tp3799
(dp3800
g13
(I150
I40
tp3801
sg15
(I183
I733
tp3802
ss(g118
g193
tp3803
(dp3804
g13
(I200
I0
tp3805
sg15
(I0
I1000
tp3806
ss(g28
g208
tp3807
(dp3808
g13
(I200
I200
tp3809
sg15
(I600
I600
tp3810
ss(g68
g293
tp3811
(dp3812
g13
(I199
I198
tp3813
sg15
(I595
I600
tp3814
ss(g34
g810
tp3815
(dp3816
g13
(I167
I200
tp3817
sg15
(I666
I501
tp3818
ss(g152
g429
tp3819
(dp3820
g13
(I131
I160
tp3821
sg15
(I609
I464
tp3822
ss(g34
g29
tp3823
(dp3824
g13
(I167
I199
tp3825
sg15
(I663
I503
tp3826
ss(g79
g89
tp3827
(dp3828
g13
(I200
I200
tp3829
sg15
(I600
I600
tp3830
ss(g62
g198
tp3831
(dp3832
g13
(I200
I200
tp3833
sg15
(I600
I600
tp3834
ss(g298
g40
tp3835
(dp3836
g13
(I200
I200
tp3837
sg15
(I600
I600
tp3838
ss(g29
g142
tp3839
(dp3840
g13
(I199
I190
tp3841
sg15
(I572
I617
tp3842
ss(g265
g227
tp3843
(dp3844
g13
(I0
I200
tp3845
sg15
(I1000
I0
tp3846
ss(g557
g293
tp3847
(dp3848
g13
(I200
I199
tp3849
sg15
(I597
I602
tp3850
ss(g61
g40
tp3851
(dp3852
g13
(I200
I200
tp3853
sg15
(I600
I600
tp3854
ss(g207
g227
tp3855
(dp3856
g13
(I10
I192
tp3857
sg15
(I955
I45
tp3858
ss(g346
g321
tp3859
(dp3860
g13
(I200
I0
tp3861
sg15
(I0
I1000
tp3862
ss(g208
g45
tp3863
(dp3864
g13
(I10
I10
tp3865
sg15
(I230
I230
tp3866
ss(g111
g45
tp3867
(dp3868
g13
(I100
I100
tp3869
sg15
(I500
I500
tp3870
ss(g298
g56
tp3871
(dp3872
g13
(I200
I0
tp3873
sg15
(I0
I1000
tp3874
ss(g73
g241
tp3875
(dp3876
g13
(I198
I2
tp3877
sg15
(I9
I989
tp3878
ss(g74
g89
tp3879
(dp3880
g13
(I197
I198
tp3881
sg15
(I600
I595
tp3882
ss(g283
g68
tp3883
(dp3884
g13
(I10
I11
tp3885
sg15
(I234
I229
tp3886
ss(g810
g260
tp3887
(dp3888
g13
(I81
I87
tp3889
sg15
(I451
I421
tp3890
ss(g255
g321
tp3891
(dp3892
g13
(I200
I0
tp3893
sg15
(I0
I1000
tp3894
ss(g288
g40
tp3895
(dp3896
g13
(I200
I200
tp3897
sg15
(I600
I600
tp3898
ss(g298
g193
tp3899
(dp3900
g13
(I200
I0
tp3901
sg15
(I0
I1000
tp3902
ss(g265
g89
tp3903
(dp3904
g13
(I99
I101
tp3905
sg15
(I472
I462
tp3906
ss(g29
g308
tp3907
(dp3908
g13
(I199
I187
tp3909
sg15
(I563
I623
tp3910
ss(g298
g283
tp3911
(dp3912
g13
(I200
I200
tp3913
sg15
(I600
I600
tp3914
ss(g260
g193
tp3915
(dp3916
g13
(I200
I0
tp3917
sg15
(I0
I1000
tp3918
ss(g112
g283
tp3919
(dp3920
g13
(I200
I200
tp3921
sg15
(I600
I600
tp3922
ss(g111
g35
tp3923
(dp3924
g13
(I200
I200
tp3925
sg15
(I600
I600
tp3926
ss(g147
g346
tp3927
(dp3928
g13
(I197
I189
tp3929
sg15
(I572
I612
tp3930
ss(g106
g207
tp3931
(dp3932
g13
(I200
I200
tp3933
sg15
(I600
I600
tp3934
ss(g67
g227
tp3935
(dp3936
g13
(I134
I200
tp3937
sg15
(I732
I402
tp3938
ss(g265
g152
tp3939
(dp3940
g13
(I120
I80
tp3941
sg15
(I360
I560
tp3942
ss(g207
g152
tp3943
(dp3944
g13
(I200
I200
tp3945
sg15
(I600
I600
tp3946
ss(g112
g557
tp3947
(dp3948
g13
(I200
I200
tp3949
sg15
(I600
I600
tp3950
ss(g17
g106
tp3951
(dp3952
g13
(I197
I200
tp3953
sg15
(I606
I591
tp3954
ss(g810
g56
tp3955
(dp3956
g13
(I200
I0
tp3957
sg15
(I0
I1000
tp3958
ss(g23
g308
tp3959
(dp3960
g13
(I182
I57
tp3961
sg15
(I200
I825
tp3962
ss(g147
g810
tp3963
(dp3964
g13
(I194
I197
tp3965
sg15
(I602
I587
tp3966
ss(g34
g293
tp3967
(dp3968
g13
(I167
I166
tp3969
sg15
(I564
I569
tp3970
ss(g217
g90
tp3971
(dp3972
g13
(I150
I152
tp3973
sg15
(I530
I520
tp3974
ss(g192
g222
tp3975
(dp3976
g13
(I2
I1
tp3977
sg15
(I202
I207
tp3978
ss(g265
g298
tp3979
(dp3980
g13
(I98
I101
tp3981
sg15
(I474
I459
tp3982
ss(g18
g193
tp3983
(dp3984
g13
(I200
I0
tp3985
sg15
(I0
I1000
tp3986
ss(g265
g459
tp3987
(dp3988
g13
(I0
I199
tp3989
sg15
(I996
I1
tp3990
ss(g51
g192
tp3991
(dp3992
g13
(I199
I199
tp3993
sg15
(I599
I599
tp3994
ss(g308
g321
tp3995
(dp3996
g13
(I200
I0
tp3997
sg15
(I0
I1000
tp3998
ss(g346
g222
tp3999
(dp4000
g13
(I200
I200
tp4001
sg15
(I600
I600
tp4002
ss(g241
g504
tp4003
(dp4004
g13
(I200
I200
tp4005
sg15
(I600
I600
tp4006
ss(g18
g79
tp4007
(dp4008
g13
(I198
I200
tp4009
sg15
(I604
I594
tp4010
ss(g147
g147
tp4011
(dp4012
g13
(I199
I199
tp4013
sg15
(I598
I598
tp4014
ss(g429
g270
tp4015
(dp4016
g13
(I146
I146
tp4017
sg15
(I492
I492
tp4018
ss(g207
g222
tp4019
(dp4020
g13
(I200
I200
tp4021
sg15
(I600
I600
tp4022
ss(g28
g321
tp4023
(dp4024
g13
(I200
I0
tp4025
sg15
(I0
I1000
tp4026
ss(g265
g192
tp4027
(dp4028
g13
(I99
I100
tp4029
sg15
(I451
I446
tp4030
ss(g283
g35
tp4031
(dp4032
g13
(I200
I200
tp4033
sg15
(I600
I600
tp4034
ss(g283
g123
tp4035
(dp4036
g13
(I200
I200
tp4037
sg15
(I600
I600
tp4038
ss(g73
g198
tp4039
(dp4040
g13
(I192
I9
tp4041
sg15
(I42
I957
tp4042
ss(g166
g142
tp4043
(dp4044
g13
(I200
I200
tp4045
sg15
(I600
I600
tp4046
ss(g45
g142
tp4047
(dp4048
g13
(I1
I1
tp4049
sg15
(I203
I203
tp4050
ss(g28
g62
tp4051
(dp4052
g13
(I200
I200
tp4053
sg15
(I600
I600
tp4054
ss(g62
g459
tp4055
(dp4056
g13
(I200
I199
tp4057
sg15
(I597
I602
tp4058
ss(g23
g293
tp4059
(dp4060
g13
(I182
I181
tp4061
sg15
(I579
I584
tp4062
ss(g429
g56
tp4063
(dp4064
g13
(I200
I0
tp4065
sg15
(I0
I1000
tp4066
ss(g67
g288
tp4067
(dp4068
g13
(I134
I200
tp4069
sg15
(I732
I402
tp4070
ss(g246
g227
tp4071
(dp4072
g13
(I200
I3
tp4073
sg15
(I9
I994
tp4074
ss(g17
g222
tp4075
(dp4076
g13
(I0
I1
tp4077
sg15
(I204
I199
tp4078
ss(g270
g193
tp4079
(dp4080
g13
(I200
I0
tp4081
sg15
(I0
I1000
tp4082
ss(g198
g193
tp4083
(dp4084
g13
(I200
I0
tp4085
sg15
(I0
I1000
tp4086
ss(g400
g152
tp4087
(dp4088
g13
(I200
I200
tp4089
sg15
(I600
I600
tp4090
ss(g265
g28
tp4091
(dp4092
g13
(I132
I67
tp4093
sg15
(I303
I628
tp4094
ss(g265
g142
tp4095
(dp4096
g13
(I168
I31
tp4097
sg15
(I141
I826
tp4098
ss(g298
g73
tp4099
(dp4100
g13
(I145
I101
tp4101
sg15
(I405
I625
tp4102
ss(g810
g270
tp4103
(dp4104
g13
(I200
I200
tp4105
sg15
(I600
I600
tp4106
ss(g147
g288
tp4107
(dp4108
g13
(I194
I197
tp4109
sg15
(I602
I587
tp4110
ss(g118
g504
tp4111
(dp4112
g13
(I200
I200
tp4113
sg15
(I600
I600
tp4114
ss(g79
g101
tp4115
(dp4116
g13
(I200
I200
tp4117
sg15
(I600
I600
tp4118
ss(g265
g84
tp4119
(dp4120
g13
(I30
I170
tp4121
sg15
(I840
I140
tp4122
ss(g117
g208
tp4123
(dp4124
g13
(I198
I179
tp4125
sg15
(I540
I635
tp4126
ss(g147
g61
tp4127
(dp4128
g13
(I195
I8
tp4129
sg15
(I33
I968
tp4130
ss(g9
g303
tp4131
(dp4132
g13
(I200
I0
tp4133
sg15
(I0
I1000
tp4134
ss(g106
g241
tp4135
(dp4136
g13
(I200
I200
tp4137
sg15
(I600
I600
tp4138
ss(g132
g18
tp4139
(dp4140
g13
(I199
I198
tp4141
sg15
(I595
I600
tp4142
ss(g265
g157
tp4143
(dp4144
g13
(I168
I31
tp4145
sg15
(I141
I826
tp4146
ss(g118
g459
tp4147
(dp4148
g13
(I200
I199
tp4149
sg15
(I597
I602
tp4150
ss(g68
g56
tp4151
(dp4152
g13
(I200
I0
tp4153
sg15
(I0
I1000
tp4154
ss(g557
g198
tp4155
(dp4156
g13
(I200
I200
tp4157
sg15
(I600
I600
tp4158
ss(g288
g400
tp4159
(dp4160
g13
(I200
I200
tp4161
sg15
(I600
I600
tp4162
ss(g68
g35
tp4163
(dp4164
g13
(I199
I199
tp4165
sg15
(I598
I598
tp4166
ss(g89
g68
tp4167
(dp4168
g13
(I200
I199
tp4169
sg15
(I597
I602
tp4170
ss(g67
g207
tp4171
(dp4172
g13
(I134
I10
tp4173
sg15
(I99
I719
tp4174
ss(g246
g152
tp4175
(dp4176
g13
(I200
I200
tp4177
sg15
(I600
I600
tp4178
ss(g207
g68
tp4179
(dp4180
g13
(I10
I10
tp4181
sg15
(I221
I221
tp4182
ss(g29
g40
tp4183
(dp4184
g13
(I200
I200
tp4185
sg15
(I600
I600
tp4186
ss(g89
g429
tp4187
(dp4188
g13
(I169
I123
tp4189
sg15
(I430
I660
tp4190
ss(g95
g288
tp4191
(dp4192
g13
(I200
I200
tp4193
sg15
(I600
I600
tp4194
ss(g101
g293
tp4195
(dp4196
g13
(I1
I1
tp4197
sg15
(I203
I203
tp4198
ss(g117
g68
tp4199
(dp4200
g13
(I199
I199
tp4201
sg15
(I598
I598
tp4202
ss(g112
g293
tp4203
(dp4204
g13
(I195
I194
tp4205
sg15
(I592
I597
tp4206
ss(g18
g62
tp4207
(dp4208
g13
(I198
I199
tp4209
sg15
(I600
I595
tp4210
ss(g23
g810
tp4211
(dp4212
g13
(I182
I200
tp4213
sg15
(I636
I546
tp4214
ss(g73
g68
tp4215
(dp4216
g13
(I123
I123
tp4217
sg15
(I493
I493
tp4218
ss(g166
g346
tp4219
(dp4220
g13
(I200
I200
tp4221
sg15
(I600
I600
tp4222
ss(g810
g10
tp4223
(dp4224
g13
(I200
I0
tp4225
sg15
(I0
I1000
tp4226
ss(g557
g400
tp4227
(dp4228
g13
(I200
I200
tp4229
sg15
(I600
I600
tp4230
ss(g34
g400
tp4231
(dp4232
g13
(I167
I200
tp4233
sg15
(I666
I501
tp4234
ss(g147
g45
tp4235
(dp4236
g13
(I200
I1
tp4237
sg15
(I3
I998
tp4238
ss(g112
g35
tp4239
(dp4240
g13
(I200
I200
tp4241
sg15
(I600
I600
tp4242
ss(g246
g171
tp4243
(dp4244
g13
(I200
I2
tp4245
sg15
(I6
I996
tp4246
ss(g90
g321
tp4247
(dp4248
g13
(I200
I0
tp4249
sg15
(I0
I1000
tp4250
ss(g74
g321
tp4251
(dp4252
g13
(I200
I0
tp4253
sg15
(I0
I1000
tp4254
ss(g288
g293
tp4255
(dp4256
g13
(I100
I100
tp4257
sg15
(I500
I500
tp4258
ss(g84
g51
tp4259
(dp4260
g13
(I200
I200
tp4261
sg15
(I600
I600
tp4262
ss(g84
g459
tp4263
(dp4264
g13
(I200
I199
tp4265
sg15
(I597
I602
tp4266
ss(g61
g157
tp4267
(dp4268
g13
(I198
I199
tp4269
sg15
(I600
I595
tp4270
ss(g246
g112
tp4271
(dp4272
g13
(I200
I200
tp4273
sg15
(I600
I600
tp4274
ss(g45
g308
tp4275
(dp4276
g13
(I1
I1
tp4277
sg15
(I203
I203
tp4278
ss(g117
g29
tp4279
(dp4280
g13
(I199
I198
tp4281
sg15
(I595
I600
tp4282
ss(g61
g346
tp4283
(dp4284
g13
(I198
I200
tp4285
sg15
(I604
I594
tp4286
ss(g117
g157
tp4287
(dp4288
g13
(I198
I189
tp4289
sg15
(I570
I615
tp4290
ss(g111
g68
tp4291
(dp4292
g13
(I199
I199
tp4293
sg15
(I599
I599
tp4294
ss(g89
g270
tp4295
(dp4296
g13
(I200
I200
tp4297
sg15
(I600
I600
tp4298
ss(g147
g198
tp4299
(dp4300
g13
(I192
I17
tp4301
sg15
(I66
I941
tp4302
ss(g106
g198
tp4303
(dp4304
g13
(I200
I200
tp4305
sg15
(I600
I600
tp4306
ss(g232
g260
tp4307
(dp4308
g13
(I0
I0
tp4309
sg15
(I200
I200
tp4310
ss(g400
g198
tp4311
(dp4312
g13
(I200
I200
tp4313
sg15
(I600
I600
tp4314
ss(g298
g166
tp4315
(dp4316
g13
(I200
I200
tp4317
sg15
(I600
I600
tp4318
ss(g132
g45
tp4319
(dp4320
g13
(I67
I67
tp4321
sg15
(I401
I401
tp4322
ss(g111
g429
tp4323
(dp4324
g13
(I146
I145
tp4325
sg15
(I534
I539
tp4326
ss(g166
g255
tp4327
(dp4328
g13
(I60
I58
tp4329
sg15
(I331
I341
tp4330
ss(g298
g142
tp4331
(dp4332
g13
(I200
I200
tp4333
sg15
(I600
I600
tp4334
ss(g74
g45
tp4335
(dp4336
g13
(I198
I198
tp4337
sg15
(I597
I597
tp4338
ss(g166
g46
tp4339
(dp4340
g13
(I200
I200
tp4341
sg15
(I600
I600
tp4342
ss(g137
g166
tp4343
(dp4344
g13
(I100
I29
tp4345
sg15
(I195
I550
tp4346
ss(g260
g152
tp4347
(dp4348
g13
(I84
I57
tp4349
sg15
(I316
I451
tp4350
ss(g288
g346
tp4351
(dp4352
g13
(I200
I200
tp4353
sg15
(I600
I600
tp4354
ss(g434
g504
tp4355
(dp4356
g13
(I200
I200
tp4357
sg15
(I600
I600
tp4358
ss(g95
g308
tp4359
(dp4360
g13
(I200
I200
tp4361
sg15
(I600
I600
tp4362
ss(g112
g123
tp4363
(dp4364
g13
(I200
I200
tp4365
sg15
(I600
I600
tp4366
ss(g61
g74
tp4367
(dp4368
g13
(I6
I2
tp4369
sg15
(I200
I220
tp4370
ss(g293
g459
tp4371
(dp4372
g13
(I199
I199
tp4373
sg15
(I599
I599
tp4374
ss(g51
g193
tp4375
(dp4376
g13
(I200
I0
tp4377
sg15
(I0
I1000
tp4378
ss(g217
g260
tp4379
(dp4380
g13
(I150
I0
tp4381
sg15
(I50
I800
tp4382
ss(g106
g73
tp4383
(dp4384
g13
(I200
I1
tp4385
sg15
(I3
I998
tp4386
ss(g74
g504
tp4387
(dp4388
g13
(I198
I198
tp4389
sg15
(I597
I597
tp4390
ss(g132
g192
tp4391
(dp4392
g13
(I67
I67
tp4393
sg15
(I401
I401
tp4394
ss(g123
g45
tp4395
(dp4396
g13
(I13
I13
tp4397
sg15
(I239
I239
tp4398
ss(g23
g227
tp4399
(dp4400
g13
(I182
I154
tp4401
sg15
(I489
I629
tp4402
ss(g112
g308
tp4403
(dp4404
g13
(I200
I200
tp4405
sg15
(I600
I600
tp4406
ss(g132
g241
tp4407
(dp4408
g13
(I200
I200
tp4409
sg15
(I600
I600
tp4410
ss(g198
g459
tp4411
(dp4412
g13
(I200
I199
tp4413
sg15
(I597
I602
tp4414
ss(g504
g10
tp4415
(dp4416
g13
(I200
I0
tp4417
sg15
(I0
I1000
tp4418
ss(g23
g207
tp4419
(dp4420
g13
(I182
I10
tp4421
sg15
(I51
I911
tp4422
ss(g232
g293
tp4423
(dp4424
g13
(I0
I0
tp4425
sg15
(I200
I200
tp4426
ss(g61
g9
tp4427
(dp4428
g13
(I198
I199
tp4429
sg15
(I600
I595
tp4430
ss(g260
g10
tp4431
(dp4432
g13
(I200
I0
tp4433
sg15
(I0
I1000
tp4434
ss(g112
g192
tp4435
(dp4436
g13
(I199
I199
tp4437
sg15
(I599
I599
tp4438
ss(g171
g193
tp4439
(dp4440
g13
(I200
I0
tp4441
sg15
(I0
I1000
tp4442
ss(g67
g123
tp4443
(dp4444
g13
(I134
I25
tp4445
sg15
(I151
I696
tp4446
ss(g84
g434
tp4447
(dp4448
g13
(I200
I200
tp4449
sg15
(I600
I600
tp4450
ss(g23
g400
tp4451
(dp4452
g13
(I182
I200
tp4453
sg15
(I636
I546
tp4454
ss(g241
g152
tp4455
(dp4456
g13
(I200
I200
tp4457
sg15
(I600
I600
tp4458
ss(g67
g157
tp4459
(dp4460
g13
(I134
I19
tp4461
sg15
(I140
I715
tp4462
ss(g232
g51
tp4463
(dp4464
g13
(I0
I1
tp4465
sg15
(I204
I199
tp4466
ss(g111
g260
tp4467
(dp4468
g13
(I67
I66
tp4469
sg15
(I364
I369
tp4470
ss(g117
g298
tp4471
(dp4472
g13
(I198
I197
tp4473
sg15
(I594
I599
tp4474
ss(g157
g79
tp4475
(dp4476
g13
(I200
I200
tp4477
sg15
(I600
I600
tp4478
ss(g112
g29
tp4479
(dp4480
g13
(I199
I199
tp4481
sg15
(I599
I599
tp4482
ss(g147
g241
tp4483
(dp4484
g13
(I198
I5
tp4485
sg15
(I18
I983
tp4486
ss(g810
g45
tp4487
(dp4488
g13
(I190
I189
tp4489
sg15
(I587
I592
tp4490
ss(g51
g9
tp4491
(dp4492
g13
(I200
I200
tp4493
sg15
(I600
I600
tp4494
ss(g29
g198
tp4495
(dp4496
g13
(I199
I11
tp4497
sg15
(I35
I975
tp4498
ss(g23
g152
tp4499
(dp4500
g13
(I182
I164
tp4501
sg15
(I528
I618
tp4502
ss(g152
g270
tp4503
(dp4504
g13
(I200
I200
tp4505
sg15
(I600
I600
tp4506
ss(g241
g260
tp4507
(dp4508
g13
(I1
I196
tp4509
sg15
(I983
I8
tp4510
ss(g232
g61
tp4511
(dp4512
g13
(I0
I4
tp4513
sg15
(I216
I196
tp4514
ss(g810
g142
tp4515
(dp4516
g13
(I200
I200
tp4517
sg15
(I600
I600
tp4518
ss(g810
g28
tp4519
(dp4520
g13
(I200
I200
tp4521
sg15
(I600
I600
tp4522
ss(g17
g74
tp4523
(dp4524
g13
(I0
I2
tp4525
sg15
(I208
I198
tp4526
ss(g166
g429
tp4527
(dp4528
g13
(I9
I192
tp4529
sg15
(I957
I42
tp4530
ss(g207
g346
tp4531
(dp4532
g13
(I200
I200
tp4533
sg15
(I600
I600
tp4534
ss(g265
g303
tp4535
(dp4536
g13
(I199
I0
tp4537
sg15
(I1
I996
tp4538
ss(g260
g321
tp4539
(dp4540
g13
(I200
I0
tp4541
sg15
(I0
I1000
tp4542
ss(g35
g56
tp4543
(dp4544
g13
(I200
I0
tp4545
sg15
(I0
I1000
tp4546
ss(g79
g10
tp4547
(dp4548
g13
(I200
I0
tp4549
sg15
(I0
I1000
tp4550
ss(g23
g198
tp4551
(dp4552
g13
(I182
I14
tp4553
sg15
(I63
I903
tp4554
ss(g298
g459
tp4555
(dp4556
g13
(I200
I199
tp4557
sg15
(I597
I602
tp4558
ss(g208
g293
tp4559
(dp4560
g13
(I10
I10
tp4561
sg15
(I230
I230
tp4562
ss(g232
g308
tp4563
(dp4564
g13
(I0
I1
tp4565
sg15
(I204
I199
tp4566
ss(g106
g56
tp4567
(dp4568
g13
(I200
I0
tp4569
sg15
(I0
I1000
tp4570
ss(g434
g298
tp4571
(dp4572
g13
(I200
I200
tp4573
sg15
(I600
I600
tp4574
ss(g89
g308
tp4575
(dp4576
g13
(I200
I200
tp4577
sg15
(I600
I600
tp4578
ss(g557
g62
tp4579
(dp4580
g13
(I200
I200
tp4581
sg15
(I600
I600
tp4582
ss(g371
g118
tp4583
(dp4584
g13
(I200
I200
tp4585
sg15
(I600
I600
tp4586
ss(g90
g504
tp4587
(dp4588
g13
(I151
I152
tp4589
sg15
(I553
I548
tp4590
ss(g132
g198
tp4591
(dp4592
g13
(I200
I200
tp4593
sg15
(I600
I600
tp4594
ss(g434
g74
tp4595
(dp4596
g13
(I1
I2
tp4597
sg15
(I207
I202
tp4598
ss(g74
g10
tp4599
(dp4600
g13
(I200
I0
tp4601
sg15
(I0
I1000
tp4602
ss(g67
g111
tp4603
(dp4604
g13
(I134
I134
tp4605
sg15
(I534
I534
tp4606
ss(g74
g198
tp4607
(dp4608
g13
(I2
I17
tp4609
sg15
(I264
I189
tp4610
ss(g434
g171
tp4611
(dp4612
g13
(I3
I100
tp4613
sg15
(I595
I110
tp4614
ss(g371
g90
tp4615
(dp4616
g13
(I200
I1
tp4617
sg15
(I3
I998
tp4618
ss(g246
g118
tp4619
(dp4620
g13
(I200
I200
tp4621
sg15
(I600
I600
tp4622
ss(g79
g90
tp4623
(dp4624
g13
(I176
I127
tp4625
sg15
(I428
I673
tp4626
ss(g89
g123
tp4627
(dp4628
g13
(I200
I200
tp4629
sg15
(I600
I600
tp4630
ss(g106
g123
tp4631
(dp4632
g13
(I200
I200
tp4633
sg15
(I600
I600
tp4634
ss(g95
g434
tp4635
(dp4636
g13
(I200
I200
tp4637
sg15
(I600
I600
tp4638
ss(g17
g100
tp4639
(dp4640
g13
(I2
I198
tp4641
sg15
(I989
I9
tp4642
ss(g255
g459
tp4643
(dp4644
g13
(I100
I199
tp4645
sg15
(I796
I301
tp4646
ss(g288
g35
tp4647
(dp4648
g13
(I200
I200
tp4649
sg15
(I600
I600
tp4650
ss(g810
g459
tp4651
(dp4652
g13
(I200
I199
tp4653
sg15
(I597
I602
tp4654
ss(g118
g62
tp4655
(dp4656
g13
(I200
I200
tp4657
sg15
(I600
I600
tp4658
ss(g18
g265
tp4659
(dp4660
g13
(I4
I195
tp4661
sg15
(I976
I21
tp4662
ss(g255
g56
tp4663
(dp4664
g13
(I200
I0
tp4665
sg15
(I0
I1000
tp4666
ss(g207
g79
tp4667
(dp4668
g13
(I200
I200
tp4669
sg15
(I600
I600
tp4670
ss(g147
g117
tp4671
(dp4672
g13
(I200
I0
tp4673
sg15
(I0
I1000
tp4674
ss(g90
g222
tp4675
(dp4676
g13
(I177
I126
tp4677
sg15
(I423
I678
tp4678
ss(g100
g40
tp4679
(dp4680
g13
(I200
I200
tp4681
sg15
(I600
I600
tp4682
ss(g171
g10
tp4683
(dp4684
g13
(I200
I0
tp4685
sg15
(I0
I1000
tp4686
ss(g171
g429
tp4687
(dp4688
g13
(I146
I145
tp4689
sg15
(I534
I539
tp4690
ss(g23
g217
tp4691
(dp4692
g13
(I182
I150
tp4693
sg15
(I482
I642
tp4694
ss(g118
g118
tp4695
(dp4696
g13
(I200
I200
tp4697
sg15
(I600
I600
tp4698
ss(g132
g28
tp4699
(dp4700
g13
(I200
I200
tp4701
sg15
(I600
I600
tp4702
ss(g198
g198
tp4703
(dp4704
g13
(I200
I200
tp4705
sg15
(I600
I600
tp4706
ss(g34
g255
tp4707
(dp4708
g13
(I167
I165
tp4709
sg15
(I560
I570
tp4710
ss(g9
g9
tp4711
(dp4712
g13
(I200
I200
tp4713
sg15
(I600
I600
tp4714
ss(g217
g10
tp4715
(dp4716
g13
(I200
I0
tp4717
sg15
(I0
I1000
tp4718
ss(g217
g241
tp4719
(dp4720
g13
(I150
I4
tp4721
sg15
(I63
I793
tp4722
ss(g132
g35
tp4723
(dp4724
g13
(I200
I200
tp4725
sg15
(I600
I600
tp4726
ss(g79
g56
tp4727
(dp4728
g13
(I200
I0
tp4729
sg15
(I0
I1000
tp4730
ss(g147
g101
tp4731
(dp4732
g13
(I198
I183
tp4733
sg15
(I552
I627
tp4734
ss(g157
g459
tp4735
(dp4736
g13
(I200
I199
tp4737
sg15
(I597
I602
tp4738
ss(g17
g62
tp4739
(dp4740
g13
(I0
I100
tp4741
sg15
(I600
I100
tp4742
ss(g152
g56
tp4743
(dp4744
g13
(I200
I0
tp4745
sg15
(I0
I1000
tp4746
ss(g112
g10
tp4747
(dp4748
g13
(I200
I0
tp4749
sg15
(I0
I1000
tp4750
ss(g9
g198
tp4751
(dp4752
g13
(I200
I200
tp4753
sg15
(I600
I600
tp4754
ss(g232
g46
tp4755
(dp4756
g13
(I0
I1
tp4757
sg15
(I204
I199
tp4758
ss(g74
g68
tp4759
(dp4760
g13
(I2
I199
tp4761
sg15
(I992
I7
tp4762
ss(g157
g208
tp4763
(dp4764
g13
(I200
I200
tp4765
sg15
(I600
I600
tp4766
ss(g157
g198
tp4767
(dp4768
g13
(I200
I200
tp4769
sg15
(I600
I600
tp4770
ss(g23
g62
tp4771
(dp4772
g13
(I182
I101
tp4773
sg15
(I330
I735
tp4774
ss(g504
g260
tp4775
(dp4776
g13
(I67
I66
tp4777
sg15
(I364
I369
tp4778
ss(g84
g74
tp4779
(dp4780
g13
(I19
I2
tp4781
sg15
(I187
I272
tp4782
ss(g17
g112
tp4783
(dp4784
g13
(I0
I1
tp4785
sg15
(I204
I199
tp4786
ss(g123
g29
tp4787
(dp4788
g13
(I187
I199
tp4789
sg15
(I623
I563
tp4790
ss(g23
g346
tp4791
(dp4792
g13
(I182
I200
tp4793
sg15
(I636
I546
tp4794
ss(g132
g111
tp4795
(dp4796
g13
(I200
I200
tp4797
sg15
(I600
I600
tp4798
ss(g61
g222
tp4799
(dp4800
g13
(I198
I199
tp4801
sg15
(I600
I595
tp4802
ss(g255
g62
tp4803
(dp4804
g13
(I67
I67
tp4805
sg15
(I401
I401
tp4806
ss(g84
g9
tp4807
(dp4808
g13
(I200
I200
tp4809
sg15
(I600
I600
tp4810
ss(g34
g260
tp4811
(dp4812
g13
(I167
I0
tp4813
sg15
(I33
I868
tp4814
ss(g152
g303
tp4815
(dp4816
g13
(I200
I0
tp4817
sg15
(I0
I1000
tp4818
ss(g132
g117
tp4819
(dp4820
g13
(I199
I198
tp4821
sg15
(I595
I600
tp4822
ss(g18
g61
tp4823
(dp4824
g13
(I198
I198
tp4825
sg15
(I596
I596
tp4826
ss(g132
g56
tp4827
(dp4828
g13
(I200
I0
tp4829
sg15
(I0
I1000
tp4830
ss(g207
g89
tp4831
(dp4832
g13
(I200
I200
tp4833
sg15
(I600
I600
tp4834
ss(g34
g73
tp4835
(dp4836
g13
(I167
I80
tp4837
sg15
(I281
I716
tp4838
ss(g557
g193
tp4839
(dp4840
g13
(I200
I0
tp4841
sg15
(I0
I1000
tp4842
ss(g74
g56
tp4843
(dp4844
g13
(I200
I0
tp4845
sg15
(I0
I1000
tp4846
ss(g29
g557
tp4847
(dp4848
g13
(I199
I200
tp4849
sg15
(I602
I597
tp4850
ss(g132
g51
tp4851
(dp4852
g13
(I200
I200
tp4853
sg15
(I600
I600
tp4854
ss(g67
g459
tp4855
(dp4856
g13
(I134
I199
tp4857
sg15
(I729
I404
tp4858
ss(g241
g166
tp4859
(dp4860
g13
(I200
I200
tp4861
sg15
(I600
I600
tp4862
ss(g84
g193
tp4863
(dp4864
g13
(I200
I0
tp4865
sg15
(I0
I1000
tp4866
ss(g9
g321
tp4867
(dp4868
g13
(I200
I0
tp4869
sg15
(I0
I1000
tp4870
ss(g123
g90
tp4871
(dp4872
g13
(I111
I192
tp4873
sg15
(I753
I348
tp4874
ss(g45
g10
tp4875
(dp4876
g13
(I200
I0
tp4877
sg15
(I0
I1000
tp4878
ss(g23
g123
tp4879
(dp4880
g13
(I182
I57
tp4881
sg15
(I200
I825
tp4882
ss(g28
g142
tp4883
(dp4884
g13
(I200
I200
tp4885
sg15
(I600
I600
tp4886
ss(g90
g40
tp4887
(dp4888
g13
(I200
I200
tp4889
sg15
(I600
I600
tp4890
ss(g106
g90
tp4891
(dp4892
g13
(I200
I1
tp4893
sg15
(I3
I998
tp4894
ss(g288
g241
tp4895
(dp4896
g13
(I200
I200
tp4897
sg15
(I600
I600
tp4898
ss(g132
g303
tp4899
(dp4900
g13
(I200
I0
tp4901
sg15
(I0
I1000
tp4902
ss(g23
g260
tp4903
(dp4904
g13
(I182
I0
tp4905
sg15
(I18
I928
tp4906
ss(g17
g123
tp4907
(dp4908
g13
(I0
I13
tp4909
sg15
(I252
I187
tp4910
ss(g132
g810
tp4911
(dp4912
g13
(I200
I200
tp4913
sg15
(I600
I600
tp4914
ss(g118
g346
tp4915
(dp4916
g13
(I200
I200
tp4917
sg15
(I600
I600
tp4918
ss(g193
g40
tp4919
(dp4920
g13
(I200
I200
tp4921
sg15
(I600
I600
tp4922
ss(g283
g10
tp4923
(dp4924
g13
(I200
I0
tp4925
sg15
(I0
I1000
tp4926
ss(g61
g171
tp4927
(dp4928
g13
(I6
I99
tp4929
sg15
(I588
I123
tp4930
ss(g118
g157
tp4931
(dp4932
g13
(I200
I200
tp4933
sg15
(I600
I600
tp4934
ss(g227
g270
tp4935
(dp4936
g13
(I182
I182
tp4937
sg15
(I564
I564
tp4938
ss(g207
g459
tp4939
(dp4940
g13
(I200
I199
tp4941
sg15
(I597
I602
tp4942
ss(g29
g400
tp4943
(dp4944
g13
(I199
I200
tp4945
sg15
(I602
I597
tp4946
ss(g241
g79
tp4947
(dp4948
g13
(I200
I200
tp4949
sg15
(I600
I600
tp4950
ss(g270
g10
tp4951
(dp4952
g13
(I200
I0
tp4953
sg15
(I0
I1000
tp4954
ss(g34
g321
tp4955
(dp4956
g13
(I200
I0
tp4957
sg15
(I0
I1000
tp4958
ss(g157
g68
tp4959
(dp4960
g13
(I1
I2
tp4961
sg15
(I207
I202
tp4962
ss(g111
g459
tp4963
(dp4964
g13
(I200
I199
tp4965
sg15
(I597
I602
tp4966
ss(g101
g346
tp4967
(dp4968
g13
(I200
I200
tp4969
sg15
(I600
I600
tp4970
ss(g68
g40
tp4971
(dp4972
g13
(I200
I200
tp4973
sg15
(I600
I600
tp4974
ss(g95
g459
tp4975
(dp4976
g13
(I200
I199
tp4977
sg15
(I597
I602
tp4978
ss(g232
g303
tp4979
(dp4980
g13
(I199
I0
tp4981
sg15
(I1
I996
tp4982
ss(g118
g142
tp4983
(dp4984
g13
(I200
I200
tp4985
sg15
(I600
I600
tp4986
ss(g118
g28
tp4987
(dp4988
g13
(I200
I200
tp4989
sg15
(I600
I600
tp4990
ss(g17
g67
tp4991
(dp4992
g13
(I0
I134
tp4993
sg15
(I736
I66
tp4994
ss(g157
g429
tp4995
(dp4996
g13
(I101
I189
tp4997
sg15
(I763
I323
tp4998
ss(g222
g270
tp4999
(dp5000
g13
(I200
I200
tp5001
sg15
(I600
I600
tp5002
ss(g95
g90
tp5003
(dp5004
g13
(I200
I1
tp5005
sg15
(I3
I998
tp5006
ss(g192
g303
tp5007
(dp5008
g13
(I199
I0
tp5009
sg15
(I1
I996
tp5010
ss(g265
g308
tp5011
(dp5012
g13
(I174
I25
tp5013
sg15
(I114
I859
tp5014
ss(g111
g208
tp5015
(dp5016
g13
(I200
I200
tp5017
sg15
(I600
I600
tp5018
ss(g207
g293
tp5019
(dp5020
g13
(I10
I10
tp5021
sg15
(I221
I221
tp5022
ss(g157
g111
tp5023
(dp5024
g13
(I200
I200
tp5025
sg15
(I600
I600
tp5026
ss(g246
g73
tp5027
(dp5028
g13
(I200
I1
tp5029
sg15
(I3
I998
tp5030
ss(g106
g193
tp5031
(dp5032
g13
(I200
I0
tp5033
sg15
(I0
I1000
tp5034
ss(g152
g10
tp5035
(dp5036
g13
(I200
I0
tp5037
sg15
(I0
I1000
tp5038
ss(g810
g40
tp5039
(dp5040
g13
(I200
I200
tp5041
sg15
(I600
I600
tp5042
ss(g101
g429
tp5043
(dp5044
g13
(I93
I193
tp5045
sg15
(I792
I292
tp5046
ss(g89
g46
tp5047
(dp5048
g13
(I200
I200
tp5049
sg15
(I600
I600
tp5050
ss(g67
g29
tp5051
(dp5052
g13
(I134
I199
tp5053
sg15
(I729
I404
tp5054
ss(g434
g222
tp5055
(dp5056
g13
(I200
I200
tp5057
sg15
(I600
I600
tp5058
ss(g106
g557
tp5059
(dp5060
g13
(I200
I200
tp5061
sg15
(I600
I600
tp5062
ss(g166
g504
tp5063
(dp5064
g13
(I200
I200
tp5065
sg15
(I600
I600
tp5066
ss(g157
g74
tp5067
(dp5068
g13
(I1
I2
tp5069
sg15
(I207
I202
tp5070
ss(g255
g504
tp5071
(dp5072
g13
(I199
I199
tp5073
sg15
(I599
I599
tp5074
ss(g147
g227
tp5075
(dp5076
g13
(I200
I3
tp5077
sg15
(I9
I994
tp5078
ss(g308
g10
tp5079
(dp5080
g13
(I200
I0
tp5081
sg15
(I0
I1000
tp5082
ss(g371
g73
tp5083
(dp5084
g13
(I200
I1
tp5085
sg15
(I3
I998
tp5086
ss(g207
g62
tp5087
(dp5088
g13
(I200
I200
tp5089
sg15
(I600
I600
tp5090
ss(g166
g308
tp5091
(dp5092
g13
(I200
I200
tp5093
sg15
(I600
I600
tp5094
ss(g207
g112
tp5095
(dp5096
g13
(I200
I200
tp5097
sg15
(I600
I600
tp5098
ss(g557
g142
tp5099
(dp5100
g13
(I200
I200
tp5101
sg15
(I600
I600
tp5102
ss(g106
g283
tp5103
(dp5104
g13
(I200
I200
tp5105
sg15
(I600
I600
tp5106
ss(g95
g35
tp5107
(dp5108
g13
(I200
I200
tp5109
sg15
(I600
I600
tp5110
ss(g123
g293
tp5111
(dp5112
g13
(I13
I13
tp5113
sg15
(I239
I239
tp5114
ss(g34
g557
tp5115
(dp5116
g13
(I167
I200
tp5117
sg15
(I666
I501
tp5118
ss(g117
g74
tp5119
(dp5120
g13
(I199
I2
tp5121
sg15
(I7
I992
tp5122
ss(g118
g111
tp5123
(dp5124
g13
(I200
I200
tp5125
sg15
(I600
I600
tp5126
ss(g288
g112
tp5127
(dp5128
g13
(I200
I200
tp5129
sg15
(I600
I600
tp5130
ss(g308
g171
tp5131
(dp5132
g13
(I174
I186
tp5133
sg15
(I597
I537
tp5134
ss(g137
g227
tp5135
(dp5136
g13
(I100
I200
tp5137
sg15
(I800
I300
tp5138
ss(g18
g9
tp5139
(dp5140
g13
(I198
I199
tp5141
sg15
(I600
I595
tp5142
ss(g95
g68
tp5143
(dp5144
g13
(I200
I199
tp5145
sg15
(I597
I602
tp5146
ss(g106
g89
tp5147
(dp5148
g13
(I200
I200
tp5149
sg15
(I600
I600
tp5150
ss(g23
g61
tp5151
(dp5152
g13
(I182
I14
tp5153
sg15
(I64
I904
tp5154
ss(g112
g51
tp5155
(dp5156
g13
(I200
I200
tp5157
sg15
(I600
I600
tp5158
ss(g207
g288
tp5159
(dp5160
g13
(I200
I200
tp5161
sg15
(I600
I600
tp5162
ss(g198
g303
tp5163
(dp5164
g13
(I200
I0
tp5165
sg15
(I0
I1000
tp5166
ss(g171
g198
tp5167
(dp5168
g13
(I97
I13
tp5169
sg15
(I151
I571
tp5170
ss(g100
g61
tp5171
(dp5172
g13
(I195
I5
tp5173
sg15
(I24
I974
tp5174
ss(g557
g308
tp5175
(dp5176
g13
(I200
I200
tp5177
sg15
(I600
I600
tp5178
ss(g28
g90
tp5179
(dp5180
g13
(I127
I175
tp5181
sg15
(I670
I430
tp5182
ss(g222
g9
tp5183
(dp5184
g13
(I200
I200
tp5185
sg15
(I600
I600
tp5186
ss(g95
g246
tp5187
(dp5188
g13
(I200
I200
tp5189
sg15
(I600
I600
tp5190
ss(g265
g101
tp5191
(dp5192
g13
(I176
I23
tp5193
sg15
(I105
I870
tp5194
ss(g232
g208
tp5195
(dp5196
g13
(I0
I10
tp5197
sg15
(I240
I190
tp5198
ss(g132
g400
tp5199
(dp5200
g13
(I200
I200
tp5201
sg15
(I600
I600
tp5202
ss(g73
g10
tp5203
(dp5204
g13
(I200
I0
tp5205
sg15
(I0
I1000
tp5206
ss(g74
g283
tp5207
(dp5208
g13
(I11
I10
tp5209
sg15
(I229
I234
tp5210
ss(g157
g504
tp5211
(dp5212
g13
(I200
I200
tp5213
sg15
(I600
I600
tp5214
ss(g217
g255
tp5215
(dp5216
g13
(I150
I150
tp5217
sg15
(I549
I549
tp5218
ss(g288
g101
tp5219
(dp5220
g13
(I200
I200
tp5221
sg15
(I600
I600
tp5222
ss(g17
g137
tp5223
(dp5224
g13
(I0
I100
tp5225
sg15
(I600
I100
tp5226
ss(g208
g142
tp5227
(dp5228
g13
(I200
I200
tp5229
sg15
(I600
I600
tp5230
ss(g18
g459
tp5231
(dp5232
g13
(I198
I199
tp5233
sg15
(I600
I595
tp5234
ss(g79
g222
tp5235
(dp5236
g13
(I200
I200
tp5237
sg15
(I600
I600
tp5238
ss(g142
g46
tp5239
(dp5240
g13
(I200
I200
tp5241
sg15
(I600
I600
tp5242
ss(g241
g429
tp5243
(dp5244
g13
(I2
I198
tp5245
sg15
(I989
I9
tp5246
ss(g137
g123
tp5247
(dp5248
g13
(I100
I14
tp5249
sg15
(I155
I585
tp5250
ss(g137
g28
tp5251
(dp5252
g13
(I100
I2
tp5253
sg15
(I107
I597
tp5254
ss(g137
g152
tp5255
(dp5256
g13
(I100
I2
tp5257
sg15
(I107
I597
tp5258
ss(g84
g298
tp5259
(dp5260
g13
(I200
I200
tp5261
sg15
(I600
I600
tp5262
ss(g67
g429
tp5263
(dp5264
g13
(I134
I158
tp5265
sg15
(I570
I450
tp5266
ss(g246
g166
tp5267
(dp5268
g13
(I200
I200
tp5269
sg15
(I600
I600
tp5270
ss(g132
g208
tp5271
(dp5272
g13
(I200
I200
tp5273
sg15
(I600
I600
tp5274
ss(g217
g217
tp5275
(dp5276
g13
(I150
I150
tp5277
sg15
(I500
I500
tp5278
ss(g51
g28
tp5279
(dp5280
g13
(I200
I200
tp5281
sg15
(I600
I600
tp5282
ss(g137
g308
tp5283
(dp5284
g13
(I100
I9
tp5285
sg15
(I135
I590
tp5286
ss(g28
g152
tp5287
(dp5288
g13
(I200
I200
tp5289
sg15
(I600
I600
tp5290
ss(g288
g62
tp5291
(dp5292
g13
(I200
I200
tp5293
sg15
(I600
I600
tp5294
ss(g132
g434
tp5295
(dp5296
g13
(I200
I200
tp5297
sg15
(I600
I600
tp5298
ss(g106
g171
tp5299
(dp5300
g13
(I200
I2
tp5301
sg15
(I6
I996
tp5302
ss(g132
g557
tp5303
(dp5304
g13
(I200
I200
tp5305
sg15
(I600
I600
tp5306
ss(g217
g67
tp5307
(dp5308
g13
(I150
I134
tp5309
sg15
(I486
I566
tp5310
ss(g371
g28
tp5311
(dp5312
g13
(I200
I200
tp5313
sg15
(I600
I600
tp5314
ss(g346
g270
tp5315
(dp5316
g13
(I200
I200
tp5317
sg15
(I600
I600
tp5318
ss(g137
g171
tp5319
(dp5320
g13
(I100
I150
tp5321
sg15
(I650
I400
tp5322
ss(g18
g255
tp5323
(dp5324
g13
(I8
I6
tp5325
sg15
(I212
I222
tp5326
ss(g371
g123
tp5327
(dp5328
g13
(I200
I200
tp5329
sg15
(I600
I600
tp5330
ss(g23
g557
tp5331
(dp5332
g13
(I182
I193
tp5333
sg15
(I614
I559
tp5334
ss(g74
g193
tp5335
(dp5336
g13
(I200
I0
tp5337
sg15
(I0
I1000
tp5338
ss(g371
g35
tp5339
(dp5340
g13
(I200
I200
tp5341
sg15
(I600
I600
tp5342
ss(g90
g255
tp5343
(dp5344
g13
(I152
I151
tp5345
sg15
(I548
I553
tp5346
ss(g45
g459
tp5347
(dp5348
g13
(I1
I199
tp5349
sg15
(I994
I4
tp5350
ss(g100
g265
tp5351
(dp5352
g13
(I200
I0
tp5353
sg15
(I0
I1000
tp5354
ss(g17
g207
tp5355
(dp5356
g13
(I8
I10
tp5357
sg15
(I225
I215
tp5358
ss(g34
g192
tp5359
(dp5360
g13
(I167
I2
tp5361
sg15
(I39
I864
tp5362
ss(g45
g152
tp5363
(dp5364
g13
(I1
I1
tp5365
sg15
(I203
I203
tp5366
ss(g166
g293
tp5367
(dp5368
g13
(I117
I117
tp5369
sg15
(I443
I443
tp5370
ss(g132
g232
tp5371
(dp5372
g13
(I100
I0
tp5373
sg15
(I100
I600
tp5374
ss(g557
g270
tp5375
(dp5376
g13
(I200
I200
tp5377
sg15
(I600
I600
tp5378
ss(g132
g84
tp5379
(dp5380
g13
(I200
I200
tp5381
sg15
(I600
I600
tp5382
ss(g255
g227
tp5383
(dp5384
g13
(I100
I200
tp5385
sg15
(I800
I300
tp5386
ss(g111
g142
tp5387
(dp5388
g13
(I200
I200
tp5389
sg15
(I600
I600
tp5390
ss(g100
g810
tp5391
(dp5392
g13
(I95
I105
tp5393
sg15
(I490
I440
tp5394
ss(g73
g222
tp5395
(dp5396
g13
(I160
I86
tp5397
sg15
(I322
I692
tp5398
ss(g147
g459
tp5399
(dp5400
g13
(I4
I199
tp5401
sg15
(I988
I13
tp5402
ss(g157
g152
tp5403
(dp5404
g13
(I200
I200
tp5405
sg15
(I600
I600
tp5406
ss(g117
g112
tp5407
(dp5408
g13
(I198
I197
tp5409
sg15
(I594
I599
tp5410
ss(g192
g152
tp5411
(dp5412
g13
(I3
I2
tp5413
sg15
(I205
I210
tp5414
ss(g132
g321
tp5415
(dp5416
g13
(I200
I0
tp5417
sg15
(I0
I1000
tp5418
ss(g68
g9
tp5419
(dp5420
g13
(I2
I1
tp5421
sg15
(I202
I207
tp5422
ss(g117
g429
tp5423
(dp5424
g13
(I0
I200
tp5425
sg15
(I1000
I0
tp5426
ss(g207
g504
tp5427
(dp5428
g13
(I200
I200
tp5429
sg15
(I600
I600
tp5430
ss(g157
g10
tp5431
(dp5432
g13
(I200
I0
tp5433
sg15
(I0
I1000
tp5434
ss(g17
g283
tp5435
(dp5436
g13
(I0
I10
tp5437
sg15
(I240
I190
tp5438
ss(g90
g227
tp5439
(dp5440
g13
(I1
I200
tp5441
sg15
(I998
I3
tp5442
ss(g504
g193
tp5443
(dp5444
g13
(I200
I0
tp5445
sg15
(I0
I1000
tp5446
ss(g157
g308
tp5447
(dp5448
g13
(I200
I200
tp5449
sg15
(I600
I600
tp5450
ss(g29
g35
tp5451
(dp5452
g13
(I0
I0
tp5453
sg15
(I200
I200
tp5454
ss(g303
g10
tp5455
(dp5456
g13
(I0
I200
tp5457
sg15
(I1000
I0
tp5458
ss(g45
g270
tp5459
(dp5460
g13
(I1
I1
tp5461
sg15
(I202
I202
tp5462
ss(g137
g101
tp5463
(dp5464
g13
(I100
I18
tp5465
sg15
(I171
I581
tp5466
ss(g111
g90
tp5467
(dp5468
g13
(I152
I151
tp5469
sg15
(I548
I553
tp5470
ss(g17
g61
tp5471
(dp5472
g13
(I196
I198
tp5473
sg15
(I601
I591
tp5474
ss(g100
g246
tp5475
(dp5476
g13
(I1
I200
tp5477
sg15
(I998
I3
tp5478
ss(g51
g51
tp5479
(dp5480
g13
(I200
I200
tp5481
sg15
(I600
I600
tp5482
ss(g18
g346
tp5483
(dp5484
g13
(I198
I200
tp5485
sg15
(I604
I594
tp5486
ss(g112
g198
tp5487
(dp5488
g13
(I200
I200
tp5489
sg15
(I600
I600
tp5490
ss(g23
g288
tp5491
(dp5492
g13
(I182
I200
tp5493
sg15
(I636
I546
tp5494
ss(g18
g157
tp5495
(dp5496
g13
(I198
I199
tp5497
sg15
(I600
I595
tp5498
ss(g79
g321
tp5499
(dp5500
g13
(I200
I0
tp5501
sg15
(I0
I1000
tp5502
ss(g18
g73
tp5503
(dp5504
g13
(I5
I195
tp5505
sg15
(I974
I24
tp5506
ss(g208
g260
tp5507
(dp5508
g13
(I20
I151
tp5509
sg15
(I771
I116
tp5510
ss(g298
g241
tp5511
(dp5512
g13
(I200
I200
tp5513
sg15
(I600
I600
tp5514
ss(g157
g171
tp5515
(dp5516
g13
(I12
I105
tp5517
sg15
(I606
I141
tp5518
ss(g28
g346
tp5519
(dp5520
g13
(I200
I200
tp5521
sg15
(I600
I600
tp5522
ss(g132
g429
tp5523
(dp5524
g13
(I6
I197
tp5525
sg15
(I978
I23
tp5526
ss(g137
g73
tp5527
(dp5528
g13
(I100
I146
tp5529
sg15
(I584
I354
tp5530
ss(g35
g303
tp5531
(dp5532
g13
(I199
I0
tp5533
sg15
(I1
I996
tp5534
ss(g79
g308
tp5535
(dp5536
g13
(I200
I200
tp5537
sg15
(I600
I600
tp5538
ss(g227
g56
tp5539
(dp5540
g13
(I200
I0
tp5541
sg15
(I0
I1000
tp5542
ss(g157
g227
tp5543
(dp5544
g13
(I101
I182
tp5545
sg15
(I735
I330
tp5546
ss(g142
g9
tp5547
(dp5548
g13
(I200
I200
tp5549
sg15
(I600
I600
tp5550
ss(g147
g89
tp5551
(dp5552
g13
(I197
I197
tp5553
sg15
(I596
I596
tp5554
ss(g106
g222
tp5555
(dp5556
g13
(I200
I200
tp5557
sg15
(I600
I600
tp5558
ss(g89
g142
tp5559
(dp5560
g13
(I200
I200
tp5561
sg15
(I600
I600
tp5562
ss(g117
g321
tp5563
(dp5564
g13
(I200
I0
tp5565
sg15
(I0
I1000
tp5566
ss(g89
g166
tp5567
(dp5568
g13
(I200
I200
tp5569
sg15
(I600
I600
tp5570
ss(g95
g100
tp5571
(dp5572
g13
(I200
I1
tp5573
sg15
(I3
I998
tp5574
ss(g67
g61
tp5575
(dp5576
g13
(I134
I12
tp5577
sg15
(I106
I716
tp5578
ss(g90
g429
tp5579
(dp5580
g13
(I199
I93
tp5581
sg15
(I280
I810
tp5582
ss(g288
g10
tp5583
(dp5584
g13
(I200
I0
tp5585
sg15
(I0
I1000
tp5586
ss(g34
g123
tp5587
(dp5588
g13
(I167
I41
tp5589
sg15
(I167
I797
tp5590
ss(g18
g217
tp5591
(dp5592
g13
(I16
I150
tp5593
sg15
(I772
I102
tp5594
ss(g346
g260
tp5595
(dp5596
g13
(I44
I126
tp5597
sg15
(I646
I236
tp5598
ss(g429
g459
tp5599
(dp5600
g13
(I1
I199
tp5601
sg15
(I994
I4
tp5602
ss(g371
g152
tp5603
(dp5604
g13
(I200
I200
tp5605
sg15
(I600
I600
tp5606
ss(g95
g241
tp5607
(dp5608
g13
(I200
I200
tp5609
sg15
(I600
I600
tp5610
ss(g28
g255
tp5611
(dp5612
g13
(I1
I2
tp5613
sg15
(I207
I202
tp5614
ss(g18
g192
tp5615
(dp5616
g13
(I6
I2
tp5617
sg15
(I200
I220
tp5618
ss(g241
g227
tp5619
(dp5620
g13
(I4
I198
tp5621
sg15
(I985
I15
tp5622
ss(g293
g152
tp5623
(dp5624
g13
(I1
I1
tp5625
sg15
(I203
I203
tp5626
ss(g810
g74
tp5627
(dp5628
g13
(I189
I189
tp5629
sg15
(I588
I588
tp5630
ss(g434
g208
tp5631
(dp5632
g13
(I200
I200
tp5633
sg15
(I600
I600
tp5634
ss(g217
g171
tp5635
(dp5636
g13
(I150
I150
tp5637
sg15
(I549
I549
tp5638
ss(g166
g90
tp5639
(dp5640
g13
(I9
I192
tp5641
sg15
(I957
I42
tp5642
ss(g227
g40
tp5643
(dp5644
g13
(I200
I200
tp5645
sg15
(I600
I600
tp5646
ss(g67
g89
tp5647
(dp5648
g13
(I134
I200
tp5649
sg15
(I732
I402
tp5650
ss(g23
g23
tp5651
(dp5652
g13
(I182
I182
tp5653
sg15
(I564
I564
tp5654
ss(g157
g303
tp5655
(dp5656
g13
(I200
I0
tp5657
sg15
(I0
I1000
tp5658
ss(g371
g112
tp5659
(dp5660
g13
(I200
I200
tp5661
sg15
(I600
I600
tp5662
ss(g73
g152
tp5663
(dp5664
g13
(I140
I106
tp5665
sg15
(I414
I584
tp5666
ss(g265
g46
tp5667
(dp5668
g13
(I164
I35
tp5669
sg15
(I159
I804
tp5670
ss(g23
g192
tp5671
(dp5672
g13
(I182
I182
tp5673
sg15
(I582
I582
tp5674
ss(g106
g217
tp5675
(dp5676
g13
(I200
I150
tp5677
sg15
(I450
I700
tp5678
ss(g112
g241
tp5679
(dp5680
g13
(I200
I200
tp5681
sg15
(I600
I600
tp5682
ss(g288
g28
tp5683
(dp5684
g13
(I200
I200
tp5685
sg15
(I600
I600
tp5686
ss(g28
g171
tp5687
(dp5688
g13
(I3
I100
tp5689
sg15
(I595
I110
tp5690
ss(g17
g260
tp5691
(dp5692
g13
(I0
I0
tp5693
sg15
(I200
I200
tp5694
ss(g265
g208
tp5695
(dp5696
g13
(I176
I24
tp5697
sg15
(I104
I864
tp5698
ss(g434
g90
tp5699
(dp5700
g13
(I119
I180
tp5701
sg15
(I701
I396
tp5702
ss(g101
g504
tp5703
(dp5704
g13
(I200
I200
tp5705
sg15
(I600
I600
tp5706
ss(g434
g112
tp5707
(dp5708
g13
(I200
I200
tp5709
sg15
(I600
I600
tp5710
ss(g79
g198
tp5711
(dp5712
g13
(I200
I200
tp5713
sg15
(I600
I600
tp5714
ss(g283
g46
tp5715
(dp5716
g13
(I200
I200
tp5717
sg15
(I600
I600
tp5718
ss(g171
g152
tp5719
(dp5720
g13
(I133
I68
tp5721
sg15
(I337
I662
tp5722
ss(g67
g152
tp5723
(dp5724
g13
(I134
I68
tp5725
sg15
(I336
I666
tp5726
ss(g106
g147
tp5727
(dp5728
g13
(I200
I4
tp5729
sg15
(I12
I992
tp5730
ss(g265
g434
tp5731
(dp5732
g13
(I180
I19
tp5733
sg15
(I87
I892
tp5734
ss(g293
g10
tp5735
(dp5736
g13
(I200
I0
tp5737
sg15
(I0
I1000
tp5738
ss(g157
g56
tp5739
(dp5740
g13
(I200
I0
tp5741
sg15
(I0
I1000
tp5742
ss(g171
g293
tp5743
(dp5744
g13
(I200
I199
tp5745
sg15
(I597
I602
tp5746
ss(g371
g298
tp5747
(dp5748
g13
(I200
I200
tp5749
sg15
(I600
I600
tp5750
ss(g95
g193
tp5751
(dp5752
g13
(I200
I0
tp5753
sg15
(I0
I1000
tp5754
ss(g298
g74
tp5755
(dp5756
g13
(I179
I179
tp5757
sg15
(I578
I578
tp5758
ss(g265
g90
tp5759
(dp5760
g13
(I0
I200
tp5761
sg15
(I1000
I0
tp5762
ss(g51
g270
tp5763
(dp5764
g13
(I200
I200
tp5765
sg15
(I600
I600
tp5766
ss(g101
g260
tp5767
(dp5768
g13
(I29
I140
tp5769
sg15
(I717
I162
tp5770
ss(g73
g227
tp5771
(dp5772
g13
(I1
I200
tp5773
sg15
(I998
I3
tp5774
ss(g18
g35
tp5775
(dp5776
g13
(I198
I198
tp5777
sg15
(I596
I596
tp5778
ss(g265
g118
tp5779
(dp5780
g13
(I197
I2
tp5781
sg15
(I11
I986
tp5782
ss(g227
g198
tp5783
(dp5784
g13
(I186
I17
tp5785
sg15
(I78
I923
tp5786
ss(g147
g62
tp5787
(dp5788
g13
(I198
I199
tp5789
sg15
(I600
I595
tp5790
ss(g123
g459
tp5791
(dp5792
g13
(I200
I199
tp5793
sg15
(I597
I602
tp5794
ss(g283
g222
tp5795
(dp5796
g13
(I200
I200
tp5797
sg15
(I600
I600
tp5798
ss(g90
g10
tp5799
(dp5800
g13
(I200
I0
tp5801
sg15
(I0
I1000
tp5802
ss(g95
g217
tp5803
(dp5804
g13
(I200
I150
tp5805
sg15
(I450
I700
tp5806
ss(g557
g557
tp5807
(dp5808
g13
(I200
I200
tp5809
sg15
(I600
I600
tp5810
ss(g298
g68
tp5811
(dp5812
g13
(I199
I199
tp5813
sg15
(I599
I599
tp5814
ss(g118
g429
tp5815
(dp5816
g13
(I3
I197
tp5817
sg15
(I984
I14
tp5818
ss(g241
g123
tp5819
(dp5820
g13
(I200
I200
tp5821
sg15
(I600
I600
tp5822
ss(g288
g260
tp5823
(dp5824
g13
(I60
I100
tp5825
sg15
(I520
I320
tp5826
ss(g255
g10
tp5827
(dp5828
g13
(I200
I0
tp5829
sg15
(I0
I1000
tp5830
ss(g232
g68
tp5831
(dp5832
g13
(I0
I2
tp5833
sg15
(I208
I198
tp5834
ss(g171
g260
tp5835
(dp5836
g13
(I100
I0
tp5837
sg15
(I100
I600
tp5838
ss(g142
g171
tp5839
(dp5840
g13
(I13
I106
tp5841
sg15
(I609
I144
tp5842
ss(g371
g283
tp5843
(dp5844
g13
(I200
I200
tp5845
sg15
(I600
I600
tp5846
ss(g23
g246
tp5847
(dp5848
g13
(I182
I199
tp5849
sg15
(I632
I547
tp5850
ss(g303
g193
tp5851
(dp5852
g13
(I0
I200
tp5853
sg15
(I1000
I0
tp5854
ss(g298
g35
tp5855
(dp5856
g13
(I200
I200
tp5857
sg15
(I600
I600
tp5858
ss(g89
g400
tp5859
(dp5860
g13
(I200
I200
tp5861
sg15
(I600
I600
tp5862
ss(g217
g61
tp5863
(dp5864
g13
(I150
I16
tp5865
sg15
(I102
I772
tp5866
ss(g28
g504
tp5867
(dp5868
g13
(I200
I200
tp5869
sg15
(I600
I600
tp5870
ss(g100
g18
tp5871
(dp5872
g13
(I195
I5
tp5873
sg15
(I24
I974
tp5874
ss(g132
g246
tp5875
(dp5876
g13
(I200
I200
tp5877
sg15
(I600
I600
tp5878
ss(g17
g166
tp5879
(dp5880
g13
(I14
I137
tp5881
sg15
(I721
I106
tp5882
ss(g217
g193
tp5883
(dp5884
g13
(I200
I0
tp5885
sg15
(I0
I1000
tp5886
ss(g28
g308
tp5887
(dp5888
g13
(I200
I200
tp5889
sg15
(I600
I600
tp5890
ss(g293
g40
tp5891
(dp5892
g13
(I200
I200
tp5893
sg15
(I600
I600
tp5894
ss(g106
g29
tp5895
(dp5896
g13
(I200
I199
tp5897
sg15
(I597
I602
tp5898
ss(g147
g260
tp5899
(dp5900
g13
(I200
I0
tp5901
sg15
(I0
I1000
tp5902
ss(g28
g192
tp5903
(dp5904
g13
(I1
I2
tp5905
sg15
(I207
I202
tp5906
ss(g371
g288
tp5907
(dp5908
g13
(I200
I200
tp5909
sg15
(I600
I600
tp5910
ss(g152
g40
tp5911
(dp5912
g13
(I200
I200
tp5913
sg15
(I600
I600
tp5914
ss(g100
g171
tp5915
(dp5916
g13
(I100
I100
tp5917
sg15
(I450
I450
tp5918
ss(g217
g9
tp5919
(dp5920
g13
(I150
I18
tp5921
sg15
(I112
I772
tp5922
ss(g23
g132
tp5923
(dp5924
g13
(I182
I101
tp5925
sg15
(I330
I735
tp5926
ss(g101
g255
tp5927
(dp5928
g13
(I2
I3
tp5929
sg15
(I210
I205
tp5930
ss(g34
g298
tp5931
(dp5932
g13
(I167
I200
tp5933
sg15
(I666
I501
tp5934
ss(g112
g101
tp5935
(dp5936
g13
(I200
I200
tp5937
sg15
(I600
I600
tp5938
ss(g89
g171
tp5939
(dp5940
g13
(I197
I196
tp5941
sg15
(I593
I598
tp5942
ss(g132
g147
tp5943
(dp5944
g13
(I199
I198
tp5945
sg15
(I595
I600
tp5946
ss(g84
g192
tp5947
(dp5948
g13
(I18
I2
tp5949
sg15
(I188
I268
tp5950
ss(g61
g35
tp5951
(dp5952
g13
(I198
I198
tp5953
sg15
(I596
I596
tp5954
ss(g111
g46
tp5955
(dp5956
g13
(I200
I200
tp5957
sg15
(I600
I600
tp5958
ss(g100
g112
tp5959
(dp5960
g13
(I92
I108
tp5961
sg15
(I509
I429
tp5962
ss(g321
g40
tp5963
(dp5964
g13
(I200
I200
tp5965
sg15
(I600
I600
tp5966
ss(g157
g28
tp5967
(dp5968
g13
(I200
I200
tp5969
sg15
(I600
I600
tp5970
ss(g557
g255
tp5971
(dp5972
g13
(I193
I188
tp5973
sg15
(I572
I597
tp5974
ss(g283
g227
tp5975
(dp5976
g13
(I101
I182
tp5977
sg15
(I735
I330
tp5978
ss(g62
g321
tp5979
(dp5980
g13
(I200
I0
tp5981
sg15
(I0
I1000
tp5982
ss(g137
g90
tp5983
(dp5984
g13
(I100
I199
tp5985
sg15
(I796
I301
tp5986
ss(g137
g810
tp5987
(dp5988
g13
(I100
I200
tp5989
sg15
(I800
I300
tp5990
ss(g152
g193
tp5991
(dp5992
g13
(I200
I0
tp5993
sg15
(I0
I1000
tp5994
ss(g112
g73
tp5995
(dp5996
g13
(I139
I107
tp5997
sg15
(I430
I590
tp5998
ss(g61
g73
tp5999
(dp6000
g13
(I5
I195
tp6001
sg15
(I974
I24
tp6002
ss(g106
g400
tp6003
(dp6004
g13
(I200
I200
tp6005
sg15
(I600
I600
tp6006
ss(g217
g308
tp6007
(dp6008
g13
(I150
I24
tp6009
sg15
(I133
I763
tp6010
ss(g100
g45
tp6011
(dp6012
g13
(I199
I1
tp6013
sg15
(I4
I994
tp6014
ss(g137
g118
tp6015
(dp6016
g13
(I100
I4
tp6017
sg15
(I114
I594
tp6018
ss(g73
g90
tp6019
(dp6020
g13
(I48
I199
tp6021
sg15
(I900
I145
tp6022
ss(g106
g74
tp6023
(dp6024
g13
(I200
I2
tp6025
sg15
(I6
I996
tp6026
ss(g79
g293
tp6027
(dp6028
g13
(I200
I199
tp6029
sg15
(I597
I602
tp6030
ss(g198
g10
tp6031
(dp6032
g13
(I200
I0
tp6033
sg15
(I0
I1000
tp6034
ss(g255
g303
tp6035
(dp6036
g13
(I199
I0
tp6037
sg15
(I1
I996
tp6038
ss(g298
g303
tp6039
(dp6040
g13
(I200
I0
tp6041
sg15
(I0
I1000
tp6042
ss(g18
g112
tp6043
(dp6044
g13
(I198
I200
tp6045
sg15
(I604
I594
tp6046
ss(g298
g9
tp6047
(dp6048
g13
(I200
I200
tp6049
sg15
(I600
I600
tp6050
ss(g51
g29
tp6051
(dp6052
g13
(I199
I199
tp6053
sg15
(I599
I599
tp6054
ss(g142
g227
tp6055
(dp6056
g13
(I101
I182
tp6057
sg15
(I735
I330
tp6058
ss(g90
g56
tp6059
(dp6060
g13
(I200
I0
tp6061
sg15
(I0
I1000
tp6062
ss(g308
g46
tp6063
(dp6064
g13
(I200
I200
tp6065
sg15
(I600
I600
tp6066
ss(g137
g51
tp6067
(dp6068
g13
(I100
I103
tp6069
sg15
(I509
I494
tp6070
ss(g260
g62
tp6071
(dp6072
g13
(I0
I100
tp6073
sg15
(I600
I100
tp6074
ss(g192
g56
tp6075
(dp6076
g13
(I200
I0
tp6077
sg15
(I0
I1000
tp6078
ss(g95
g207
tp6079
(dp6080
g13
(I200
I200
tp6081
sg15
(I600
I600
tp6082
ss(g222
g40
tp6083
(dp6084
g13
(I200
I200
tp6085
sg15
(I600
I600
tp6086
ss(g265
g198
tp6087
(dp6088
g13
(I193
I6
tp6089
sg15
(I30
I965
tp6090
ss(g73
g270
tp6091
(dp6092
g13
(I123
I123
tp6093
sg15
(I446
I446
tp6094
ss(g246
g142
tp6095
(dp6096
g13
(I200
I200
tp6097
sg15
(I600
I600
tp6098
ss(g34
g171
tp6099
(dp6100
g13
(I167
I164
tp6101
sg15
(I557
I572
tp6102
ss(g95
g227
tp6103
(dp6104
g13
(I200
I3
tp6105
sg15
(I9
I994
tp6106
ss(g192
g255
tp6107
(dp6108
g13
(I2
I3
tp6109
sg15
(I208
I203
tp6110
ss(g265
g34
tp6111
(dp6112
g13
(I33
I167
tp6113
sg15
(I802
I132
tp6114
ss(g89
g293
tp6115
(dp6116
g13
(I200
I199
tp6117
sg15
(I597
I602
tp6118
ss(g34
g288
tp6119
(dp6120
g13
(I167
I200
tp6121
sg15
(I666
I501
tp6122
ss(g101
g303
tp6123
(dp6124
g13
(I200
I0
tp6125
sg15
(I0
I1000
tp6126
ss(g9
g429
tp6127
(dp6128
g13
(I99
I193
tp6129
sg15
(I780
I310
tp6130
ss(g73
g321
tp6131
(dp6132
g13
(I200
I0
tp6133
sg15
(I0
I1000
tp6134
ss(g147
g56
tp6135
(dp6136
g13
(I200
I0
tp6137
sg15
(I0
I1000
tp6138
ss(g23
g34
tp6139
(dp6140
g13
(I182
I167
tp6141
sg15
(I535
I610
tp6142
ss(g227
g429
tp6143
(dp6144
g13
(I200
I1
tp6145
sg15
(I3
I998
tp6146
ss(g265
g117
tp6147
(dp6148
g13
(I1
I199
tp6149
sg15
(I994
I4
tp6150
ss(g222
g222
tp6151
(dp6152
g13
(I200
I200
tp6153
sg15
(I600
I600
tp6154
ss(g217
g101
tp6155
(dp6156
g13
(I150
I4
tp6157
sg15
(I63
I793
tp6158
ss(g400
g40
tp6159
(dp6160
g13
(I200
I200
tp6161
sg15
(I600
I600
tp6162
ss(g112
g810
tp6163
(dp6164
g13
(I200
I200
tp6165
sg15
(I600
I600
tp6166
ss(g45
g227
tp6167
(dp6168
g13
(I1
I200
tp6169
sg15
(I998
I3
tp6170
ss(g429
g40
tp6171
(dp6172
g13
(I200
I200
tp6173
sg15
(I600
I600
tp6174
ss(g118
g10
tp6175
(dp6176
g13
(I200
I0
tp6177
sg15
(I0
I1000
tp6178
ss(g62
g429
tp6179
(dp6180
g13
(I6
I197
tp6181
sg15
(I978
I23
tp6182
ss(g222
g10
tp6183
(dp6184
g13
(I200
I0
tp6185
sg15
(I0
I1000
tp6186
ss(g61
g283
tp6187
(dp6188
g13
(I198
I199
tp6189
sg15
(I600
I595
tp6190
ss(g18
g283
tp6191
(dp6192
g13
(I198
I199
tp6193
sg15
(I600
I595
tp6194
ss(g100
g288
tp6195
(dp6196
g13
(I100
I101
tp6197
sg15
(I470
I465
tp6198
ss(g46
g171
tp6199
(dp6200
g13
(I198
I198
tp6201
sg15
(I597
I597
tp6202
ss(g434
g73
tp6203
(dp6204
g13
(I67
I179
tp6205
sg15
(I793
I233
tp6206
ss(g346
g45
tp6207
(dp6208
g13
(I4
I1
tp6209
sg15
(I199
I214
tp6210
ss(g67
g62
tp6211
(dp6212
g13
(I134
I101
tp6213
sg15
(I402
I567
tp6214
ss(g434
g400
tp6215
(dp6216
g13
(I200
I200
tp6217
sg15
(I600
I600
tp6218
ss(g74
g152
tp6219
(dp6220
g13
(I3
I2
tp6221
sg15
(I205
I210
tp6222
ss(g207
g157
tp6223
(dp6224
g13
(I200
I200
tp6225
sg15
(I600
I600
tp6226
ss(g241
g557
tp6227
(dp6228
g13
(I200
I200
tp6229
sg15
(I600
I600
tp6230
ss(g61
g557
tp6231
(dp6232
g13
(I198
I200
tp6233
sg15
(I604
I594
tp6234
ss(g371
g222
tp6235
(dp6236
g13
(I200
I200
tp6237
sg15
(I600
I600
tp6238
ss(g51
g90
tp6239
(dp6240
g13
(I176
I127
tp6241
sg15
(I428
I673
tp6242
ss(g217
g321
tp6243
(dp6244
g13
(I200
I0
tp6245
sg15
(I0
I1000
tp6246
ss(g118
g400
tp6247
(dp6248
g13
(I200
I200
tp6249
sg15
(I600
I600
tp6250
ss(g147
g46
tp6251
(dp6252
g13
(I198
I198
tp6253
sg15
(I597
I597
tp6254
ss(g283
g429
tp6255
(dp6256
g13
(I104
I187
tp6257
sg15
(I750
I335
tp6258
ss(g265
g246
tp6259
(dp6260
g13
(I0
I200
tp6261
sg15
(I1000
I0
tp6262
ss(g400
g56
tp6263
(dp6264
g13
(I200
I0
tp6265
sg15
(I0
I1000
tp6266
ss(g73
g283
tp6267
(dp6268
g13
(I176
I68
tp6269
sg15
(I240
I780
tp6270
ss(g371
g166
tp6271
(dp6272
g13
(I200
I200
tp6273
sg15
(I600
I600
tp6274
ss(g137
g106
tp6275
(dp6276
g13
(I100
I200
tp6277
sg15
(I800
I300
tp6278
ss(g68
g45
tp6279
(dp6280
g13
(I2
I1
tp6281
sg15
(I201
I206
tp6282
ss(g208
g10
tp6283
(dp6284
g13
(I200
I0
tp6285
sg15
(I0
I1000
tp6286
ss(g100
g10
tp6287
(dp6288
g13
(I200
I0
tp6289
sg15
(I0
I1000
tp6290
ss(g288
g193
tp6291
(dp6292
g13
(I200
I0
tp6293
sg15
(I0
I1000
tp6294
ss(g265
g241
tp6295
(dp6296
g13
(I198
I1
tp6297
sg15
(I6
I991
tp6298
ss(g112
g40
tp6299
(dp6300
g13
(I200
I200
tp6301
sg15
(I600
I600
tp6302
ss(g79
g400
tp6303
(dp6304
g13
(I200
I200
tp6305
sg15
(I600
I600
tp6306
ss(g51
g68
tp6307
(dp6308
g13
(I199
I199
tp6309
sg15
(I599
I599
tp6310
ss(g101
g68
tp6311
(dp6312
g13
(I2
I3
tp6313
sg15
(I210
I205
tp6314
ss(g90
g260
tp6315
(dp6316
g13
(I200
I0
tp6317
sg15
(I0
I1000
tp6318
ss(g217
g270
tp6319
(dp6320
g13
(I150
I150
tp6321
sg15
(I500
I500
tp6322
ss(g34
g61
tp6323
(dp6324
g13
(I167
I24
tp6325
sg15
(I109
I824
tp6326
ss(g17
g45
tp6327
(dp6328
g13
(I0
I1
tp6329
sg15
(I204
I199
tp6330
ss(g207
g192
tp6331
(dp6332
g13
(I10
I2
tp6333
sg15
(I196
I236
tp6334
ss(g298
g79
tp6335
(dp6336
g13
(I200
I200
tp6337
sg15
(I600
I600
tp6338
ss(g265
g222
tp6339
(dp6340
g13
(I150
I49
tp6341
sg15
(I222
I727
tp6342
ss(g232
g123
tp6343
(dp6344
g13
(I0
I13
tp6345
sg15
(I252
I187
tp6346
ss(g137
g270
tp6347
(dp6348
g13
(I100
I100
tp6349
sg15
(I400
I400
tp6350
ss(g79
g208
tp6351
(dp6352
g13
(I200
I200
tp6353
sg15
(I600
I600
tp6354
ss(g46
g227
tp6355
(dp6356
g13
(I125
I176
tp6357
sg15
(I666
I411
tp6358
ss(g17
g29
tp6359
(dp6360
g13
(I0
I0
tp6361
sg15
(I200
I200
tp6362
ss(g255
g260
tp6363
(dp6364
g13
(I67
I66
tp6365
sg15
(I364
I369
tp6366
ss(g137
g198
tp6367
(dp6368
g13
(I100
I6
tp6369
sg15
(I121
I591
tp6370
ss(g232
g79
tp6371
(dp6372
g13
(I0
I11
tp6373
sg15
(I244
I189
tp6374
ss(g100
g400
tp6375
(dp6376
g13
(I80
I120
tp6377
sg15
(I560
I360
tp6378
ss(g61
g400
tp6379
(dp6380
g13
(I198
I200
tp6381
sg15
(I604
I594
tp6382
ss(g371
g459
tp6383
(dp6384
g13
(I200
I199
tp6385
sg15
(I597
I602
tp6386
ss(g166
g40
tp6387
(dp6388
g13
(I200
I200
tp6389
sg15
(I600
I600
tp6390
ss(g118
g557
tp6391
(dp6392
g13
(I200
I200
tp6393
sg15
(I600
I600
tp6394
ss(g137
g67
tp6395
(dp6396
g13
(I100
I134
tp6397
sg15
(I569
I399
tp6398
ss(g34
g504
tp6399
(dp6400
g13
(I167
I167
tp6401
sg15
(I567
I567
tp6402
ss(g89
g227
tp6403
(dp6404
g13
(I161
I159
tp6405
sg15
(I542
I552
tp6406
ss(g434
g152
tp6407
(dp6408
g13
(I200
I200
tp6409
sg15
(I600
I600
tp6410
ss(g260
g260
tp6411
(dp6412
g13
(I0
I0
tp6413
sg15
(I200
I200
tp6414
ss(g17
g192
tp6415
(dp6416
g13
(I0
I2
tp6417
sg15
(I208
I198
tp6418
ss(g147
g429
tp6419
(dp6420
g13
(I200
I1
tp6421
sg15
(I3
I998
tp6422
ss(g23
g255
tp6423
(dp6424
g13
(I182
I182
tp6425
sg15
(I582
I582
tp6426
ss(g117
g62
tp6427
(dp6428
g13
(I198
I199
tp6429
sg15
(I600
I595
tp6430
ss(g45
g40
tp6431
(dp6432
g13
(I200
I200
tp6433
sg15
(I600
I600
tp6434
ss(g62
g62
tp6435
(dp6436
g13
(I200
I200
tp6437
sg15
(I600
I600
tp6438
ss(g123
g62
tp6439
(dp6440
g13
(I200
I200
tp6441
sg15
(I600
I600
tp6442
ss(g51
g171
tp6443
(dp6444
g13
(I194
I194
tp6445
sg15
(I591
I591
tp6446
ss(g73
g62
tp6447
(dp6448
g13
(I197
I4
tp6449
sg15
(I17
I982
tp6450
ss(g288
g810
tp6451
(dp6452
g13
(I200
I200
tp6453
sg15
(I600
I600
tp6454
ss(g227
g459
tp6455
(dp6456
g13
(I3
I199
tp6457
sg15
(I990
I10
tp6458
ss(g84
g73
tp6459
(dp6460
g13
(I173
I73
tp6461
sg15
(I266
I766
tp6462
ss(g288
g9
tp6463
(dp6464
g13
(I200
I200
tp6465
sg15
(I600
I600
tp6466
ss(g62
g56
tp6467
(dp6468
g13
(I200
I0
tp6469
sg15
(I0
I1000
tp6470
ss(g106
g371
tp6471
(dp6472
g13
(I200
I200
tp6473
sg15
(I600
I600
tp6474
ss(g112
g90
tp6475
(dp6476
g13
(I197
I106
tp6477
sg15
(I323
I778
tp6478
ss(g232
g232
tp6479
(dp6480
g13
(I0
I0
tp6481
sg15
(I200
I200
tp6482
ss(g61
g90
tp6483
(dp6484
g13
(I5
I195
tp6485
sg15
(I974
I24
tp6486
ss(g100
g9
tp6487
(dp6488
g13
(I182
I18
tp6489
sg15
(I81
I901
tp6490
ss(g100
g68
tp6491
(dp6492
g13
(I100
I100
tp6493
sg15
(I450
I450
tp6494
ss(g40
g40
tp6495
(dp6496
g13
(I200
I200
tp6497
sg15
(I600
I600
tp6498
ss(g117
g79
tp6499
(dp6500
g13
(I188
I176
tp6501
sg15
(I551
I611
tp6502
ss(g132
g46
tp6503
(dp6504
g13
(I200
I200
tp6505
sg15
(I600
I600
tp6506
ss(g101
g90
tp6507
(dp6508
g13
(I108
I193
tp6509
sg15
(I762
I337
tp6510
ss(g34
g74
tp6511
(dp6512
g13
(I167
I2
tp6513
sg15
(I39
I864
tp6514
ss(g346
g10
tp6515
(dp6516
g13
(I200
I0
tp6517
sg15
(I0
I1000
tp6518
ss(g17
g118
tp6519
(dp6520
g13
(I0
I2
tp6521
sg15
(I208
I198
tp6522
ss(g112
g400
tp6523
(dp6524
g13
(I200
I200
tp6525
sg15
(I600
I600
tp6526
ss(g84
g810
tp6527
(dp6528
g13
(I200
I200
tp6529
sg15
(I600
I600
tp6530
ss(g434
g89
tp6531
(dp6532
g13
(I200
I200
tp6533
sg15
(I600
I600
tp6534
ss(g241
g46
tp6535
(dp6536
g13
(I200
I200
tp6537
sg15
(I600
I600
tp6538
ss(g23
g157
tp6539
(dp6540
g13
(I182
I57
tp6541
sg15
(I202
I827
tp6542
ss(g137
g241
tp6543
(dp6544
g13
(I100
I2
tp6545
sg15
(I107
I597
tp6546
ss(g73
g101
tp6547
(dp6548
g13
(I187
I59
tp6549
sg15
(I198
I838
tp6550
ss(g61
g29
tp6551
(dp6552
g13
(I198
I199
tp6553
sg15
(I601
I596
tp6554
ss(g132
g270
tp6555
(dp6556
g13
(I200
I200
tp6557
sg15
(I600
I600
tp6558
ss(g84
g79
tp6559
(dp6560
g13
(I200
I200
tp6561
sg15
(I600
I600
tp6562
ss(g111
g303
tp6563
(dp6564
g13
(I200
I0
tp6565
sg15
(I0
I1000
tp6566
ss(g100
g56
tp6567
(dp6568
g13
(I200
I0
tp6569
sg15
(I0
I1000
tp6570
ss(g106
g61
tp6571
(dp6572
g13
(I200
I198
tp6573
sg15
(I594
I604
tp6574
ss(g246
g89
tp6575
(dp6576
g13
(I200
I200
tp6577
sg15
(I600
I600
tp6578
ss(g207
g10
tp6579
(dp6580
g13
(I200
I0
tp6581
sg15
(I0
I1000
tp6582
ss(g232
g171
tp6583
(dp6584
g13
(I0
I100
tp6585
sg15
(I600
I100
tp6586
ss(g123
g10
tp6587
(dp6588
g13
(I200
I0
tp6589
sg15
(I0
I1000
tp6590
ss(g137
g260
tp6591
(dp6592
g13
(I100
I0
tp6593
sg15
(I100
I600
tp6594
ss(g100
g166
tp6595
(dp6596
g13
(I191
I9
tp6597
sg15
(I43
I953
tp6598
ss(g192
g308
tp6599
(dp6600
g13
(I2
I1
tp6601
sg15
(I202
I207
tp6602
ss(g51
g346
tp6603
(dp6604
g13
(I200
I200
tp6605
sg15
(I600
I600
tp6606
ss(g434
g557
tp6607
(dp6608
g13
(I200
I200
tp6609
sg15
(I600
I600
tp6610
ss(g117
g9
tp6611
(dp6612
g13
(I198
I179
tp6613
sg15
(I540
I635
tp6614
ss(g232
g112
tp6615
(dp6616
g13
(I0
I1
tp6617
sg15
(I204
I199
tp6618
ss(g147
g321
tp6619
(dp6620
g13
(I200
I0
tp6621
sg15
(I0
I1000
tp6622
ss(g117
g810
tp6623
(dp6624
g13
(I198
I197
tp6625
sg15
(I594
I599
tp6626
ss(g217
g198
tp6627
(dp6628
g13
(I150
I8
tp6629
sg15
(I76
I786
tp6630
ss(g90
g90
tp6631
(dp6632
g13
(I151
I151
tp6633
sg15
(I502
I502
tp6634
ss(g246
g9
tp6635
(dp6636
g13
(I200
I200
tp6637
sg15
(I600
I600
tp6638
ss(g434
g270
tp6639
(dp6640
g13
(I200
I200
tp6641
sg15
(I600
I600
tp6642
ss(g35
g193
tp6643
(dp6644
g13
(I200
I0
tp6645
sg15
(I0
I1000
tp6646
ss(g171
g459
tp6647
(dp6648
g13
(I2
I199
tp6649
sg15
(I992
I7
tp6650
ss(g51
g283
tp6651
(dp6652
g13
(I200
I200
tp6653
sg15
(I600
I600
tp6654
ss(g90
g293
tp6655
(dp6656
g13
(I152
I151
tp6657
sg15
(I549
I554
tp6658
ss(g118
g35
tp6659
(dp6660
g13
(I200
I200
tp6661
sg15
(I600
I600
tp6662
ss(g255
g40
tp6663
(dp6664
g13
(I200
I200
tp6665
sg15
(I600
I600
tp6666
ss(g166
g192
tp6667
(dp6668
g13
(I67
I2
tp6669
sg15
(I139
I464
tp6670
ss(g208
g429
tp6671
(dp6672
g13
(I99
I193
tp6673
sg15
(I780
I310
tp6674
ss(g192
g142
tp6675
(dp6676
g13
(I2
I1
tp6677
sg15
(I202
I207
tp6678
ss(g265
g29
tp6679
(dp6680
g13
(I2
I198
tp6681
sg15
(I989
I9
tp6682
ss(g157
g241
tp6683
(dp6684
g13
(I200
I200
tp6685
sg15
(I600
I600
tp6686
ss(g61
g123
tp6687
(dp6688
g13
(I198
I199
tp6689
sg15
(I600
I595
tp6690
ss(g67
g298
tp6691
(dp6692
g13
(I134
I200
tp6693
sg15
(I732
I402
tp6694
ss(g147
g118
tp6695
(dp6696
g13
(I197
I6
tp6697
sg15
(I23
I978
tp6698
ss(g51
g557
tp6699
(dp6700
g13
(I200
I200
tp6701
sg15
(I600
I600
tp6702
ss(g265
g321
tp6703
(dp6704
g13
(I200
I0
tp6705
sg15
(I0
I1000
tp6706
ss(g371
g74
tp6707
(dp6708
g13
(I200
I2
tp6709
sg15
(I6
I996
tp6710
ss(g810
g298
tp6711
(dp6712
g13
(I200
I200
tp6713
sg15
(I600
I600
tp6714
ss(g111
g400
tp6715
(dp6716
g13
(I200
I200
tp6717
sg15
(I600
I600
tp6718
ss(g18
g434
tp6719
(dp6720
g13
(I198
I200
tp6721
sg15
(I604
I594
tp6722
ss(g111
g171
tp6723
(dp6724
g13
(I198
I198
tp6725
sg15
(I597
I597
tp6726
ss(g283
g29
tp6727
(dp6728
g13
(I190
I199
tp6729
sg15
(I617
I572
tp6730
ss(g123
g270
tp6731
(dp6732
g13
(I200
I200
tp6733
sg15
(I600
I600
tp6734
ss(g137
g321
tp6735
(dp6736
g13
(I200
I0
tp6737
sg15
(I0
I1000
tp6738
ss(g217
g28
tp6739
(dp6740
g13
(I150
I53
tp6741
sg15
(I259
I744
tp6742
ss(g222
g193
tp6743
(dp6744
g13
(I200
I0
tp6745
sg15
(I0
I1000
tp6746
ss(g23
g222
tp6747
(dp6748
g13
(I182
I132
tp6749
sg15
(I429
I679
tp6750
ss(g95
g142
tp6751
(dp6752
g13
(I200
I200
tp6753
sg15
(I600
I600
tp6754
ss(g112
g346
tp6755
(dp6756
g13
(I200
I200
tp6757
sg15
(I600
I600
tp6758
ss(g117
g504
tp6759
(dp6760
g13
(I198
I198
tp6761
sg15
(I597
I597
tp6762
ss(g207
g111
tp6763
(dp6764
g13
(I200
I200
tp6765
sg15
(I600
I600
tp6766
ss(g232
g557
tp6767
(dp6768
g13
(I0
I200
tp6769
sg15
(I1000
I0
tp6770
ss(g459
g35
tp6771
(dp6772
g13
(I199
I200
tp6773
sg15
(I602
I597
tp6774
ss(g346
g56
tp6775
(dp6776
g13
(I200
I0
tp6777
sg15
(I0
I1000
tp6778
ss(g34
g270
tp6779
(dp6780
g13
(I167
I167
tp6781
sg15
(I534
I534
tp6782
ss(g303
g40
tp6783
(dp6784
g13
(I0
I200
tp6785
sg15
(I1000
I0
tp6786
ss(g74
g28
tp6787
(dp6788
g13
(I2
I1
tp6789
sg15
(I202
I207
tp6790
ss(g222
g62
tp6791
(dp6792
g13
(I200
I200
tp6793
sg15
(I600
I600
tp6794
ss(g95
g111
tp6795
(dp6796
g13
(I200
I200
tp6797
sg15
(I600
I600
tp6798
ss(g371
g68
tp6799
(dp6800
g13
(I200
I199
tp6801
sg15
(I597
I602
tp6802
ss(g265
g123
tp6803
(dp6804
g13
(I174
I25
tp6805
sg15
(I114
I859
tp6806
ss(g288
g198
tp6807
(dp6808
g13
(I200
I200
tp6809
sg15
(I600
I600
tp6810
ss(g28
g28
tp6811
(dp6812
g13
(I200
I200
tp6813
sg15
(I600
I600
tp6814
ss(g45
g303
tp6815
(dp6816
g13
(I199
I0
tp6817
sg15
(I1
I996
tp6818
ss(g23
g10
tp6819
(dp6820
g13
(I200
I0
tp6821
sg15
(I0
I1000
tp6822
ss(g246
g429
tp6823
(dp6824
g13
(I200
I1
tp6825
sg15
(I3
I998
tp6826
ss(g112
g142
tp6827
(dp6828
g13
(I200
I200
tp6829
sg15
(I600
I600
tp6830
ss(g308
g400
tp6831
(dp6832
g13
(I200
I200
tp6833
sg15
(I600
I600
tp6834
ss(g265
g260
tp6835
(dp6836
g13
(I199
I0
tp6837
sg15
(I1
I996
tp6838
ss(g293
g193
tp6839
(dp6840
g13
(I200
I0
tp6841
sg15
(I0
I1000
tp6842
ss(g17
g34
tp6843
(dp6844
g13
(I3
I167
tp6845
sg15
(I863
I43
tp6846
ss(g23
g100
tp6847
(dp6848
g13
(I182
I19
tp6849
sg15
(I75
I890
tp6850
ss(g288
g429
tp6851
(dp6852
g13
(I192
I100
tp6853
sg15
(I315
I775
tp6854
ss(g28
g45
tp6855
(dp6856
g13
(I1
I1
tp6857
sg15
(I203
I203
tp6858
ss(g265
g73
tp6859
(dp6860
g13
(I0
I200
tp6861
sg15
(I1000
I0
tp6862
ss(g17
g117
tp6863
(dp6864
g13
(I0
I199
tp6865
sg15
(I996
I1
tp6866
ss(g810
g227
tp6867
(dp6868
g13
(I133
I123
tp6869
sg15
(I496
I546
tp6870
ss(g112
g255
tp6871
(dp6872
g13
(I199
I199
tp6873
sg15
(I599
I599
tp6874
ss(g207
g303
tp6875
(dp6876
g13
(I200
I0
tp6877
sg15
(I0
I1000
tp6878
ss(g61
g255
tp6879
(dp6880
g13
(I8
I6
tp6881
sg15
(I212
I222
tp6882
ss(g232
g288
tp6883
(dp6884
g13
(I0
I1
tp6885
sg15
(I204
I199
tp6886
ss(g232
g400
tp6887
(dp6888
g13
(I0
I2
tp6889
sg15
(I208
I198
tp6890
ss(g84
g198
tp6891
(dp6892
g13
(I200
I200
tp6893
sg15
(I600
I600
tp6894
ss(g434
g260
tp6895
(dp6896
g13
(I9
I180
tp6897
sg15
(I907
I52
tp6898
ss(g265
g270
tp6899
(dp6900
g13
(I100
I100
tp6901
sg15
(I400
I400
tp6902
ss(g434
g46
tp6903
(dp6904
g13
(I200
I200
tp6905
sg15
(I600
I600
tp6906
ss(g34
g152
tp6907
(dp6908
g13
(I167
I134
tp6909
sg15
(I468
I633
tp6910
ss(g17
g171
tp6911
(dp6912
g13
(I0
I100
tp6913
sg15
(I600
I100
tp6914
ss(g28
g198
tp6915
(dp6916
g13
(I200
I200
tp6917
sg15
(I600
I600
tp6918
ss(g68
g198
tp6919
(dp6920
g13
(I56
I56
tp6921
sg15
(I319
I319
tp6922
ss(g232
g192
tp6923
(dp6924
g13
(I0
I2
tp6925
sg15
(I208
I198
tp6926
ss(g217
g142
tp6927
(dp6928
g13
(I150
I40
tp6929
sg15
(I183
I733
tp6930
ss(g137
g18
tp6931
(dp6932
g13
(I100
I8
tp6933
sg15
(I128
I588
tp6934
ss(g17
g152
tp6935
(dp6936
g13
(I0
I1
tp6937
sg15
(I204
I199
tp6938
ss(g217
g810
tp6939
(dp6940
g13
(I150
I200
tp6941
sg15
(I700
I450
tp6942
ss(g112
g152
tp6943
(dp6944
g13
(I200
I200
tp6945
sg15
(I600
I600
tp6946
ss(g265
g255
tp6947
(dp6948
g13
(I99
I100
tp6949
sg15
(I451
I446
tp6950
ss(g34
g62
tp6951
(dp6952
g13
(I167
I102
tp6953
sg15
(I356
I681
tp6954
ss(g23
g112
tp6955
(dp6956
g13
(I182
I200
tp6957
sg15
(I636
I546
tp6958
ss(g217
g40
tp6959
(dp6960
g13
(I200
I200
tp6961
sg15
(I600
I600
tp6962
ss(g95
g270
tp6963
(dp6964
g13
(I200
I200
tp6965
sg15
(I600
I600
tp6966
ss(g74
g62
tp6967
(dp6968
g13
(I198
I199
tp6969
sg15
(I600
I595
tp6970
ss(g29
g429
tp6971
(dp6972
g13
(I199
I93
tp6973
sg15
(I281
I811
tp6974
ss(g100
g193
tp6975
(dp6976
g13
(I200
I0
tp6977
sg15
(I0
I1000
tp6978
ss(g89
g45
tp6979
(dp6980
g13
(I4
I1
tp6981
sg15
(I199
I214
tp6982
ss(g111
g51
tp6983
(dp6984
g13
(I200
I200
tp6985
sg15
(I600
I600
tp6986
ss(g111
g29
tp6987
(dp6988
g13
(I199
I199
tp6989
sg15
(I599
I599
tp6990
ss(g28
g283
tp6991
(dp6992
g13
(I200
I200
tp6993
sg15
(I600
I600
tp6994
ss(g34
g51
tp6995
(dp6996
g13
(I167
I200
tp6997
sg15
(I666
I501
tp6998
ss(g17
g89
tp6999
(dp7000
g13
(I0
I2
tp7001
sg15
(I208
I198
tp7002
ss(g142
g260
tp7003
(dp7004
g13
(I27
I144
tp7005
sg15
(I736
I151
tp7006
ss(g95
g371
tp7007
(dp7008
g13
(I200
I200
tp7009
sg15
(I600
I600
tp7010
ss(g157
g288
tp7011
(dp7012
g13
(I200
I200
tp7013
sg15
(I600
I600
tp7014
ss(g222
g293
tp7015
(dp7016
g13
(I1
I1
tp7017
sg15
(I203
I203
tp7018
ss(g132
g29
tp7019
(dp7020
g13
(I1
I199
tp7021
sg15
(I995
I5
tp7022
ss(g61
g112
tp7023
(dp7024
g13
(I198
I200
tp7025
sg15
(I604
I594
tp7026
ss(g171
g504
tp7027
(dp7028
g13
(I198
I198
tp7029
sg15
(I597
I597
tp7030
ss(g100
g29
tp7031
(dp7032
g13
(I2
I199
tp7033
sg15
(I993
I8
tp7034
ss(g51
g166
tp7035
(dp7036
g13
(I200
I200
tp7037
sg15
(I600
I600
tp7038
ss(g28
g557
tp7039
(dp7040
g13
(I200
I200
tp7041
sg15
(I600
I600
tp7042
ss(g106
g28
tp7043
(dp7044
g13
(I200
I200
tp7045
sg15
(I600
I600
tp7046
ss(g100
g217
tp7047
(dp7048
g13
(I50
I150
tp7049
sg15
(I700
I200
tp7050
ss(g17
g227
tp7051
(dp7052
g13
(I11
I198
tp7053
sg15
(I971
I36
tp7054
ss(g111
g192
tp7055
(dp7056
g13
(I199
I199
tp7057
sg15
(I599
I599
tp7058
ss(g810
g255
tp7059
(dp7060
g13
(I199
I199
tp7061
sg15
(I599
I599
tp7062
ss(g18
g74
tp7063
(dp7064
g13
(I6
I2
tp7065
sg15
(I200
I220
tp7066
ss(g84
g46
tp7067
(dp7068
g13
(I200
I200
tp7069
sg15
(I600
I600
tp7070
ss(g132
g101
tp7071
(dp7072
g13
(I200
I200
tp7073
sg15
(I600
I600
tp7074
ss(g61
g46
tp7075
(dp7076
g13
(I198
I199
tp7077
sg15
(I600
I595
tp7078
ss(g288
g142
tp7079
(dp7080
g13
(I200
I200
tp7081
sg15
(I600
I600
tp7082
ss(g123
g35
tp7083
(dp7084
g13
(I200
I200
tp7085
sg15
(I600
I600
tp7086
ss(g137
g95
tp7087
(dp7088
g13
(I100
I6
tp7089
sg15
(I121
I591
tp7090
ss(g46
g270
tp7091
(dp7092
g13
(I200
I200
tp7093
sg15
(I600
I600
tp7094
ss(g68
g429
tp7095
(dp7096
g13
(I146
I146
tp7097
sg15
(I539
I539
tp7098
ss(g346
g293
tp7099
(dp7100
g13
(I200
I199
tp7101
sg15
(I597
I602
tp7102
ss(g207
g308
tp7103
(dp7104
g13
(I200
I200
tp7105
sg15
(I600
I600
tp7106
ss(g89
g321
tp7107
(dp7108
g13
(I200
I0
tp7109
sg15
(I0
I1000
tp7110
ss(g217
g79
tp7111
(dp7112
g13
(I150
I200
tp7113
sg15
(I700
I450
tp7114
ss(g400
g400
tp7115
(dp7116
g13
(I200
I200
tp7117
sg15
(I600
I600
tp7118
ss(g308
g308
tp7119
(dp7120
g13
(I200
I200
tp7121
sg15
(I600
I600
tp7122
ss(g67
g67
tp7123
(dp7124
g13
(I134
I134
tp7125
sg15
(I468
I468
tp7126
ss(g346
g227
tp7127
(dp7128
g13
(I101
I173
tp7129
sg15
(I708
I348
tp7130
ss(g95
g429
tp7131
(dp7132
g13
(I200
I1
tp7133
sg15
(I3
I998
tp7134
ss(g117
g459
tp7135
(dp7136
g13
(I0
I199
tp7137
sg15
(I996
I1
tp7138
ss(g166
g270
tp7139
(dp7140
g13
(I200
I200
tp7141
sg15
(I600
I600
tp7142
ss(g207
g171
tp7143
(dp7144
g13
(I10
I97
tp7145
sg15
(I576
I141
tp7146
ss(g132
g40
tp7147
(dp7148
g13
(I200
I200
tp7149
sg15
(I600
I600
tp7150
ss(g192
g227
tp7151
(dp7152
g13
(I2
I200
tp7153
sg15
(I996
I6
tp7154
ss(g95
g106
tp7155
(dp7156
g13
(I200
I200
tp7157
sg15
(I600
I600
tp7158
ss(g17
g9
tp7159
(dp7160
g13
(I0
I1
tp7161
sg15
(I204
I199
tp7162
ss(g810
g346
tp7163
(dp7164
g13
(I200
I200
tp7165
sg15
(I600
I600
tp7166
ss(g79
g152
tp7167
(dp7168
g13
(I200
I200
tp7169
sg15
(I600
I600
tp7170
ss(g207
g166
tp7171
(dp7172
g13
(I200
I200
tp7173
sg15
(I600
I600
tp7174
ss(g34
g28
tp7175
(dp7176
g13
(I167
I102
tp7177
sg15
(I372
I697
tp7178
ss(g74
g270
tp7179
(dp7180
g13
(I198
I198
tp7181
sg15
(I596
I596
tp7182
ss(g23
g68
tp7183
(dp7184
g13
(I182
I199
tp7185
sg15
(I633
I548
tp7186
ss(g246
g192
tp7187
(dp7188
g13
(I200
I2
tp7189
sg15
(I6
I996
tp7190
ss(g255
g400
tp7191
(dp7192
g13
(I100
I200
tp7193
sg15
(I800
I300
tp7194
ss(g265
g557
tp7195
(dp7196
g13
(I0
I200
tp7197
sg15
(I1000
I0
tp7198
ss(g459
g10
tp7199
(dp7200
g13
(I200
I0
tp7201
sg15
(I0
I1000
tp7202
ss(g810
g73
tp7203
(dp7204
g13
(I144
I102
tp7205
sg15
(I405
I615
tp7206
ss(g137
g89
tp7207
(dp7208
g13
(I100
I200
tp7209
sg15
(I800
I300
tp7210
ss(g23
g459
tp7211
(dp7212
g13
(I182
I199
tp7213
sg15
(I633
I548
tp7214
ss(g217
g117
tp7215
(dp7216
g13
(I150
I196
tp7217
sg15
(I687
I457
tp7218
ss(g208
g40
tp7219
(dp7220
g13
(I200
I200
tp7221
sg15
(I600
I600
tp7222
ss(g95
g321
tp7223
(dp7224
g13
(I200
I0
tp7225
sg15
(I0
I1000
tp7226
ss(g400
g429
tp7227
(dp7228
g13
(I184
I108
tp7229
sg15
(I355
I735
tp7230
ss(g123
g208
tp7231
(dp7232
g13
(I200
I200
tp7233
sg15
(I600
I600
tp7234
ss(g106
g46
tp7235
(dp7236
g13
(I200
I200
tp7237
sg15
(I600
I600
tp7238
ss(g308
g40
tp7239
(dp7240
g13
(I200
I200
tp7241
sg15
(I600
I600
tp7242
ss(g23
g35
tp7243
(dp7244
g13
(I187
I187
tp7245
sg15
(I587
I587
tp7246
ss(g23
g73
tp7247
(dp7248
g13
(I182
I65
tp7249
sg15
(I219
I804
tp7250
ss(g246
g29
tp7251
(dp7252
g13
(I200
I199
tp7253
sg15
(I597
I602
tp7254
ss(g193
g321
tp7255
(dp7256
g13
(I200
I200
tp7257
sg15
(I600
I600
tp7258
ss(g74
g459
tp7259
(dp7260
g13
(I2
I199
tp7261
sg15
(I992
I7
tp7262
ss(g246
g45
tp7263
(dp7264
g13
(I200
I1
tp7265
sg15
(I3
I998
tp7266
ss(g95
g45
tp7267
(dp7268
g13
(I200
I1
tp7269
sg15
(I3
I998
tp7270
ss(g207
g84
tp7271
(dp7272
g13
(I200
I200
tp7273
sg15
(I600
I600
tp7274
ss(g222
g152
tp7275
(dp7276
g13
(I200
I200
tp7277
sg15
(I600
I600
tp7278
ss(g18
g207
tp7279
(dp7280
g13
(I198
I199
tp7281
sg15
(I600
I595
tp7282
ss(g288
g56
tp7283
(dp7284
g13
(I200
I0
tp7285
sg15
(I0
I1000
tp7286
ss(g23
g371
tp7287
(dp7288
g13
(I182
I200
tp7289
sg15
(I636
I546
tp7290
ss(g371
g61
tp7291
(dp7292
g13
(I200
I198
tp7293
sg15
(I594
I604
tp7294
ss(g101
g198
tp7295
(dp7296
g13
(I200
I200
tp7297
sg15
(I600
I600
tp7298
ss(g101
g192
tp7299
(dp7300
g13
(I2
I3
tp7301
sg15
(I210
I205
tp7302
ss(g74
g208
tp7303
(dp7304
g13
(I11
I10
tp7305
sg15
(I229
I234
tp7306
ss(g68
g321
tp7307
(dp7308
g13
(I200
I0
tp7309
sg15
(I0
I1000
tp7310
ss(g95
g84
tp7311
(dp7312
g13
(I200
I200
tp7313
sg15
(I600
I600
tp7314
ss(g298
g198
tp7315
(dp7316
g13
(I200
I200
tp7317
sg15
(I600
I600
tp7318
ss(g67
g308
tp7319
(dp7320
g13
(I134
I18
tp7321
sg15
(I131
I711
tp7322
ss(g95
g79
tp7323
(dp7324
g13
(I200
I200
tp7325
sg15
(I600
I600
tp7326
ss(g241
g192
tp7327
(dp7328
g13
(I1
I2
tp7329
sg15
(I207
I202
tp7330
ss(g400
g260
tp7331
(dp7332
g13
(I86
I56
tp7333
sg15
(I310
I460
tp7334
ss(g51
g73
tp7335
(dp7336
g13
(I126
I120
tp7337
sg15
(I493
I523
tp7338
ss(g217
g371
tp7339
(dp7340
g13
(I150
I200
tp7341
sg15
(I700
I450
tp7342
ss(g79
g74
tp7343
(dp7344
g13
(I15
I2
tp7345
sg15
(I191
I256
tp7346
ss(g106
g118
tp7347
(dp7348
g13
(I200
I200
tp7349
sg15
(I600
I600
tp7350
ss(g46
g46
tp7351
(dp7352
g13
(I200
I200
tp7353
sg15
(I600
I600
tp7354
ss(g100
g207
tp7355
(dp7356
g13
(I190
I10
tp7357
sg15
(I49
I949
tp7358
ss(g73
g46
tp7359
(dp7360
g13
(I172
I73
tp7361
sg15
(I263
I758
tp7362
ss(g28
g101
tp7363
(dp7364
g13
(I200
I200
tp7365
sg15
(I600
I600
tp7366
ss(g106
g112
tp7367
(dp7368
g13
(I200
I200
tp7369
sg15
(I600
I600
tp7370
ss(g18
g371
tp7371
(dp7372
g13
(I198
I200
tp7373
sg15
(I604
I594
tp7374
ss(g117
g28
tp7375
(dp7376
g13
(I198
I196
tp7377
sg15
(I591
I601
tp7378
ss(g207
g193
tp7379
(dp7380
g13
(I200
I0
tp7381
sg15
(I0
I1000
tp7382
ss(g265
g51
tp7383
(dp7384
g13
(I99
I101
tp7385
sg15
(I480
I470
tp7386
ss(g100
g227
tp7387
(dp7388
g13
(I1
I200
tp7389
sg15
(I998
I3
tp7390
ss(g208
g270
tp7391
(dp7392
g13
(I200
I200
tp7393
sg15
(I600
I600
tp7394
ss(g101
g45
tp7395
(dp7396
g13
(I1
I1
tp7397
sg15
(I203
I203
tp7398
ss(g18
g198
tp7399
(dp7400
g13
(I198
I199
tp7401
sg15
(I600
I595
tp7402
ss(g45
g222
tp7403
(dp7404
g13
(I1
I1
tp7405
sg15
(I203
I203
tp7406
ss(g67
g45
tp7407
(dp7408
g13
(I134
I1
tp7409
sg15
(I69
I734
tp7410
ss(g142
g193
tp7411
(dp7412
g13
(I200
I0
tp7413
sg15
(I0
I1000
tp7414
ss(g147
g504
tp7415
(dp7416
g13
(I198
I198
tp7417
sg15
(I597
I597
tp7418
ss(g147
g293
tp7419
(dp7420
g13
(I200
I199
tp7421
sg15
(I597
I602
tp7422
ss(g46
g260
tp7423
(dp7424
g13
(I35
I128
tp7425
sg15
(I660
I195
tp7426
ss(g166
g193
tp7427
(dp7428
g13
(I200
I0
tp7429
sg15
(I0
I1000
tp7430
ss(g117
g117
tp7431
(dp7432
g13
(I199
I199
tp7433
sg15
(I598
I598
tp7434
ss(g192
g429
tp7435
(dp7436
g13
(I146
I146
tp7437
sg15
(I539
I539
tp7438
ss(g504
g429
tp7439
(dp7440
g13
(I146
I145
tp7441
sg15
(I534
I539
tp7442
ss(g298
g28
tp7443
(dp7444
g13
(I200
I200
tp7445
sg15
(I600
I600
tp7446
ss(g346
g35
tp7447
(dp7448
g13
(I200
I200
tp7449
sg15
(I600
I600
tp7450
ss(g246
g46
tp7451
(dp7452
g13
(I200
I200
tp7453
sg15
(I600
I600
tp7454
ss(g117
g10
tp7455
(dp7456
g13
(I200
I0
tp7457
sg15
(I0
I1000
tp7458
ss(g79
g123
tp7459
(dp7460
g13
(I200
I200
tp7461
sg15
(I600
I600
tp7462
ss(g28
g260
tp7463
(dp7464
g13
(I50
I100
tp7465
sg15
(I525
I275
tp7466
ss(g29
g29
tp7467
(dp7468
g13
(I0
I0
tp7469
sg15
(I200
I200
tp7470
ss(g67
g79
tp7471
(dp7472
g13
(I134
I200
tp7473
sg15
(I732
I402
tp7474
ss(g84
g308
tp7475
(dp7476
g13
(I200
I200
tp7477
sg15
(I600
I600
tp7478
ss(g51
g255
tp7479
(dp7480
g13
(I199
I199
tp7481
sg15
(I599
I599
tp7482
ss(g246
g217
tp7483
(dp7484
g13
(I10
I150
tp7485
sg15
(I782
I82
tp7486
ss(g283
g504
tp7487
(dp7488
g13
(I200
I200
tp7489
sg15
(I600
I600
tp7490
ss(g106
g270
tp7491
(dp7492
g13
(I200
I200
tp7493
sg15
(I600
I600
tp7494
ss(g73
g56
tp7495
(dp7496
g13
(I200
I0
tp7497
sg15
(I0
I1000
tp7498
ss(g166
g171
tp7499
(dp7500
g13
(I19
I99
tp7501
sg15
(I567
I167
tp7502
ss(g371
g434
tp7503
(dp7504
g13
(I200
I200
tp7505
sg15
(I600
I600
tp7506
ss(g34
g303
tp7507
(dp7508
g13
(I200
I0
tp7509
sg15
(I0
I1000
tp7510
ss(g68
g308
tp7511
(dp7512
g13
(I2
I1
tp7513
sg15
(I202
I207
tp7514
ss(g241
g308
tp7515
(dp7516
g13
(I200
I200
tp7517
sg15
(I600
I600
tp7518
ss(g18
g288
tp7519
(dp7520
g13
(I198
I200
tp7521
sg15
(I604
I594
tp7522
ss(g117
g51
tp7523
(dp7524
g13
(I198
I197
tp7525
sg15
(I594
I599
tp7526
ss(g79
g46
tp7527
(dp7528
g13
(I200
I200
tp7529
sg15
(I600
I600
tp7530
ss(g810
g152
tp7531
(dp7532
g13
(I200
I200
tp7533
sg15
(I600
I600
tp7534
ss(g28
g46
tp7535
(dp7536
g13
(I200
I200
tp7537
sg15
(I600
I600
tp7538
ss(g84
g142
tp7539
(dp7540
g13
(I200
I200
tp7541
sg15
(I600
I600
tp7542
ss(g117
g152
tp7543
(dp7544
g13
(I198
I197
tp7545
sg15
(I594
I599
tp7546
ss(g111
g241
tp7547
(dp7548
g13
(I200
I200
tp7549
sg15
(I600
I600
tp7550
ss(g46
g400
tp7551
(dp7552
g13
(I200
I200
tp7553
sg15
(I600
I600
tp7554
ss(g111
g73
tp7555
(dp7556
g13
(I123
I123
tp7557
sg15
(I493
I493
tp7558
ss(g68
g171
tp7559
(dp7560
g13
(I199
I200
tp7561
sg15
(I602
I597
tp7562
ss(g192
g260
tp7563
(dp7564
g13
(I67
I66
tp7565
sg15
(I364
I369
tp7566
ss(g157
g123
tp7567
(dp7568
g13
(I200
I200
tp7569
sg15
(I600
I600
tp7570
ss(g166
g45
tp7571
(dp7572
g13
(I44
I1
tp7573
sg15
(I159
I374
tp7574
ss(g17
g157
tp7575
(dp7576
g13
(I0
I1
tp7577
sg15
(I204
I199
tp7578
ss(g208
g308
tp7579
(dp7580
g13
(I200
I200
tp7581
sg15
(I600
I600
tp7582
ss(g117
g46
tp7583
(dp7584
g13
(I198
I198
tp7585
sg15
(I597
I597
tp7586
ss(g241
g142
tp7587
(dp7588
g13
(I200
I200
tp7589
sg15
(I600
I600
tp7590
ss(g23
g118
tp7591
(dp7592
g13
(I182
I5
tp7593
sg15
(I35
I920
tp7594
ss(g298
g51
tp7595
(dp7596
g13
(I200
I200
tp7597
sg15
(I600
I600
tp7598
ss(g68
g270
tp7599
(dp7600
g13
(I199
I199
tp7601
sg15
(I598
I598
tp7602
ss(g17
g84
tp7603
(dp7604
g13
(I16
I31
tp7605
sg15
(I293
I218
tp7606
ss(g227
g152
tp7607
(dp7608
g13
(I171
I158
tp7609
sg15
(I518
I583
tp7610
ss(g166
g152
tp7611
(dp7612
g13
(I200
I200
tp7613
sg15
(I600
I600
tp7614
ss(g207
g283
tp7615
(dp7616
g13
(I200
I200
tp7617
sg15
(I600
I600
tp7618
ss(g51
g321
tp7619
(dp7620
g13
(I200
I0
tp7621
sg15
(I0
I1000
tp7622
ss(g265
g35
tp7623
(dp7624
g13
(I100
I100
tp7625
sg15
(I400
I400
tp7626
ss(g217
g111
tp7627
(dp7628
g13
(I150
I151
tp7629
sg15
(I553
I548
tp7630
ss(g198
g321
tp7631
(dp7632
g13
(I200
I0
tp7633
sg15
(I0
I1000
tp7634
ss(g132
g118
tp7635
(dp7636
g13
(I200
I200
tp7637
sg15
(I600
I600
tp7638
ss(g192
g459
tp7639
(dp7640
g13
(I2
I199
tp7641
sg15
(I992
I7
tp7642
ss(g810
g166
tp7643
(dp7644
g13
(I200
I200
tp7645
sg15
(I600
I600
tp7646
ss(g137
g142
tp7647
(dp7648
g13
(I100
I11
tp7649
sg15
(I143
I588
tp7650
ss(g137
g117
tp7651
(dp7652
g13
(I100
I198
tp7653
sg15
(I793
I303
tp7654
ss(g137
g283
tp7655
(dp7656
g13
(I100
I11
tp7657
sg15
(I143
I588
tp7658
ss(g429
g321
tp7659
(dp7660
g13
(I200
I0
tp7661
sg15
(I0
I1000
tp7662
ss(g95
g28
tp7663
(dp7664
g13
(I200
I200
tp7665
sg15
(I600
I600
tp7666
ss(g89
g346
tp7667
(dp7668
g13
(I200
I200
tp7669
sg15
(I600
I600
tp7670
ss(g123
g260
tp7671
(dp7672
g13
(I26
I141
tp7673
sg15
(I723
I148
tp7674
ss(g171
g40
tp7675
(dp7676
g13
(I200
I200
tp7677
sg15
(I600
I600
tp7678
ss(g18
g147
tp7679
(dp7680
g13
(I8
I195
tp7681
sg15
(I968
I33
tp7682
ss(g265
g67
tp7683
(dp7684
g13
(I66
I134
tp7685
sg15
(I604
I264
tp7686
ss(g434
g308
tp7687
(dp7688
g13
(I200
I200
tp7689
sg15
(I600
I600
tp7690
ss(g67
g46
tp7691
(dp7692
g13
(I134
I31
tp7693
sg15
(I177
I692
tp7694
ss(g232
g810
tp7695
(dp7696
g13
(I0
I1
tp7697
sg15
(I204
I199
tp7698
ss(g147
g208
tp7699
(dp7700
g13
(I198
I179
tp7701
sg15
(I540
I635
tp7702
ss(g95
g157
tp7703
(dp7704
g13
(I200
I200
tp7705
sg15
(I600
I600
tp7706
ss(g9
g56
tp7707
(dp7708
g13
(I200
I0
tp7709
sg15
(I0
I1000
tp7710
ss(g23
g434
tp7711
(dp7712
g13
(I182
I44
tp7713
sg15
(I154
I844
tp7714
ss(g207
g9
tp7715
(dp7716
g13
(I200
I200
tp7717
sg15
(I600
I600
tp7718
ss(g101
g208
tp7719
(dp7720
g13
(I200
I200
tp7721
sg15
(I600
I600
tp7722
ss(g23
g79
tp7723
(dp7724
g13
(I182
I200
tp7725
sg15
(I636
I546
tp7726
ss(g207
g35
tp7727
(dp7728
g13
(I200
I200
tp7729
sg15
(I600
I600
tp7730
ss(g84
g84
tp7731
(dp7732
g13
(I200
I200
tp7733
sg15
(I600
I600
tp7734
ss(g810
g222
tp7735
(dp7736
g13
(I200
I200
tp7737
sg15
(I600
I600
tp7738
ss(g35
g35
tp7739
(dp7740
g13
(I200
I200
tp7741
sg15
(I600
I600
tp7742
ss(g142
g10
tp7743
(dp7744
g13
(I200
I0
tp7745
sg15
(I0
I1000
tp7746
ss(g18
g303
tp7747
(dp7748
g13
(I200
I0
tp7749
sg15
(I0
I1000
tp7750
ss(g95
g9
tp7751
(dp7752
g13
(I200
I200
tp7753
sg15
(I600
I600
tp7754
ss(g17
g459
tp7755
(dp7756
g13
(I0
I1
tp7757
sg15
(I204
I199
tp7758
ss(g67
g303
tp7759
(dp7760
g13
(I200
I0
tp7761
sg15
(I0
I1000
tp7762
ss(g137
g504
tp7763
(dp7764
g13
(I100
I101
tp7765
sg15
(I503
I498
tp7766
ss(g18
g810
tp7767
(dp7768
g13
(I198
I200
tp7769
sg15
(I604
I594
tp7770
ss(g283
g557
tp7771
(dp7772
g13
(I200
I200
tp7773
sg15
(I600
I600
tp7774
ss(g241
g400
tp7775
(dp7776
g13
(I200
I200
tp7777
sg15
(I600
I600
tp7778
ss(g157
g192
tp7779
(dp7780
g13
(I1
I2
tp7781
sg15
(I207
I202
tp7782
ss(g137
g74
tp7783
(dp7784
g13
(I100
I100
tp7785
sg15
(I499
I499
tp7786
ss(g23
g321
tp7787
(dp7788
g13
(I200
I0
tp7789
sg15
(I0
I1000
tp7790
ss(g100
g89
tp7791
(dp7792
g13
(I100
I101
tp7793
sg15
(I470
I465
tp7794
ss(g28
g303
tp7795
(dp7796
g13
(I200
I0
tp7797
sg15
(I0
I1000
tp7798
ss(g265
g106
tp7799
(dp7800
g13
(I0
I200
tp7801
sg15
(I1000
I0
tp7802
ss(g79
g270
tp7803
(dp7804
g13
(I200
I200
tp7805
sg15
(I600
I600
tp7806
ss(g283
g270
tp7807
(dp7808
g13
(I200
I200
tp7809
sg15
(I600
I600
tp7810
ss(g147
g207
tp7811
(dp7812
g13
(I193
I10
tp7813
sg15
(I43
I958
tp7814
ss(g283
g208
tp7815
(dp7816
g13
(I200
I200
tp7817
sg15
(I600
I600
tp7818
ss(g157
g142
tp7819
(dp7820
g13
(I200
I200
tp7821
sg15
(I600
I600
tp7822
ss(g217
g400
tp7823
(dp7824
g13
(I150
I200
tp7825
sg15
(I700
I450
tp7826
ss(g111
g123
tp7827
(dp7828
g13
(I200
I200
tp7829
sg15
(I600
I600
tp7830
ss(g208
g504
tp7831
(dp7832
g13
(I200
I200
tp7833
sg15
(I600
I600
tp7834
ss(g9
g62
tp7835
(dp7836
g13
(I200
I200
tp7837
sg15
(I600
I600
tp7838
ss(g106
g303
tp7839
(dp7840
g13
(I200
I0
tp7841
sg15
(I0
I1000
tp7842
ss(g123
g321
tp7843
(dp7844
g13
(I200
I0
tp7845
sg15
(I0
I1000
tp7846
ss(g95
g56
tp7847
(dp7848
g13
(I200
I0
tp7849
sg15
(I0
I1000
tp7850
ss(g298
g45
tp7851
(dp7852
g13
(I180
I179
tp7853
sg15
(I577
I582
tp7854
ss(g207
g73
tp7855
(dp7856
g13
(I10
I190
tp7857
sg15
(I949
I49
tp7858
ss(g434
g101
tp7859
(dp7860
g13
(I200
I200
tp7861
sg15
(I600
I600
tp7862
ss(g95
g152
tp7863
(dp7864
g13
(I200
I200
tp7865
sg15
(I600
I600
tp7866
ss(g157
g45
tp7867
(dp7868
g13
(I1
I1
tp7869
sg15
(I203
I203
tp7870
ss(g255
g429
tp7871
(dp7872
g13
(I146
I145
tp7873
sg15
(I535
I540
tp7874
ss(g34
g34
tp7875
(dp7876
g13
(I167
I167
tp7877
sg15
(I534
I534
tp7878
ss(g95
g18
tp7879
(dp7880
g13
(I200
I198
tp7881
sg15
(I594
I604
tp7882
ss(g73
g459
tp7883
(dp7884
g13
(I1
I199
tp7885
sg15
(I994
I4
tp7886
ss(g810
g62
tp7887
(dp7888
g13
(I200
I200
tp7889
sg15
(I600
I600
tp7890
ss(g400
g303
tp7891
(dp7892
g13
(I200
I0
tp7893
sg15
(I0
I1000
tp7894
ss(g260
g270
tp7895
(dp7896
g13
(I0
I0
tp7897
sg15
(I200
I200
tp7898
ss(g371
g111
tp7899
(dp7900
g13
(I200
I200
tp7901
sg15
(I600
I600
tp7902
ss(g241
g74
tp7903
(dp7904
g13
(I1
I2
tp7905
sg15
(I207
I202
tp7906
ss(g95
g298
tp7907
(dp7908
g13
(I200
I200
tp7909
sg15
(I600
I600
tp7910
ss(g142
g56
tp7911
(dp7912
g13
(I200
I0
tp7913
sg15
(I0
I1000
tp7914
ss(g147
g152
tp7915
(dp7916
g13
(I198
I197
tp7917
sg15
(I594
I599
tp7918
ss(g101
g152
tp7919
(dp7920
g13
(I200
I200
tp7921
sg15
(I600
I600
tp7922
ss(g298
g192
tp7923
(dp7924
g13
(I199
I199
tp7925
sg15
(I599
I599
tp7926
ss(g123
g198
tp7927
(dp7928
g13
(I200
I200
tp7929
sg15
(I600
I600
tp7930
ss(g208
g346
tp7931
(dp7932
g13
(I200
I200
tp7933
sg15
(I600
I600
tp7934
ss(g246
g260
tp7935
(dp7936
g13
(I200
I0
tp7937
sg15
(I0
I1000
tp7938
ss(g298
g400
tp7939
(dp7940
g13
(I200
I200
tp7941
sg15
(I600
I600
tp7942
ss(g171
g171
tp7943
(dp7944
g13
(I198
I198
tp7945
sg15
(I596
I596
tp7946
ss(g18
g293
tp7947
(dp7948
g13
(I198
I198
tp7949
sg15
(I597
I597
tp7950
ss(g118
g45
tp7951
(dp7952
g13
(I3
I1
tp7953
sg15
(I200
I210
tp7954
ss(g17
g270
tp7955
(dp7956
g13
(I0
I0
tp7957
sg15
(I200
I200
tp7958
ss(g112
g298
tp7959
(dp7960
g13
(I200
I200
tp7961
sg15
(I600
I600
tp7962
ss(g73
g29
tp7963
(dp7964
g13
(I48
I199
tp7965
sg15
(I901
I146
tp7966
ss(g89
g192
tp7967
(dp7968
g13
(I5
I2
tp7969
sg15
(I201
I216
tp7970
ss(g61
g298
tp7971
(dp7972
g13
(I198
I200
tp7973
sg15
(I604
I594
tp7974
ss(g208
g193
tp7975
(dp7976
g13
(I200
I0
tp7977
sg15
(I0
I1000
tp7978
ss(g166
g459
tp7979
(dp7980
g13
(I200
I199
tp7981
sg15
(I597
I602
tp7982
ss(g400
g35
tp7983
(dp7984
g13
(I200
I200
tp7985
sg15
(I600
I600
tp7986
ss(g17
g142
tp7987
(dp7988
g13
(I0
I1
tp7989
sg15
(I204
I199
tp7990
ss(g246
g371
tp7991
(dp7992
g13
(I200
I200
tp7993
sg15
(I600
I600
tp7994
ss(g298
g62
tp7995
(dp7996
g13
(I200
I200
tp7997
sg15
(I600
I600
tp7998
ss(g101
g171
tp7999
(dp8000
g13
(I186
I192
tp8001
sg15
(I597
I567
tp8002
ss(g207
g40
tp8003
(dp8004
g13
(I200
I200
tp8005
sg15
(I600
I600
tp8006
ss(g84
g283
tp8007
(dp8008
g13
(I200
I200
tp8009
sg15
(I600
I600
tp8010
ss(g106
g166
tp8011
(dp8012
g13
(I200
I200
tp8013
sg15
(I600
I600
tp8014
ss(g293
g56
tp8015
(dp8016
g13
(I200
I0
tp8017
sg15
(I0
I1000
tp8018
ss(g346
g557
tp8019
(dp8020
g13
(I200
I200
tp8021
sg15
(I600
I600
tp8022
ss(g46
g35
tp8023
(dp8024
g13
(I200
I200
tp8025
sg15
(I600
I600
tp8026
ss(g101
g227
tp8027
(dp8028
g13
(I70
I186
tp8029
sg15
(I811
I231
tp8030
ss(g232
g321
tp8031
(dp8032
g13
(I200
I0
tp8033
sg15
(I0
I1000
tp8034
ss(g112
g270
tp8035
(dp8036
g13
(I200
I200
tp8037
sg15
(I600
I600
tp8038
ss(g241
g9
tp8039
(dp8040
g13
(I200
I200
tp8041
sg15
(I600
I600
tp8042
ss(g222
g46
tp8043
(dp8044
g13
(I200
I200
tp8045
sg15
(I600
I600
tp8046
ss(g246
g293
tp8047
(dp8048
g13
(I200
I199
tp8049
sg15
(I597
I602
tp8050
ss(g265
g74
tp8051
(dp8052
g13
(I197
I2
tp8053
sg15
(I10
I985
tp8054
ss(g504
g504
tp8055
(dp8056
g13
(I200
I200
tp8057
sg15
(I600
I600
tp8058
ss(g17
g10
tp8059
(dp8060
g13
(I200
I0
tp8061
sg15
(I0
I1000
tp8062
ss(g10
g10
tp8063
(dp8064
g13
(I200
I0
tp8065
sg15
(I0
I1000
tp8066
ss(g429
g198
tp8067
(dp8068
g13
(I192
I9
tp8069
sg15
(I42
I957
tp8070
ss(g61
g118
tp8071
(dp8072
g13
(I198
I200
tp8073
sg15
(I604
I594
tp8074
ss(g222
g171
tp8075
(dp8076
g13
(I21
I110
tp8077
sg15
(I617
I172
tp8078
ss(g100
g321
tp8079
(dp8080
g13
(I200
I0
tp8081
sg15
(I0
I1000
tp8082
ss(g17
g246
tp8083
(dp8084
g13
(I197
I200
tp8085
sg15
(I606
I591
tp8086
ss(g89
g35
tp8087
(dp8088
g13
(I200
I200
tp8089
sg15
(I600
I600
tp8090
ss(g45
g9
tp8091
(dp8092
g13
(I1
I1
tp8093
sg15
(I203
I203
tp8094
ss(g34
g111
tp8095
(dp8096
g13
(I167
I167
tp8097
sg15
(I567
I567
tp8098
ss(g810
g89
tp8099
(dp8100
g13
(I200
I200
tp8101
sg15
(I600
I600
tp8102
ss(g51
g74
tp8103
(dp8104
g13
(I196
I196
tp8105
sg15
(I595
I595
tp8106
ss(g34
g84
tp8107
(dp8108
g13
(I167
I14
tp8109
sg15
(I77
I842
tp8110
ss(g84
g346
tp8111
(dp8112
g13
(I200
I200
tp8113
sg15
(I600
I600
tp8114
ss(g142
g504
tp8115
(dp8116
g13
(I200
I200
tp8117
sg15
(I600
I600
tp8118
ss(g34
g429
tp8119
(dp8120
g13
(I167
I125
tp8121
sg15
(I423
I633
tp8122
ss(g73
g429
tp8123
(dp8124
g13
(I48
I199
tp8125
sg15
(I900
I145
tp8126
ss(g34
g166
tp8127
(dp8128
g13
(I167
I30
tp8129
sg15
(I129
I814
tp8130
ss(g79
g171
tp8131
(dp8132
g13
(I15
I94
tp8133
sg15
(I559
I164
tp8134
ss(g255
g193
tp8135
(dp8136
g13
(I200
I0
tp8137
sg15
(I0
I1000
tp8138
ss(g246
g61
tp8139
(dp8140
g13
(I200
I198
tp8141
sg15
(I594
I604
tp8142
ss(g298
g321
tp8143
(dp8144
g13
(I200
I0
tp8145
sg15
(I0
I1000
tp8146
ss(g346
g346
tp8147
(dp8148
g13
(I200
I200
tp8149
sg15
(I600
I600
tp8150
ss(g137
g192
tp8151
(dp8152
g13
(I100
I101
tp8153
sg15
(I503
I498
tp8154
ss(g283
g321
tp8155
(dp8156
g13
(I200
I0
tp8157
sg15
(I0
I1000
tp8158
ss(g192
g35
tp8159
(dp8160
g13
(I2
I2
tp8161
sg15
(I204
I204
tp8162
ss(g61
g321
tp8163
(dp8164
g13
(I200
I0
tp8165
sg15
(I0
I1000
tp8166
ss(g112
g208
tp8167
(dp8168
g13
(I200
I200
tp8169
sg15
(I600
I600
tp8170
ss(g246
g283
tp8171
(dp8172
g13
(I200
I200
tp8173
sg15
(I600
I600
tp8174
ss(g17
g147
tp8175
(dp8176
g13
(I197
I200
tp8177
sg15
(I606
I591
tp8178
ss(g207
g198
tp8179
(dp8180
g13
(I200
I200
tp8181
sg15
(I600
I600
tp8182
ss(g90
g193
tp8183
(dp8184
g13
(I200
I0
tp8185
sg15
(I0
I1000
tp8186
ss(g166
g198
tp8187
(dp8188
g13
(I200
I200
tp8189
sg15
(I600
I600
tp8190
ss(g346
g40
tp8191
(dp8192
g13
(I200
I200
tp8193
sg15
(I600
I600
tp8194
ss(g321
g56
tp8195
(dp8196
g13
(I200
I200
tp8197
sg15
(I600
I600
tp8198
ss(g434
g10
tp8199
(dp8200
g13
(I200
I0
tp8201
sg15
(I0
I1000
tp8202
ss(g106
g111
tp8203
(dp8204
g13
(I200
I200
tp8205
sg15
(I600
I600
tp8206
ss(g112
g459
tp8207
(dp8208
g13
(I200
I199
tp8209
sg15
(I597
I602
tp8210
ss(g137
g29
tp8211
(dp8212
g13
(I100
I199
tp8213
sg15
(I797
I302
tp8214
ss(g45
g62
tp8215
(dp8216
g13
(I67
I67
tp8217
sg15
(I401
I401
tp8218
ss(g265
g62
tp8219
(dp8220
g13
(I66
I133
tp8221
sg15
(I600
I265
tp8222
ss(g192
g10
tp8223
(dp8224
g13
(I200
I0
tp8225
sg15
(I0
I1000
tp8226
ss(g246
g207
tp8227
(dp8228
g13
(I200
I200
tp8229
sg15
(I600
I600
tp8230
ss(g137
g45
tp8231
(dp8232
g13
(I100
I100
tp8233
sg15
(I500
I500
tp8234
ss(g208
g198
tp8235
(dp8236
g13
(I200
I200
tp8237
sg15
(I600
I600
tp8238
ss(g192
g45
tp8239
(dp8240
g13
(I2
I1
tp8241
sg15
(I201
I206
tp8242
ss(g208
g208
tp8243
(dp8244
g13
(I200
I200
tp8245
sg15
(I600
I600
tp8246
ss(g112
g68
tp8247
(dp8248
g13
(I199
I199
tp8249
sg15
(I599
I599
tp8250
ss(g171
g303
tp8251
(dp8252
g13
(I200
I0
tp8253
sg15
(I0
I1000
tp8254
ss(g137
g288
tp8255
(dp8256
g13
(I100
I200
tp8257
sg15
(I800
I300
tp8258
ss(g232
g118
tp8259
(dp8260
g13
(I0
I2
tp8261
sg15
(I208
I198
tp8262
ss(g137
g232
tp8263
(dp8264
g13
(I100
I0
tp8265
sg15
(I100
I600
tp8266
ss(g45
g504
tp8267
(dp8268
g13
(I100
I100
tp8269
sg15
(I500
I500
tp8270
ss(g111
g557
tp8271
(dp8272
g13
(I200
I200
tp8273
sg15
(I600
I600
tp8274
ss(g51
g62
tp8275
(dp8276
g13
(I200
I200
tp8277
sg15
(I600
I600
tp8278
ss(g208
g459
tp8279
(dp8280
g13
(I200
I199
tp8281
sg15
(I597
I602
tp8282
ss(g246
g298
tp8283
(dp8284
g13
(I200
I200
tp8285
sg15
(I600
I600
tp8286
ss(g208
g68
tp8287
(dp8288
g13
(I10
I11
tp8289
sg15
(I234
I229
tp8290
ss(g217
g222
tp8291
(dp8292
g13
(I150
I52
tp8293
sg15
(I231
I721
tp8294
ss(g101
g9
tp8295
(dp8296
g13
(I200
I200
tp8297
sg15
(I600
I600
tp8298
ss(g232
g270
tp8299
(dp8300
g13
(I0
I0
tp8301
sg15
(I200
I200
tp8302
ss(g371
g255
tp8303
(dp8304
g13
(I200
I100
tp8305
sg15
(I300
I800
tp8306
ss(g101
g142
tp8307
(dp8308
g13
(I200
I200
tp8309
sg15
(I600
I600
tp8310
ss(g147
g157
tp8311
(dp8312
g13
(I198
I189
tp8313
sg15
(I570
I615
tp8314
ss(g17
g346
tp8315
(dp8316
g13
(I0
I2
tp8317
sg15
(I208
I198
tp8318
ss(g111
g283
tp8319
(dp8320
g13
(I200
I200
tp8321
sg15
(I600
I600
tp8322
ss(g192
g192
tp8323
(dp8324
g13
(I2
I2
tp8325
sg15
(I204
I204
tp8326
ss(g106
g321
tp8327
(dp8328
g13
(I200
I0
tp8329
sg15
(I0
I1000
tp8330
ss(g23
g265
tp8331
(dp8332
g13
(I182
I18
tp8333
sg15
(I72
I892
tp8334
ss(g123
g192
tp8335
(dp8336
g13
(I13
I14
tp8337
sg15
(I243
I238
tp8338
ss(g288
g29
tp8339
(dp8340
g13
(I199
I199
tp8341
sg15
(I599
I599
tp8342
ss(g84
g288
tp8343
(dp8344
g13
(I200
I200
tp8345
sg15
(I600
I600
tp8346
ss(g142
g62
tp8347
(dp8348
g13
(I200
I200
tp8349
sg15
(I600
I600
tp8350
ss(g147
g166
tp8351
(dp8352
g13
(I183
I21
tp8353
sg15
(I96
I906
tp8354
ss(g810
g90
tp8355
(dp8356
g13
(I197
I106
tp8357
sg15
(I323
I778
tp8358
ss(g100
g504
tp8359
(dp8360
g13
(I100
I100
tp8361
sg15
(I450
I450
tp8362
ss(g346
g68
tp8363
(dp8364
g13
(I200
I199
tp8365
sg15
(I597
I602
tp8366
ss(g270
g40
tp8367
(dp8368
g13
(I200
I200
tp8369
sg15
(I600
I600
tp8370
ss(g101
g308
tp8371
(dp8372
g13
(I200
I200
tp8373
sg15
(I600
I600
tp8374
ss(g207
g241
tp8375
(dp8376
g13
(I200
I200
tp8377
sg15
(I600
I600
tp8378
ss(g9
g227
tp8379
(dp8380
g13
(I70
I186
tp8381
sg15
(I811
I231
tp8382
ss(g73
g35
tp8383
(dp8384
g13
(I123
I123
tp8385
sg15
(I446
I446
tp8386
ss(g34
g459
tp8387
(dp8388
g13
(I167
I199
tp8389
sg15
(I663
I503
tp8390
ss(g434
g810
tp8391
(dp8392
g13
(I200
I200
tp8393
sg15
(I600
I600
tp8394
ss(g434
g9
tp8395
(dp8396
g13
(I200
I200
tp8397
sg15
(I600
I600
tp8398
ss(g371
g346
tp8399
(dp8400
g13
(I200
I200
tp8401
sg15
(I600
I600
tp8402
ss(g89
g557
tp8403
(dp8404
g13
(I200
I200
tp8405
sg15
(I600
I600
tp8406
ss(g308
g152
tp8407
(dp8408
g13
(I200
I200
tp8409
sg15
(I600
I600
tp8410
ss(g137
g157
tp8411
(dp8412
g13
(I100
I18
tp8413
sg15
(I171
I581
tp8414
ss(g371
g157
tp8415
(dp8416
g13
(I200
I200
tp8417
sg15
(I600
I600
tp8418
ss(g79
g504
tp8419
(dp8420
g13
(I200
I200
tp8421
sg15
(I600
I600
tp8422
ss(g157
g255
tp8423
(dp8424
g13
(I1
I2
tp8425
sg15
(I207
I202
tp8426
ss(g434
g293
tp8427
(dp8428
g13
(I1
I1
tp8429
sg15
(I203
I203
tp8430
ss(g10
g321
tp8431
(dp8432
g13
(I200
I200
tp8433
sg15
(I600
I600
tp8434
ss(g68
g62
tp8435
(dp8436
g13
(I67
I67
tp8437
sg15
(I401
I401
tp8438
ss(g89
g283
tp8439
(dp8440
g13
(I200
I200
tp8441
sg15
(I600
I600
tp8442
ss(g132
g89
tp8443
(dp8444
g13
(I200
I200
tp8445
sg15
(I600
I600
tp8446
ss(g232
g283
tp8447
(dp8448
g13
(I0
I10
tp8449
sg15
(I240
I190
tp8450
ss(g557
g459
tp8451
(dp8452
g13
(I200
I199
tp8453
sg15
(I597
I602
tp8454
ss(g79
g68
tp8455
(dp8456
g13
(I200
I199
tp8457
sg15
(I597
I602
tp8458
ss(g400
g321
tp8459
(dp8460
g13
(I200
I0
tp8461
sg15
(I0
I1000
tp8462
ss(g112
g28
tp8463
(dp8464
g13
(I200
I200
tp8465
sg15
(I600
I600
tp8466
ss(g283
g198
tp8467
(dp8468
g13
(I200
I200
tp8469
sg15
(I600
I600
tp8470
ss(g298
g308
tp8471
(dp8472
g13
(I200
I200
tp8473
sg15
(I600
I600
tp8474
ss(g434
g56
tp8475
(dp8476
g13
(I200
I0
tp8477
sg15
(I0
I1000
tp8478
ss(g51
g79
tp8479
(dp8480
g13
(I200
I200
tp8481
sg15
(I600
I600
tp8482
ss(g117
g288
tp8483
(dp8484
g13
(I198
I197
tp8485
sg15
(I594
I599
tp8486
ss(g61
g193
tp8487
(dp8488
g13
(I200
I0
tp8489
sg15
(I0
I1000
tp8490
ss(g106
g67
tp8491
(dp8492
g13
(I200
I134
tp8493
sg15
(I402
I732
tp8494
ss(g18
g152
tp8495
(dp8496
g13
(I198
I199
tp8497
sg15
(I600
I595
tp8498
ss(g147
g192
tp8499
(dp8500
g13
(I200
I2
tp8501
sg15
(I6
I996
tp8502
ss(g51
g222
tp8503
(dp8504
g13
(I200
I200
tp8505
sg15
(I600
I600
tp8506
ss(g137
g10
tp8507
(dp8508
g13
(I200
I0
tp8509
sg15
(I0
I1000
tp8510
ss(g117
g171
tp8511
(dp8512
g13
(I197
I198
tp8513
sg15
(I599
I594
tp8514
ss(g308
g429
tp8515
(dp8516
g13
(I98
I189
tp8517
sg15
(I768
I313
tp8518
ss(g89
g101
tp8519
(dp8520
g13
(I200
I200
tp8521
sg15
(I600
I600
tp8522
ss(g171
g270
tp8523
(dp8524
g13
(I198
I198
tp8525
sg15
(I596
I596
tp8526
ss(g147
g217
tp8527
(dp8528
g13
(I200
I150
tp8529
sg15
(I450
I700
tp8530
ss(g207
g810
tp8531
(dp8532
g13
(I200
I200
tp8533
sg15
(I600
I600
tp8534
ss(g51
g293
tp8535
(dp8536
g13
(I100
I100
tp8537
sg15
(I500
I500
tp8538
ss(g232
g429
tp8539
(dp8540
g13
(I0
I200
tp8541
sg15
(I1000
I0
tp8542
ss(g434
g288
tp8543
(dp8544
g13
(I200
I200
tp8545
sg15
(I600
I600
tp8546
ss(g123
g255
tp8547
(dp8548
g13
(I13
I14
tp8549
sg15
(I243
I238
tp8550
ss(g106
g152
tp8551
(dp8552
g13
(I200
I200
tp8553
sg15
(I600
I600
tp8554
ss(g101
g46
tp8555
(dp8556
g13
(I200
I200
tp8557
sg15
(I600
I600
tp8558
ss(g260
g459
tp8559
(dp8560
g13
(I0
I199
tp8561
sg15
(I996
I1
tp8562
ss(g241
g208
tp8563
(dp8564
g13
(I200
I200
tp8565
sg15
(I600
I600
tp8566
ss(g241
g198
tp8567
(dp8568
g13
(I200
I200
tp8569
sg15
(I600
I600
tp8570
ss(g106
g106
tp8571
(dp8572
g13
(I200
I200
tp8573
sg15
(I600
I600
tp8574
ss(g106
g255
tp8575
(dp8576
g13
(I200
I100
tp8577
sg15
(I300
I800
tp8578
ss(g90
g171
tp8579
(dp8580
g13
(I151
I152
tp8581
sg15
(I553
I548
tp8582
ss(g74
g192
tp8583
(dp8584
g13
(I2
I4
tp8585
sg15
(I212
I202
tp8586
ss(g29
g62
tp8587
(dp8588
g13
(I199
I1
tp8589
sg15
(I5
I995
tp8590
ss(g371
g260
tp8591
(dp8592
g13
(I196
I2
tp8593
sg15
(I11
I981
tp8594
ss(g61
g810
tp8595
(dp8596
g13
(I198
I200
tp8597
sg15
(I604
I594
tp8598
ss(g34
g45
tp8599
(dp8600
g13
(I167
I1
tp8601
sg15
(I36
I866
tp8602
ss(g73
g40
tp8603
(dp8604
g13
(I200
I200
tp8605
sg15
(I600
I600
tp8606
ss(g193
g56
tp8607
(dp8608
g13
(I200
I200
tp8609
sg15
(I600
I600
tp8610
ss(g61
g303
tp8611
(dp8612
g13
(I200
I0
tp8613
sg15
(I0
I1000
tp8614
ss(g246
g123
tp8615
(dp8616
g13
(I200
I200
tp8617
sg15
(I600
I600
tp8618
ss(g61
g101
tp8619
(dp8620
g13
(I198
I199
tp8621
sg15
(I600
I595
tp8622
ss(g111
g101
tp8623
(dp8624
g13
(I200
I200
tp8625
sg15
(I600
I600
tp8626
ss(g100
g79
tp8627
(dp8628
g13
(I97
I104
tp8629
sg15
(I514
I479
tp8630
ss(g117
g89
tp8631
(dp8632
g13
(I197
I197
tp8633
sg15
(I596
I596
tp8634
ss(g246
g117
tp8635
(dp8636
g13
(I200
I0
tp8637
sg15
(I0
I1000
tp8638
ss(g45
g171
tp8639
(dp8640
g13
(I1
I101
tp8641
sg15
(I602
I102
tp8642
ss(g147
g434
tp8643
(dp8644
g13
(I198
I185
tp8645
sg15
(I558
I623
tp8646
ss(g61
g260
tp8647
(dp8648
g13
(I4
I193
tp8649
sg15
(I968
I23
tp8650
ss(g123
g346
tp8651
(dp8652
g13
(I200
I200
tp8653
sg15
(I600
I600
tp8654
ss(g106
g434
tp8655
(dp8656
g13
(I200
I200
tp8657
sg15
(I600
I600
tp8658
ss(g89
g260
tp8659
(dp8660
g13
(I75
I75
tp8661
sg15
(I400
I400
tp8662
ss(g132
g112
tp8663
(dp8664
g13
(I200
I200
tp8665
sg15
(I600
I600
tp8666
ss(g117
g346
tp8667
(dp8668
g13
(I197
I189
tp8669
sg15
(I572
I612
tp8670
ss(g137
g434
tp8671
(dp8672
g13
(I100
I2
tp8673
sg15
(I107
I597
tp8674
ss(g137
g303
tp8675
(dp8676
g13
(I200
I0
tp8677
sg15
(I0
I1000
tp8678
ss(g112
g45
tp8679
(dp8680
g13
(I195
I194
tp8681
sg15
(I592
I597
tp8682
ss(g166
g303
tp8683
(dp8684
g13
(I200
I0
tp8685
sg15
(I0
I1000
tp8686
ss(g246
g504
tp8687
(dp8688
g13
(I200
I200
tp8689
sg15
(I600
I600
tp8690
ss(g84
g241
tp8691
(dp8692
g13
(I200
I200
tp8693
sg15
(I600
I600
tp8694
ss(g217
g557
tp8695
(dp8696
g13
(I150
I193
tp8697
sg15
(I678
I463
tp8698
ss(g18
g429
tp8699
(dp8700
g13
(I5
I195
tp8701
sg15
(I974
I24
tp8702
ss(g111
g166
tp8703
(dp8704
g13
(I200
I200
tp8705
sg15
(I600
I600
tp8706
ss(g429
g303
tp8707
(dp8708
g13
(I200
I0
tp8709
sg15
(I0
I1000
tp8710
ss(g227
g35
tp8711
(dp8712
g13
(I182
I182
tp8713
sg15
(I564
I564
tp8714
ss(g28
g56
tp8715
(dp8716
g13
(I200
I0
tp8717
sg15
(I0
I1000
tp8718
ss(g61
g227
tp8719
(dp8720
g13
(I7
I195
tp8721
sg15
(I970
I30
tp8722
ss(g434
g198
tp8723
(dp8724
g13
(I200
I200
tp8725
sg15
(I600
I600
tp8726
ss(g308
g255
tp8727
(dp8728
g13
(I1
I2
tp8729
sg15
(I207
I202
tp8730
ss(g112
g79
tp8731
(dp8732
g13
(I200
I200
tp8733
sg15
(I600
I600
tp8734
ss(g132
g298
tp8735
(dp8736
g13
(I200
I200
tp8737
sg15
(I600
I600
tp8738
ss(g147
g112
tp8739
(dp8740
g13
(I194
I194
tp8741
sg15
(I593
I593
tp8742
ss(g241
g241
tp8743
(dp8744
g13
(I200
I200
tp8745
sg15
(I600
I600
tp8746
ss(g227
g303
tp8747
(dp8748
g13
(I200
I0
tp8749
sg15
(I0
I1000
tp8750
ss(g137
g56
tp8751
(dp8752
g13
(I200
I0
tp8753
sg15
(I0
I1000
tp8754
ss(g61
g293
tp8755
(dp8756
g13
(I198
I198
tp8757
sg15
(I597
I597
tp8758
ss(g288
g166
tp8759
(dp8760
g13
(I200
I200
tp8761
sg15
(I600
I600
tp8762
ss(g118
g270
tp8763
(dp8764
g13
(I200
I200
tp8765
sg15
(I600
I600
tp8766
ss(g283
g152
tp8767
(dp8768
g13
(I200
I200
tp8769
sg15
(I600
I600
tp8770
ss(g293
g198
tp8771
(dp8772
g13
(I56
I56
tp8773
sg15
(I319
I319
tp8774
ss(g111
g308
tp8775
(dp8776
g13
(I200
I200
tp8777
sg15
(I600
I600
tp8778
ss(g100
g111
tp8779
(dp8780
g13
(I100
I100
tp8781
sg15
(I450
I450
tp8782
ss(g67
g810
tp8783
(dp8784
g13
(I134
I200
tp8785
sg15
(I732
I402
tp8786
ss(g17
g193
tp8787
(dp8788
g13
(I200
I0
tp8789
sg15
(I0
I1000
tp8790
ss(g246
g62
tp8791
(dp8792
g13
(I200
I200
tp8793
sg15
(I600
I600
tp8794
ss(g157
g90
tp8795
(dp8796
g13
(I112
I191
tp8797
sg15
(I748
I353
tp8798
ss(g171
g35
tp8799
(dp8800
g13
(I198
I198
tp8801
sg15
(I596
I596
tp8802
ss(g198
g56
tp8803
(dp8804
g13
(I200
I0
tp8805
sg15
(I0
I1000
tp8806
ss(g298
g557
tp8807
(dp8808
g13
(I200
I200
tp8809
sg15
(I600
I600
tp8810
ss(g810
g810
tp8811
(dp8812
g13
(I200
I200
tp8813
sg15
(I600
I600
tp8814
ss(g51
g504
tp8815
(dp8816
g13
(I200
I200
tp8817
sg15
(I600
I600
tp8818
ss(g112
g321
tp8819
(dp8820
g13
(I200
I0
tp8821
sg15
(I0
I1000
tp8822
ss(g192
g40
tp8823
(dp8824
g13
(I200
I200
tp8825
sg15
(I600
I600
tp8826
ss(g157
g434
tp8827
(dp8828
g13
(I200
I200
tp8829
sg15
(I600
I600
tp8830
ss(g400
g459
tp8831
(dp8832
g13
(I200
I199
tp8833
sg15
(I597
I602
tp8834
ss(g18
g45
tp8835
(dp8836
g13
(I5
I1
tp8837
sg15
(I198
I218
tp8838
ss(g283
g171
tp8839
(dp8840
g13
(I13
I106
tp8841
sg15
(I609
I144
tp8842
ss(g810
g101
tp8843
(dp8844
g13
(I200
I200
tp8845
sg15
(I600
I600
tp8846
ss(g371
g40
tp8847
(dp8848
g13
(I200
I200
tp8849
sg15
(I600
I600
tp8850
ss(g106
g810
tp8851
(dp8852
g13
(I200
I200
tp8853
sg15
(I600
I600
tp8854
ss(g18
g246
tp8855
(dp8856
g13
(I198
I200
tp8857
sg15
(I604
I594
tp8858
ss(g117
g400
tp8859
(dp8860
g13
(I197
I198
tp8861
sg15
(I599
I594
tp8862
ss(g132
g255
tp8863
(dp8864
g13
(I67
I67
tp8865
sg15
(I401
I401
tp8866
ss(g232
g166
tp8867
(dp8868
g13
(I0
I200
tp8869
sg15
(I1000
I0
tp8870
ss(g118
g192
tp8871
(dp8872
g13
(I4
I2
tp8873
sg15
(I202
I212
tp8874
ss(g45
g56
tp8875
(dp8876
g13
(I200
I0
tp8877
sg15
(I0
I1000
tp8878
ss(g346
g193
tp8879
(dp8880
g13
(I200
I0
tp8881
sg15
(I0
I1000
tp8882
ss(g90
g557
tp8883
(dp8884
g13
(I1
I200
tp8885
sg15
(I998
I3
tp8886
ss(g246
g321
tp8887
(dp8888
g13
(I200
I0
tp8889
sg15
(I0
I1000
tp8890
ss(g67
g112
tp8891
(dp8892
g13
(I134
I200
tp8893
sg15
(I732
I402
tp8894
ss(g459
g40
tp8895
(dp8896
g13
(I200
I200
tp8897
sg15
(I600
I600
tp8898
ss(g207
g434
tp8899
(dp8900
g13
(I200
I200
tp8901
sg15
(I600
I600
tp8902
ss(g208
g303
tp8903
(dp8904
g13
(I200
I0
tp8905
sg15
(I0
I1000
tp8906
ss(g123
g400
tp8907
(dp8908
g13
(I200
I200
tp8909
sg15
(I600
I600
tp8910
ss(g265
g283
tp8911
(dp8912
g13
(I168
I31
tp8913
sg15
(I141
I826
tp8914
ss(g434
g29
tp8915
(dp8916
g13
(I191
I199
tp8917
sg15
(I615
I575
tp8918
ss(g147
g303
tp8919
(dp8920
g13
(I200
I0
tp8921
sg15
(I0
I1000
tp8922
ss(g434
g241
tp8923
(dp8924
g13
(I200
I200
tp8925
sg15
(I600
I600
tp8926
ss(g112
g89
tp8927
(dp8928
g13
(I200
I200
tp8929
sg15
(I600
I600
tp8930
ss(g117
g111
tp8931
(dp8932
g13
(I198
I198
tp8933
sg15
(I597
I597
tp8934
ss(g371
g193
tp8935
(dp8936
g13
(I200
I0
tp8937
sg15
(I0
I1000
tp8938
ss(g118
g29
tp8939
(dp8940
g13
(I200
I199
tp8941
sg15
(I597
I602
tp8942
ss(g308
g504
tp8943
(dp8944
g13
(I200
I200
tp8945
sg15
(I600
I600
tp8946
ss(g434
g321
tp8947
(dp8948
g13
(I200
I0
tp8949
sg15
(I0
I1000
tp8950
ss(g265
g232
tp8951
(dp8952
g13
(I199
I0
tp8953
sg15
(I1
I996
tp8954
ss(g293
g303
tp8955
(dp8956
g13
(I199
I0
tp8957
sg15
(I1
I996
tp8958
ss(g283
g346
tp8959
(dp8960
g13
(I200
I200
tp8961
sg15
(I600
I600
tp8962
ss(g207
g232
tp8963
(dp8964
g13
(I10
I0
tp8965
sg15
(I190
I240
tp8966
ss(g217
g207
tp8967
(dp8968
g13
(I150
I10
tp8969
sg15
(I82
I782
tp8970
ss(g400
g62
tp8971
(dp8972
g13
(I200
I200
tp8973
sg15
(I600
I600
tp8974
ss(g371
g79
tp8975
(dp8976
g13
(I200
I200
tp8977
sg15
(I600
I600
tp8978
ss(g79
g79
tp8979
(dp8980
g13
(I200
I200
tp8981
sg15
(I600
I600
tp8982
ss(g17
g429
tp8983
(dp8984
g13
(I4
I199
tp8985
sg15
(I989
I14
tp8986
ss(g28
g429
tp8987
(dp8988
g13
(I123
I168
tp8989
sg15
(I650
I425
tp8990
ss(g132
g293
tp8991
(dp8992
g13
(I67
I67
tp8993
sg15
(I401
I401
tp8994
ss(g84
g152
tp8995
(dp8996
g13
(I200
I200
tp8997
sg15
(I600
I600
tp8998
ss(g232
g504
tp8999
(dp9000
g13
(I0
I1
tp9001
sg15
(I204
I199
tp9002
ss(g132
g504
tp9003
(dp9004
g13
(I200
I200
tp9005
sg15
(I600
I600
tp9006
ss(g23
g270
tp9007
(dp9008
g13
(I187
I187
tp9009
sg15
(I587
I587
tp9010
ss(g137
g557
tp9011
(dp9012
g13
(I100
I11
tp9013
sg15
(I138
I583
tp9014
ss(g74
g293
tp9015
(dp9016
g13
(I198
I197
tp9017
sg15
(I593
I598
tp9018
ss(g255
g270
tp9019
(dp9020
g13
(I1
I0
tp9021
sg15
(I199
I204
tp9022
ss(g246
g270
tp9023
(dp9024
g13
(I200
I200
tp9025
sg15
(I600
I600
tp9026
ss(g51
g45
tp9027
(dp9028
g13
(I100
I100
tp9029
sg15
(I500
I500
tp9030
ss(g18
g34
tp9031
(dp9032
g13
(I24
I167
tp9033
sg15
(I824
I109
tp9034
ss(g67
g208
tp9035
(dp9036
g13
(I134
I12
tp9037
sg15
(I112
I722
tp9038
ss(g147
g74
tp9039
(dp9040
g13
(I200
I2
tp9041
sg15
(I6
I996
tp9042
ss(g74
g227
tp9043
(dp9044
g13
(I2
I200
tp9045
sg15
(I996
I6
tp9046
ss(g132
g62
tp9047
(dp9048
g13
(I200
I200
tp9049
sg15
(I600
I600
tp9050
ss(g246
g74
tp9051
(dp9052
g13
(I200
I2
tp9053
sg15
(I6
I996
tp9054
ss(g112
g303
tp9055
(dp9056
g13
(I200
I0
tp9057
sg15
(I0
I1000
tp9058
ss(g106
g10
tp9059
(dp9060
g13
(I200
I0
tp9061
sg15
(I0
I1000
tp9062
ss(g67
g232
tp9063
(dp9064
g13
(I134
I0
tp9065
sg15
(I66
I736
tp9066
ss(g123
g142
tp9067
(dp9068
g13
(I200
I200
tp9069
sg15
(I600
I600
tp9070
ss(g232
g117
tp9071
(dp9072
g13
(I0
I199
tp9073
sg15
(I996
I1
tp9074
ss(g118
g74
tp9075
(dp9076
g13
(I2
I2
tp9077
sg15
(I206
I206
tp9078
ss(g132
g265
tp9079
(dp9080
g13
(I133
I66
tp9081
sg15
(I265
I600
tp9082
ss(g132
g123
tp9083
(dp9084
g13
(I200
I200
tp9085
sg15
(I600
I600
tp9086
ss(g100
g371
tp9087
(dp9088
g13
(I1
I200
tp9089
sg15
(I998
I3
tp9090
ss(g303
g321
tp9091
(dp9092
g13
(I0
I200
tp9093
sg15
(I1000
I0
tp9094
ss(g147
g79
tp9095
(dp9096
g13
(I184
I176
tp9097
sg15
(I559
I599
tp9098
ss(g217
g298
tp9099
(dp9100
g13
(I150
I200
tp9101
sg15
(I700
I450
tp9102
ss(g132
g260
tp9103
(dp9104
g13
(I100
I0
tp9105
sg15
(I100
I600
tp9106
ss(g29
g321
tp9107
(dp9108
g13
(I200
I0
tp9109
sg15
(I0
I1000
tp9110
ss(g192
g9
tp9111
(dp9112
g13
(I2
I1
tp9113
sg15
(I202
I207
tp9114
ss(g74
g260
tp9115
(dp9116
g13
(I66
I65
tp9117
sg15
(I362
I367
tp9118
ss(g9
g171
tp9119
(dp9120
g13
(I8
I103
tp9121
sg15
(I602
I127
tp9122
ss(g222
g429
tp9123
(dp9124
g13
(I120
I171
tp9125
sg15
(I668
I413
tp9126
ss(g137
g293
tp9127
(dp9128
g13
(I100
I100
tp9129
sg15
(I500
I500
tp9130
ss(g152
g62
tp9131
(dp9132
g13
(I200
I200
tp9133
sg15
(I600
I600
tp9134
ss(g192
g293
tp9135
(dp9136
g13
(I199
I198
tp9137
sg15
(I595
I600
tp9138
ss(g123
g40
tp9139
(dp9140
g13
(I200
I200
tp9141
sg15
(I600
I600
tp9142
ss(g73
g166
tp9143
(dp9144
g13
(I192
I9
tp9145
sg15
(I42
I957
tp9146
ss(g288
g288
tp9147
(dp9148
g13
(I200
I200
tp9149
sg15
(I600
I600
tp9150
ss(g74
g101
tp9151
(dp9152
g13
(I198
I198
tp9153
sg15
(I597
I597
tp9154
ss(g74
g303
tp9155
(dp9156
g13
(I199
I0
tp9157
sg15
(I1
I996
tp9158
ss(g29
g459
tp9159
(dp9160
g13
(I199
I199
tp9161
sg15
(I599
I599
tp9162
ss(g9
g270
tp9163
(dp9164
g13
(I200
I200
tp9165
sg15
(I600
I600
tp9166
ss(g100
g152
tp9167
(dp9168
g13
(I120
I80
tp9169
sg15
(I360
I560
tp9170
ss(g217
g123
tp9171
(dp9172
g13
(I150
I16
tp9173
sg15
(I111
I781
tp9174
ss(g117
g166
tp9175
(dp9176
g13
(I0
I200
tp9177
sg15
(I1000
I0
tp9178
ss(g34
g112
tp9179
(dp9180
g13
(I167
I200
tp9181
sg15
(I666
I501
tp9182
ss(g246
g288
tp9183
(dp9184
g13
(I200
I200
tp9185
sg15
(I600
I600
tp9186
ss(g23
g9
tp9187
(dp9188
g13
(I182
I49
tp9189
sg15
(I172
I837
tp9190
ss(g100
g429
tp9191
(dp9192
g13
(I2
I199
tp9193
sg15
(I992
I7
tp9194
ss(g217
g45
tp9195
(dp9196
g13
(I150
I1
tp9197
sg15
(I53
I798
tp9198
ss(g100
g298
tp9199
(dp9200
g13
(I97
I103
tp9201
sg15
(I482
I452
tp9202
ss(g298
g46
tp9203
(dp9204
g13
(I200
I200
tp9205
sg15
(I600
I600
tp9206
ss(g100
g46
tp9207
(dp9208
g13
(I164
I36
tp9209
sg15
(I162
I802
tp9210
ss(g132
g10
tp9211
(dp9212
g13
(I200
I0
tp9213
sg15
(I0
I1000
tp9214
ss(g288
g283
tp9215
(dp9216
g13
(I200
I200
tp9217
sg15
(I600
I600
tp9218
ss(g123
g222
tp9219
(dp9220
g13
(I200
I200
tp9221
sg15
(I600
I600
tp9222
ss(g67
g84
tp9223
(dp9224
g13
(I134
I10
tp9225
sg15
(I99
I719
tp9226
ss(g29
g270
tp9227
(dp9228
g13
(I0
I0
tp9229
sg15
(I200
I200
tp9230
ss(g84
g118
tp9231
(dp9232
g13
(I200
I200
tp9233
sg15
(I600
I600
tp9234
ss(g293
g62
tp9235
(dp9236
g13
(I67
I67
tp9237
sg15
(I401
I401
tp9238
ss(g241
g35
tp9239
(dp9240
g13
(I200
I200
tp9241
sg15
(I600
I600
tp9242
ss(g147
g123
tp9243
(dp9244
g13
(I198
I186
tp9245
sg15
(I561
I621
tp9246
ss(g100
g192
tp9247
(dp9248
g13
(I100
I100
tp9249
sg15
(I450
I450
tp9250
ss(g34
g40
tp9251
(dp9252
g13
(I200
I200
tp9253
sg15
(I600
I600
tp9254
ss(g18
g40
tp9255
(dp9256
g13
(I200
I200
tp9257
sg15
(I600
I600
tp9258
ss(g241
g303
tp9259
(dp9260
g13
(I200
I0
tp9261
sg15
(I0
I1000
tp9262
ss(g68
g557
tp9263
(dp9264
g13
(I199
I200
tp9265
sg15
(I602
I597
tp9266
ss(g346
g171
tp9267
(dp9268
g13
(I189
I192
tp9269
sg15
(I593
I578
tp9270
ss(g10
g193
tp9271
(dp9272
g13
(I200
I200
tp9273
sg15
(I600
I600
tp9274
ss(g18
g241
tp9275
(dp9276
g13
(I198
I199
tp9277
sg15
(I600
I595
tp9278
ss(g68
g303
tp9279
(dp9280
g13
(I199
I0
tp9281
sg15
(I1
I996
tp9282
ss(g100
g434
tp9283
(dp9284
g13
(I180
I20
tp9285
sg15
(I90
I890
tp9286
ss(g51
g459
tp9287
(dp9288
g13
(I200
I199
tp9289
sg15
(I597
I602
tp9290
ss(g142
g142
tp9291
(dp9292
g13
(I200
I200
tp9293
sg15
(I600
I600
tp9294
ss(g132
g90
tp9295
(dp9296
g13
(I7
I197
tp9297
sg15
(I976
I26
tp9298
ss(g288
g89
tp9299
(dp9300
g13
(I200
I200
tp9301
sg15
(I600
I600
tp9302
ss(g101
g101
tp9303
(dp9304
g13
(I200
I200
tp9305
sg15
(I600
I600
tp9306
ss(g74
g142
tp9307
(dp9308
g13
(I2
I1
tp9309
sg15
(I202
I207
tp9310
ss(g137
g137
tp9311
(dp9312
g13
(I100
I100
tp9313
sg15
(I400
I400
tp9314
ss(g166
g35
tp9315
(dp9316
g13
(I200
I200
tp9317
sg15
(I600
I600
tp9318
ss(g217
g29
tp9319
(dp9320
g13
(I150
I199
tp9321
sg15
(I697
I452
tp9322
ss(g67
g166
tp9323
(dp9324
g13
(I134
I29
tp9325
sg15
(I163
I688
tp9326
ss(g46
g40
tp9327
(dp9328
g13
(I200
I200
tp9329
sg15
(I600
I600
tp9330
ss(g62
g40
tp9331
(dp9332
g13
(I200
I200
tp9333
sg15
(I600
I600
tp9334
ss(g157
g101
tp9335
(dp9336
g13
(I200
I200
tp9337
sg15
(I600
I600
tp9338
ss(g100
g84
tp9339
(dp9340
g13
(I31
I170
tp9341
sg15
(I838
I143
tp9342
ss(g232
g346
tp9343
(dp9344
g13
(I0
I2
tp9345
sg15
(I208
I198
tp9346
ss(g157
g810
tp9347
(dp9348
g13
(I200
I200
tp9349
sg15
(I600
I600
tp9350
ss(g283
g192
tp9351
(dp9352
g13
(I10
I11
tp9353
sg15
(I234
I229
tp9354
ss(g265
g293
tp9355
(dp9356
g13
(I100
I100
tp9357
sg15
(I450
I450
tp9358
ss(g265
g346
tp9359
(dp9360
g13
(I155
I44
tp9361
sg15
(I207
I762
tp9362
ss(g46
g321
tp9363
(dp9364
g13
(I200
I0
tp9365
sg15
(I0
I1000
tp9366
ss(g18
g117
tp9367
(dp9368
g13
(I4
I195
tp9369
sg15
(I976
I21
tp9370
ss(g810
g321
tp9371
(dp9372
g13
(I200
I0
tp9373
sg15
(I0
I1000
tp9374
ss(g288
g270
tp9375
(dp9376
g13
(I200
I200
tp9377
sg15
(I600
I600
tp9378
ss(g9
g46
tp9379
(dp9380
g13
(I200
I200
tp9381
sg15
(I600
I600
tp9382
ss(g217
g73
tp9383
(dp9384
g13
(I150
I96
tp9385
sg15
(I350
I620
tp9386
ss(g434
g303
tp9387
(dp9388
g13
(I200
I0
tp9389
sg15
(I0
I1000
tp9390
ss(g166
g9
tp9391
(dp9392
g13
(I200
I200
tp9393
sg15
(I600
I600
tp9394
ss(g293
g429
tp9395
(dp9396
g13
(I146
I146
tp9397
sg15
(I539
I539
tp9398
ss(g157
g321
tp9399
(dp9400
g13
(I200
I0
tp9401
sg15
(I0
I1000
tp9402
ss(g95
g74
tp9403
(dp9404
g13
(I200
I2
tp9405
sg15
(I6
I996
tp9406
ss(g810
g29
tp9407
(dp9408
g13
(I199
I199
tp9409
sg15
(I599
I599
tp9410
ss(g308
g56
tp9411
(dp9412
g13
(I200
I0
tp9413
sg15
(I0
I1000
tp9414
ss(g45
g255
tp9415
(dp9416
g13
(I1
I2
tp9417
sg15
(I206
I201
tp9418
ss(g9
g260
tp9419
(dp9420
g13
(I16
I168
tp9421
sg15
(I848
I88
tp9422
ss(g288
g171
tp9423
(dp9424
g13
(I196
I195
tp9425
sg15
(I592
I597
tp9426
ss(g810
g9
tp9427
(dp9428
g13
(I200
I200
tp9429
sg15
(I600
I600
tp9430
ss(g283
g45
tp9431
(dp9432
g13
(I10
I10
tp9433
sg15
(I230
I230
tp9434
ss(g18
g208
tp9435
(dp9436
g13
(I198
I199
tp9437
sg15
(I600
I595
tp9438
ss(g207
g74
tp9439
(dp9440
g13
(I10
I2
tp9441
sg15
(I196
I236
tp9442
ss(g95
g166
tp9443
(dp9444
g13
(I200
I200
tp9445
sg15
(I600
I600
tp9446
ss(g434
g429
tp9447
(dp9448
g13
(I105
I180
tp9449
sg15
(I728
I353
tp9450
ss(g504
g62
tp9451
(dp9452
g13
(I200
I200
tp9453
sg15
(I600
I600
tp9454
ss(g270
g56
tp9455
(dp9456
g13
(I200
I0
tp9457
sg15
(I0
I1000
tp9458
ss(g17
g400
tp9459
(dp9460
g13
(I0
I2
tp9461
sg15
(I208
I198
tp9462
ss(g434
g51
tp9463
(dp9464
g13
(I200
I200
tp9465
sg15
(I600
I600
tp9466
ss(g18
g46
tp9467
(dp9468
g13
(I198
I199
tp9469
sg15
(I600
I595
tp9470
ss(g265
g147
tp9471
(dp9472
g13
(I0
I200
tp9473
sg15
(I1000
I0
tp9474
ss(g166
g56
tp9475
(dp9476
g13
(I200
I0
tp9477
sg15
(I0
I1000
tp9478
ss(g67
g371
tp9479
(dp9480
g13
(I134
I200
tp9481
sg15
(I732
I402
tp9482
ss(g308
g9
tp9483
(dp9484
g13
(I200
I200
tp9485
sg15
(I600
I600
tp9486
ss(g23
g101
tp9487
(dp9488
g13
(I182
I56
tp9489
sg15
(I194
I824
tp9490
ss(g265
g112
tp9491
(dp9492
g13
(I93
I107
tp9493
sg15
(I504
I434
tp9494
ss(g18
g106
tp9495
(dp9496
g13
(I198
I200
tp9497
sg15
(I604
I594
tp9498
ss(g222
g504
tp9499
(dp9500
g13
(I200
I200
tp9501
sg15
(I600
I600
tp9502
ss(g293
g270
tp9503
(dp9504
g13
(I0
I0
tp9505
sg15
(I200
I200
tp9506
ss(g132
g283
tp9507
(dp9508
g13
(I200
I200
tp9509
sg15
(I600
I600
tp9510
ss(g17
g198
tp9511
(dp9512
g13
(I14
I25
tp9513
sg15
(I273
I218
tp9514
ss(g46
g62
tp9515
(dp9516
g13
(I200
I200
tp9517
sg15
(I600
I600
tp9518
ss(g207
g45
tp9519
(dp9520
g13
(I10
I1
tp9521
sg15
(I193
I238
tp9522
ss(g346
g400
tp9523
(dp9524
g13
(I200
I200
tp9525
sg15
(I600
I600
tp9526
ss(g51
g10
tp9527
(dp9528
g13
(I200
I0
tp9529
sg15
(I0
I1000
tp9530
ss(g232
g9
tp9531
(dp9532
g13
(I0
I1
tp9533
sg15
(I204
I199
tp9534
ss(g79
g192
tp9535
(dp9536
g13
(I15
I2
tp9537
sg15
(I191
I256
tp9538
ss(g123
g227
tp9539
(dp9540
g13
(I92
I183
tp9541
sg15
(I757
I302
tp9542
ss(g29
g303
tp9543
(dp9544
g13
(I199
I0
tp9545
sg15
(I1
I996
tp9546
ss(g504
g35
tp9547
(dp9548
g13
(I200
I200
tp9549
sg15
(I600
I600
tp9550
ss(g232
g29
tp9551
(dp9552
g13
(I0
I0
tp9553
sg15
(I200
I200
tp9554
ss(g84
g303
tp9555
(dp9556
g13
(I200
I0
tp9557
sg15
(I0
I1000
tp9558
ss(g371
g293
tp9559
(dp9560
g13
(I200
I199
tp9561
sg15
(I597
I602
tp9562
ss(g117
g255
tp9563
(dp9564
g13
(I199
I199
tp9565
sg15
(I598
I598
tp9566
ss(g68
g255
tp9567
(dp9568
g13
(I199
I199
tp9569
sg15
(I598
I598
tp9570
ss(g79
g283
tp9571
(dp9572
g13
(I200
I200
tp9573
sg15
(I600
I600
tp9574
ss(g45
g321
tp9575
(dp9576
g13
(I200
I0
tp9577
sg15
(I0
I1000
tp9578
ss(g137
g100
tp9579
(dp9580
g13
(I100
I100
tp9581
sg15
(I400
I400
tp9582
ss(g142
g293
tp9583
(dp9584
g13
(I1
I1
tp9585
sg15
(I203
I203
tp9586
ss(g371
g9
tp9587
(dp9588
g13
(I200
I200
tp9589
sg15
(I600
I600
tp9590
ss(g23
g84
tp9591
(dp9592
g13
(I182
I182
tp9593
sg15
(I577
I577
tp9594
ss(g111
g62
tp9595
(dp9596
g13
(I200
I200
tp9597
sg15
(I600
I600
tp9598
ss(g89
g504
tp9599
(dp9600
g13
(I200
I200
tp9601
sg15
(I600
I600
tp9602
ss(g207
g400
tp9603
(dp9604
g13
(I200
I200
tp9605
sg15
(I600
I600
tp9606
ss(g283
g255
tp9607
(dp9608
g13
(I10
I11
tp9609
sg15
(I234
I229
tp9610
ss(g28
g400
tp9611
(dp9612
g13
(I200
I200
tp9613
sg15
(I600
I600
tp9614
ss(g434
g434
tp9615
(dp9616
g13
(I200
I200
tp9617
sg15
(I600
I600
tp9618
ss(g142
g35
tp9619
(dp9620
g13
(I200
I200
tp9621
sg15
(I600
I600
tp9622
ss(g29
g56
tp9623
(dp9624
g13
(I200
I0
tp9625
sg15
(I0
I1000
tp9626
ss(g51
g152
tp9627
(dp9628
g13
(I200
I200
tp9629
sg15
(I600
I600
tp9630
ss(g67
g222
tp9631
(dp9632
g13
(I134
I46
tp9633
sg15
(I226
I666
tp9634
ss(g192
g198
tp9635
(dp9636
g13
(I2
I16
tp9637
sg15
(I260
I190
tp9638
ss(g67
g9
tp9639
(dp9640
g13
(I134
I9
tp9641
sg15
(I100
I725
tp9642
ss(g73
g45
tp9643
(dp9644
g13
(I199
I1
tp9645
sg15
(I4
I994
tp9646
ss(g147
g557
tp9647
(dp9648
g13
(I192
I193
tp9649
sg15
(I594
I589
tp9650
ss(g56
g56
tp9651
(dp9652
g13
(I200
I0
tp9653
sg15
(I0
I1000
tp9654
ss(g192
g504
tp9655
(dp9656
g13
(I199
I199
tp9657
sg15
(I599
I599
tp9658
ss(g28
g68
tp9659
(dp9660
g13
(I1
I2
tp9661
sg15
(I207
I202
tp9662
ss(g288
g123
tp9663
(dp9664
g13
(I200
I200
tp9665
sg15
(I600
I600
tp9666
ss(g810
g400
tp9667
(dp9668
g13
(I200
I200
tp9669
sg15
(I600
I600
tp9670
ss(g232
g227
tp9671
(dp9672
g13
(I0
I200
tp9673
sg15
(I1000
I0
tp9674
ss(g51
g46
tp9675
(dp9676
g13
(I200
I200
tp9677
sg15
(I600
I600
tp9678
ss(g100
g28
tp9679
(dp9680
g13
(I133
I68
tp9681
sg15
(I305
I630
tp9682
ss(g100
g117
tp9683
(dp9684
g13
(I200
I0
tp9685
sg15
(I0
I1000
tp9686
ss(g157
g270
tp9687
(dp9688
g13
(I200
I200
tp9689
sg15
(I600
I600
tp9690
ss(g208
g9
tp9691
(dp9692
g13
(I200
I200
tp9693
sg15
(I600
I600
tp9694
ss(g18
g84
tp9695
(dp9696
g13
(I198
I199
tp9697
sg15
(I600
I595
tp9698
ss(g232
g371
tp9699
(dp9700
g13
(I0
I4
tp9701
sg15
(I216
I196
tp9702
ss(g132
g371
tp9703
(dp9704
g13
(I200
I200
tp9705
sg15
(I600
I600
tp9706
ss(g29
g9
tp9707
(dp9708
g13
(I199
I180
tp9709
sg15
(I542
I637
tp9710
ss(g34
g101
tp9711
(dp9712
g13
(I167
I16
tp9713
sg15
(I92
I847
tp9714
ss(g117
g283
tp9715
(dp9716
g13
(I198
I189
tp9717
sg15
(I570
I615
tp9718
ss(g100
g157
tp9719
(dp9720
g13
(I168
I32
tp9721
sg15
(I144
I824
tp9722
ss(g132
g73
tp9723
(dp9724
g13
(I4
I197
tp9725
sg15
(I982
I17
tp9726
ss(g137
g429
tp9727
(dp9728
g13
(I100
I191
tp9729
sg15
(I764
I309
tp9730
ss(g67
g283
tp9731
(dp9732
g13
(I134
I16
tp9733
sg15
(I128
I718
tp9734
ss(g208
g321
tp9735
(dp9736
g13
(I200
I0
tp9737
sg15
(I0
I1000
tp9738
ss(g166
g10
tp9739
(dp9740
g13
(I200
I0
tp9741
sg15
(I0
I1000
tp9742
ss(g106
g504
tp9743
(dp9744
g13
(I200
I200
tp9745
sg15
(I600
I600
tp9746
ss(g111
g10
tp9747
(dp9748
g13
(I200
I0
tp9749
sg15
(I0
I1000
tp9750
ss(g265
g288
tp9751
(dp9752
g13
(I99
I100
tp9753
sg15
(I468
I463
tp9754
ss(g265
g400
tp9755
(dp9756
g13
(I80
I120
tp9757
sg15
(I560
I360
tp9758
ss(g100
g303
tp9759
(dp9760
g13
(I200
I0
tp9761
sg15
(I0
I1000
tp9762
ss(g51
g142
tp9763
(dp9764
g13
(I200
I200
tp9765
sg15
(I600
I600
tp9766
ss(g241
g40
tp9767
(dp9768
g13
(I200
I200
tp9769
sg15
(I600
I600
tp9770
ss(g62
g35
tp9771
(dp9772
g13
(I200
I200
tp9773
sg15
(I600
I600
tp9774
ss(g346
g9
tp9775
(dp9776
g13
(I200
I200
tp9777
sg15
(I600
I600
tp9778
ss(g232
g152
tp9779
(dp9780
g13
(I0
I1
tp9781
sg15
(I204
I199
tp9782
ss(g95
g89
tp9783
(dp9784
g13
(I200
I200
tp9785
sg15
(I600
I600
tp9786
ss(g147
g283
tp9787
(dp9788
g13
(I198
I189
tp9789
sg15
(I570
I615
tp9790
ss(g298
g298
tp9791
(dp9792
g13
(I200
I200
tp9793
sg15
(I600
I600
tp9794
ss(g89
g198
tp9795
(dp9796
g13
(I200
I200
tp9797
sg15
(I600
I600
tp9798
ss(g142
g308
tp9799
(dp9800
g13
(I200
I200
tp9801
sg15
(I600
I600
tp9802
ss(g265
g10
tp9803
(dp9804
g13
(I200
I0
tp9805
sg15
(I0
I1000
tp9806
ss(g51
g56
tp9807
(dp9808
g13
(I200
I0
tp9809
sg15
(I0
I1000
tp9810
ss(g434
g459
tp9811
(dp9812
g13
(I200
I199
tp9813
sg15
(I597
I602
tp9814
ss(g217
g232
tp9815
(dp9816
g13
(I150
I0
tp9817
sg15
(I50
I800
tp9818
ss(g79
g346
tp9819
(dp9820
g13
(I200
I200
tp9821
sg15
(I600
I600
tp9822
ss(g232
g298
tp9823
(dp9824
g13
(I0
I1
tp9825
sg15
(I204
I199
tp9826
ss(g222
g255
tp9827
(dp9828
g13
(I1
I2
tp9829
sg15
(I207
I202
tp9830
ss(g73
g9
tp9831
(dp9832
g13
(I186
I56
tp9833
sg15
(I189
I839
tp9834
ss(g46
g303
tp9835
(dp9836
g13
(I200
I0
tp9837
sg15
(I0
I1000
tp9838
ss(g371
g400
tp9839
(dp9840
g13
(I200
I200
tp9841
sg15
(I600
I600
tp9842
ss(g95
g283
tp9843
(dp9844
g13
(I200
I200
tp9845
sg15
(I600
I600
tp9846
ss(g207
g270
tp9847
(dp9848
g13
(I200
I200
tp9849
sg15
(I600
I600
tp9850
ss(g73
g504
tp9851
(dp9852
g13
(I123
I123
tp9853
sg15
(I493
I493
tp9854
ss(g84
g111
tp9855
(dp9856
g13
(I200
I200
tp9857
sg15
(I600
I600
tp9858
ss(g283
g308
tp9859
(dp9860
g13
(I200
I200
tp9861
sg15
(I600
I600
tp9862
ss(g67
g193
tp9863
(dp9864
g13
(I200
I0
tp9865
sg15
(I0
I1000
tp9866
ss(g17
g810
tp9867
(dp9868
g13
(I0
I1
tp9869
sg15
(I204
I199
tp9870
ss(g68
g142
tp9871
(dp9872
g13
(I2
I1
tp9873
sg15
(I202
I207
tp9874
ss(g61
g288
tp9875
(dp9876
g13
(I198
I200
tp9877
sg15
(I604
I594
tp9878
ss(g28
g166
tp9879
(dp9880
g13
(I200
I200
tp9881
sg15
(I600
I600
tp9882
ss(g106
g9
tp9883
(dp9884
g13
(I200
I200
tp9885
sg15
(I600
I600
tp9886
ss(g79
g35
tp9887
(dp9888
g13
(I200
I200
tp9889
sg15
(I600
I600
tp9890
ss(g217
g504
tp9891
(dp9892
g13
(I150
I151
tp9893
sg15
(I553
I548
tp9894
ss(g79
g255
tp9895
(dp9896
g13
(I200
I100
tp9897
sg15
(I300
I800
tp9898
ss(g67
g171
tp9899
(dp9900
g13
(I134
I133
tp9901
sg15
(I530
I535
tp9902
ss(g111
g152
tp9903
(dp9904
g13
(I200
I200
tp9905
sg15
(I600
I600
tp9906
ss(g157
g346
tp9907
(dp9908
g13
(I200
I200
tp9909
sg15
(I600
I600
tp9910
ss(g222
g459
tp9911
(dp9912
g13
(I200
I199
tp9913
sg15
(I597
I602
tp9914
ss(g95
g40
tp9915
(dp9916
g13
(I200
I200
tp9917
sg15
(I600
I600
tp9918
ss(g95
g265
tp9919
(dp9920
g13
(I200
I0
tp9921
sg15
(I0
I1000
tp9922
ss(g810
g171
tp9923
(dp9924
g13
(I196
I195
tp9925
sg15
(I592
I597
tp9926
ss(g459
g193
tp9927
(dp9928
g13
(I200
I0
tp9929
sg15
(I0
I1000
tp9930
ss(g232
g84
tp9931
(dp9932
g13
(I0
I10
tp9933
sg15
(I240
I190
tp9934
ss(g118
g68
tp9935
(dp9936
g13
(I200
I199
tp9937
sg15
(I597
I602
tp9938
ss(g46
g293
tp9939
(dp9940
g13
(I2
I2
tp9941
sg15
(I206
I206
tp9942
ss(g208
g46
tp9943
(dp9944
g13
(I200
I200
tp9945
sg15
(I600
I600
tp9946
ss(g147
g371
tp9947
(dp9948
g13
(I4
I200
tp9949
sg15
(I992
I12
tp9950
ss(g95
g810
tp9951
(dp9952
g13
(I200
I200
tp9953
sg15
(I600
I600
tp9954
ss(g288
g45
tp9955
(dp9956
g13
(I100
I100
tp9957
sg15
(I500
I500
tp9958
ss(g28
g293
tp9959
(dp9960
g13
(I1
I1
tp9961
sg15
(I203
I203
tp9962
ss(g246
g557
tp9963
(dp9964
g13
(I200
I200
tp9965
sg15
(I600
I600
tp9966
ss(g208
g255
tp9967
(dp9968
g13
(I10
I11
tp9969
sg15
(I234
I229
tp9970
ss(g371
g84
tp9971
(dp9972
g13
(I200
I200
tp9973
sg15
(I600
I600
tp9974
ss(g260
g198
tp9975
(dp9976
g13
(I188
I7
tp9977
sg15
(I39
I944
tp9978
ss(g101
g62
tp9979
(dp9980
g13
(I200
I200
tp9981
sg15
(I600
I600
tp9982
ss(g298
g504
tp9983
(dp9984
g13
(I200
I200
tp9985
sg15
(I600
I600
tp9986
ss(g34
g89
tp9987
(dp9988
g13
(I167
I200
tp9989
sg15
(I666
I501
tp9990
ss(g17
g90
tp9991
(dp9992
g13
(I5
I199
tp9993
sg15
(I987
I17
tp9994
ss(g23
g67
tp9995
(dp9996
g13
(I182
I134
tp9997
sg15
(I432
I672
tp9998
ss(g73
g28
tp9999
(dp10000
g13
(I152
I95
tp10001
sg15
(I363
I648
tp10002
ss(g28
g35
tp10003
(dp10004
g13
(I200
I200
tp10005
sg15
(I600
I600
tp10006
ss(g84
g10
tp10007
(dp10008
g13
(I200
I0
tp10009
sg15
(I0
I1000
tp10010
ss(g90
g68
tp10011
(dp10012
g13
(I152
I151
tp10013
sg15
(I549
I554
tp10014
ss(g283
g260
tp10015
(dp10016
g13
(I27
I144
tp10017
sg15
(I736
I151
tp10018
ss(g23
g147
tp10019
(dp10020
g13
(I182
I200
tp10021
sg15
(I636
I546
tp10022
ss(g51
g260
tp10023
(dp10024
g13
(I80
I80
tp10025
sg15
(I420
I420
tp10026
ss(g123
g504
tp10027
(dp10028
g13
(I200
I200
tp10029
sg15
(I600
I600
tp10030
ss(g10
g40
tp10031
(dp10032
g13
(I200
I200
tp10033
sg15
(I600
I600
tp10034
ss(g207
g56
tp10035
(dp10036
g13
(I200
I0
tp10037
sg15
(I0
I1000
tp10038
ss(g246
g51
tp10039
(dp10040
g13
(I200
I200
tp10041
sg15
(I600
I600
tp10042
ss(g61
g61
tp10043
(dp10044
g13
(I198
I198
tp10045
sg15
(I596
I596
tp10046
ss(g504
g198
tp10047
(dp10048
g13
(I200
I200
tp10049
sg15
(I600
I600
tp10050
ss(g434
g111
tp10051
(dp10052
g13
(I200
I200
tp10053
sg15
(I600
I600
tp10054
ss(g84
g35
tp10055
(dp10056
g13
(I200
I200
tp10057
sg15
(I600
I600
tp10058
ss(g241
g68
tp10059
(dp10060
g13
(I1
I2
tp10061
sg15
(I207
I202
tp10062
ss(g18
g18
tp10063
(dp10064
g13
(I198
I198
tp10065
sg15
(I596
I596
tp10066
ss(g29
g192
tp10067
(dp10068
g13
(I198
I199
tp10069
sg15
(I600
I595
tp10070
ss(g504
g56
tp10071
(dp10072
g13
(I200
I0
tp10073
sg15
(I0
I1000
tp10074
ss(g123
g557
tp10075
(dp10076
g13
(I200
I200
tp10077
sg15
(I600
I600
tp10078
ss(g100
g270
tp10079
(dp10080
g13
(I100
I100
tp10081
sg15
(I400
I400
tp10082
ss(g106
g346
tp10083
(dp10084
g13
(I200
I200
tp10085
sg15
(I600
I600
tp10086
ss(g232
g101
tp10087
(dp10088
g13
(I0
I1
tp10089
sg15
(I204
I199
tp10090
ss(g557
g504
tp10091
(dp10092
g13
(I200
I200
tp10093
sg15
(I600
I600
tp10094
ss(g68
g400
tp10095
(dp10096
g13
(I199
I200
tp10097
sg15
(I602
I597
tp10098
ss(g308
g227
tp10099
(dp10100
g13
(I92
I183
tp10101
sg15
(I757
I302
tp10102
ss(g171
g255
tp10103
(dp10104
g13
(I199
I198
tp10105
sg15
(I596
I601
tp10106
ss(g101
g270
tp10107
(dp10108
g13
(I200
I200
tp10109
sg15
(I600
I600
tp10110
ss(g118
g288
tp10111
(dp10112
g13
(I200
I200
tp10113
sg15
(I600
I600
tp10114
ss(g17
g255
tp10115
(dp10116
g13
(I0
I1
tp10117
sg15
(I204
I199
tp10118
ss(g118
g9
tp10119
(dp10120
g13
(I200
I200
tp10121
sg15
(I600
I600
tp10122
ss(g504
g400
tp10123
(dp10124
g13
(I200
I200
tp10125
sg15
(I600
I600
tp10126
ss(g89
g9
tp10127
(dp10128
g13
(I200
I200
tp10129
sg15
(I600
I600
tp10130
ss(g29
g45
tp10131
(dp10132
g13
(I198
I198
tp10133
sg15
(I597
I597
tp10134
ss(g101
g40
tp10135
(dp10136
g13
(I200
I200
tp10137
sg15
(I600
I600
tp10138
ss(g111
g321
tp10139
(dp10140
g13
(I200
I0
tp10141
sg15
(I0
I1000
tp10142
ss(g29
g152
tp10143
(dp10144
g13
(I199
I198
tp10145
sg15
(I596
I601
tp10146
ss(g217
g51
tp10147
(dp10148
g13
(I150
I200
tp10149
sg15
(I700
I450
tp10150
ss(g62
g193
tp10151
(dp10152
g13
(I200
I0
tp10153
sg15
(I0
I1000
tp10154
ss(g246
g35
tp10155
(dp10156
g13
(I200
I200
tp10157
sg15
(I600
I600
tp10158
ss(g67
g504
tp10159
(dp10160
g13
(I134
I134
tp10161
sg15
(I534
I534
tp10162
ss(g152
g321
tp10163
(dp10164
g13
(I200
I0
tp10165
sg15
(I0
I1000
tp10166
ss(g112
g429
tp10167
(dp10168
g13
(I183
I109
tp10169
sg15
(I360
I730
tp10170
ss(g147
g28
tp10171
(dp10172
g13
(I198
I196
tp10173
sg15
(I591
I601
tp10174
ss(g61
g429
tp10175
(dp10176
g13
(I5
I195
tp10177
sg15
(I974
I24
tp10178
ss(g18
g400
tp10179
(dp10180
g13
(I198
I200
tp10181
sg15
(I604
I594
tp10182
ss(g17
g23
tp10183
(dp10184
g13
(I0
I182
tp10185
sg15
(I928
I18
tp10186
ss(g270
g303
tp10187
(dp10188
g13
(I199
I0
tp10189
sg15
(I1
I996
tp10190
ss(g34
g90
tp10191
(dp10192
g13
(I167
I136
tp10193
sg15
(I457
I612
tp10194
ss(g246
g208
tp10195
(dp10196
g13
(I200
I200
tp10197
sg15
(I600
I600
tp10198
ss(g246
g28
tp10199
(dp10200
g13
(I200
I200
tp10201
sg15
(I600
I600
tp10202
ss(g111
g810
tp10203
(dp10204
g13
(I200
I200
tp10205
sg15
(I600
I600
tp10206
ss(g84
g222
tp10207
(dp10208
g13
(I200
I200
tp10209
sg15
(I600
I600
tp10210
ss(g298
g10
tp10211
(dp10212
g13
(I200
I0
tp10213
sg15
(I0
I1000
tp10214
ss(g29
g171
tp10215
(dp10216
g13
(I199
I200
tp10217
sg15
(I602
I597
tp10218
ss(g34
g157
tp10219
(dp10220
g13
(I167
I22
tp10221
sg15
(I116
I841
tp10222
ss(g118
g227
tp10223
(dp10224
g13
(I5
I197
tp10225
sg15
(I980
I20
tp10226
ss(g137
g46
tp10227
(dp10228
g13
(I100
I20
tp10229
sg15
(I179
I579
tp10230
ss(g79
g557
tp10231
(dp10232
g13
(I200
I200
tp10233
sg15
(I600
I600
tp10234
ss(g34
g232
tp10235
(dp10236
g13
(I167
I0
tp10237
sg15
(I33
I868
tp10238
ss(g132
g207
tp10239
(dp10240
g13
(I200
I200
tp10241
sg15
(I600
I600
tp10242
ss(g371
g371
tp10243
(dp10244
g13
(I200
I200
tp10245
sg15
(I600
I600
tp10246
ss(g207
g28
tp10247
(dp10248
g13
(I200
I200
tp10249
sg15
(I600
I600
tp10250
ss(g118
g89
tp10251
(dp10252
g13
(I200
I200
tp10253
sg15
(I600
I600
tp10254
ss(g288
g46
tp10255
(dp10256
g13
(I200
I200
tp10257
sg15
(I600
I600
tp10258
ss(g18
g101
tp10259
(dp10260
g13
(I198
I199
tp10261
sg15
(I600
I595
tp10262
ss(g283
g400
tp10263
(dp10264
g13
(I200
I200
tp10265
sg15
(I600
I600
tp10266
ss(g106
g62
tp10267
(dp10268
g13
(I200
I200
tp10269
sg15
(I600
I600
tp10270
ss(g84
g56
tp10271
(dp10272
g13
(I200
I0
tp10273
sg15
(I0
I1000
tp10274
ss(g207
g61
tp10275
(dp10276
g13
(I199
I198
tp10277
sg15
(I595
I600
tp10278
ss(g95
g504
tp10279
(dp10280
g13
(I200
I200
tp10281
sg15
(I600
I600
tp10282
ss(g217
g208
tp10283
(dp10284
g13
(I150
I18
tp10285
sg15
(I112
I772
tp10286
ss(g198
g35
tp10287
(dp10288
g13
(I200
I200
tp10289
sg15
(I600
I600
tp10290
ss(g117
g227
tp10291
(dp10292
g13
(I0
I200
tp10293
sg15
(I1000
I0
tp10294
ss(g288
g152
tp10295
(dp10296
g13
(I200
I200
tp10297
sg15
(I600
I600
tp10298
ss(g217
g227
tp10299
(dp10300
g13
(I150
I199
tp10301
sg15
(I696
I451
tp10302
ss(g89
g193
tp10303
(dp10304
g13
(I200
I0
tp10305
sg15
(I0
I1000
tp10306
ss(g265
g61
tp10307
(dp10308
g13
(I195
I4
tp10309
sg15
(I21
I976
tp10310
ss(g208
g222
tp10311
(dp10312
g13
(I200
I200
tp10313
sg15
(I600
I600
tp10314
ss(g557
g46
tp10315
(dp10316
g13
(I200
I200
tp10317
sg15
(I600
I600
tp10318
ss(g90
g400
tp10319
(dp10320
g13
(I105
I198
tp10321
sg15
(I783
I318
tp10322
ss(g260
g35
tp10323
(dp10324
g13
(I0
I0
tp10325
sg15
(I200
I200
tp10326
ss(g246
g193
tp10327
(dp10328
g13
(I200
I0
tp10329
sg15
(I0
I1000
tp10330
ss(g79
g62
tp10331
(dp10332
g13
(I200
I200
tp10333
sg15
(I600
I600
tp10334
ss(g95
g67
tp10335
(dp10336
g13
(I200
I134
tp10337
sg15
(I402
I732
tp10338
ss(g246
g67
tp10339
(dp10340
g13
(I8
I134
tp10341
sg15
(I722
I92
tp10342
ss(g217
g35
tp10343
(dp10344
g13
(I150
I150
tp10345
sg15
(I500
I500
tp10346
ss(g117
g557
tp10347
(dp10348
g13
(I0
I200
tp10349
sg15
(I1000
I0
tp10350
ss(g118
g112
tp10351
(dp10352
g13
(I200
I200
tp10353
sg15
(I600
I600
tp10354
ss(g227
g227
tp10355
(dp10356
g13
(I182
I182
tp10357
sg15
(I564
I564
tp10358
ss(g222
g142
tp10359
(dp10360
g13
(I200
I200
tp10361
sg15
(I600
I600
tp10362
ss(g74
g308
tp10363
(dp10364
g13
(I2
I1
tp10365
sg15
(I202
I207
tp10366
ss(g246
g56
tp10367
(dp10368
g13
(I200
I0
tp10369
sg15
(I0
I1000
tp10370
ss(g810
g46
tp10371
(dp10372
g13
(I200
I200
tp10373
sg15
(I600
I600
tp10374
ss(g298
g208
tp10375
(dp10376
g13
(I200
I200
tp10377
sg15
(I600
I600
tp10378
ss(g61
g208
tp10379
(dp10380
g13
(I198
I199
tp10381
sg15
(I600
I595
tp10382
ss(g810
g429
tp10383
(dp10384
g13
(I180
I112
tp10385
sg15
(I372
I712
tp10386
ss(g118
g308
tp10387
(dp10388
g13
(I200
I200
tp10389
sg15
(I600
I600
tp10390
ss(g67
g346
tp10391
(dp10392
g13
(I134
I200
tp10393
sg15
(I732
I402
tp10394
ss(g346
g192
tp10395
(dp10396
g13
(I5
I2
tp10397
sg15
(I201
I216
tp10398
ss(g118
g171
tp10399
(dp10400
g13
(I4
I100
tp10401
sg15
(I594
I114
tp10402
ss(g217
g68
tp10403
(dp10404
g13
(I150
I150
tp10405
sg15
(I550
I550
tp10406
ss(g18
g308
tp10407
(dp10408
g13
(I198
I199
tp10409
sg15
(I600
I595
tp10410
ss(g152
g152
tp10411
(dp10412
g13
(I200
I200
tp10413
sg15
(I600
I600
tp10414
ss(g61
g459
tp10415
(dp10416
g13
(I198
I199
tp10417
sg15
(I600
I595
tp10418
ss(g371
g45
tp10419
(dp10420
g13
(I200
I1
tp10421
sg15
(I3
I998
tp10422
ss(g111
g504
tp10423
(dp10424
g13
(I200
I200
tp10425
sg15
(I600
I600
tp10426
ss(g18
g260
tp10427
(dp10428
g13
(I4
I193
tp10429
sg15
(I968
I23
tp10430
ss(g95
g132
tp10431
(dp10432
g13
(I200
I200
tp10433
sg15
(I600
I600
tp10434
ss(g111
g28
tp10435
(dp10436
g13
(I200
I200
tp10437
sg15
(I600
I600
tp10438
ss(g79
g45
tp10439
(dp10440
g13
(I13
I1
tp10441
sg15
(I190
I250
tp10442
ss(g101
g123
tp10443
(dp10444
g13
(I200
I200
tp10445
sg15
(I600
I600
tp10446
ss(g157
g62
tp10447
(dp10448
g13
(I200
I200
tp10449
sg15
(I600
I600
tp10450
ss(g84
g68
tp10451
(dp10452
g13
(I170
I169
tp10453
sg15
(I547
I552
tp10454
ss(g207
g142
tp10455
(dp10456
g13
(I200
I200
tp10457
sg15
(I600
I600
tp10458
ss(g222
g56
tp10459
(dp10460
g13
(I200
I0
tp10461
sg15
(I0
I1000
tp10462
ss(g270
g270
tp10463
(dp10464
g13
(I0
I0
tp10465
sg15
(I200
I200
tp10466
ss(g429
g429
tp10467
(dp10468
g13
(I146
I146
tp10469
sg15
(I492
I492
tp10470
ss(g34
g371
tp10471
(dp10472
g13
(I167
I200
tp10473
sg15
(I666
I501
tp10474
ss(g346
g62
tp10475
(dp10476
g13
(I200
I200
tp10477
sg15
(I600
I600
tp10478
ss(g429
g10
tp10479
(dp10480
g13
(I200
I0
tp10481
sg15
(I0
I1000
tp10482
ss(g95
g255
tp10483
(dp10484
g13
(I200
I100
tp10485
sg15
(I300
I800
tp10486
ss(g810
g283
tp10487
(dp10488
g13
(I200
I200
tp10489
sg15
(I600
I600
tp10490
ss(g147
g246
tp10491
(dp10492
g13
(I4
I200
tp10493
sg15
(I992
I12
tp10494
ss(g371
g192
tp10495
(dp10496
g13
(I200
I2
tp10497
sg15
(I6
I996
tp10498
ss(g298
g29
tp10499
(dp10500
g13
(I199
I199
tp10501
sg15
(I599
I599
tp10502
ss(g61
g270
tp10503
(dp10504
g13
(I198
I198
tp10505
sg15
(I596
I596
tp10506
ss(g246
g241
tp10507
(dp10508
g13
(I200
I200
tp10509
sg15
(I600
I600
tp10510
ss(g117
g222
tp10511
(dp10512
g13
(I198
I179
tp10513
sg15
(I540
I635
tp10514
ss(g106
g40
tp10515
(dp10516
g13
(I200
I200
tp10517
sg15
(I600
I600
tp10518
ss(g23
g28
tp10519
(dp10520
g13
(I182
I146
tp10521
sg15
(I473
I653
tp10522
ss(g557
g9
tp10523
(dp10524
g13
(I200
I200
tp10525
sg15
(I600
I600
tp10526
ss(g23
g46
tp10527
(dp10528
g13
(I182
I36
tp10529
sg15
(I144
I874
tp10530
ss(g51
g101
tp10531
(dp10532
g13
(I200
I200
tp10533
sg15
(I600
I600
tp10534
ss(g434
g45
tp10535
(dp10536
g13
(I1
I1
tp10537
sg15
(I203
I203
tp10538
ss(g117
g293
tp10539
(dp10540
g13
(I199
I198
tp10541
sg15
(I595
I600
tp10542
ss(g166
g29
tp10543
(dp10544
g13
(I22
I199
tp10545
sg15
(I953
I68
tp10546
ss(g147
g73
tp10547
(dp10548
g13
(I200
I1
tp10549
sg15
(I3
I998
tp10550
ss(g112
g46
tp10551
(dp10552
g13
(I200
I200
tp10553
sg15
(I600
I600
tp10554
ss(g270
g321
tp10555
(dp10556
g13
(I200
I0
tp10557
sg15
(I0
I1000
tp10558
ss(g207
g298
tp10559
(dp10560
g13
(I200
I200
tp10561
sg15
(I600
I600
tp10562
ss(g255
g35
tp10563
(dp10564
g13
(I1
I0
tp10565
sg15
(I199
I204
tp10566
ss(g232
g90
tp10567
(dp10568
g13
(I0
I200
tp10569
sg15
(I1000
I0
tp10570
ss(g298
g429
tp10571
(dp10572
g13
(I185
I107
tp10573
sg15
(I350
I740
tp10574
ss(g74
g46
tp10575
(dp10576
g13
(I198
I198
tp10577
sg15
(I597
I597
tp10578
ss(g557
g227
tp10579
(dp10580
g13
(I200
I3
tp10581
sg15
(I9
I994
tp10582
ss(g260
g429
tp10583
(dp10584
g13
(I0
I200
tp10585
sg15
(I1000
I0
tp10586
ss(g166
g321
tp10587
(dp10588
g13
(I200
I0
tp10589
sg15
(I0
I1000
tp10590
ss(g371
g321
tp10591
(dp10592
g13
(I200
I0
tp10593
sg15
(I0
I1000
tp10594
sssb.