ccopy_reg
_reconstructor
p0
(caxelrod.tournament_manager
DeterministicCache
p1
c__builtin__
object
p2
Ntp3
Rp4
(dp5
S'turns'
p6
I200
sS'cache'
p7
(dp8
(caxelrod.strategies.grudger
Aggravater
p9
caxelrod.strategies.titfortat
SneakyTitForTat
p10
tp11
(dp12
S'cooperation_rates'
p13
(I0
I100
tp14
sS'scores'
p15
(I600
I100
tp16
ss(caxelrod.strategies.punisher
InversePunisher
p17
caxelrod.strategies.prober
Prober
p18
tp19
(dp20
g13
(I2
I3
tp21
sg15
(I210
I205
tp22
ss(caxelrod.strategies.gobymajority
GoByMajority10
p23
caxelrod.strategies.grudger
OppositeGrudger
p24
tp25
(dp26
g13
(I199
I199
tp27
sg15
(I599
I599
tp28
ss(caxelrod.strategies.mathematicalconstants
Pi
p29
caxelrod.strategies.mindcontrol
MindWarper
p30
tp31
(dp32
g13
(I200
I0
tp33
sg15
(I0
I1000
tp34
ss(caxelrod.strategies.cycler
AntiCycler
p35
caxelrod.strategies.titfortat
SuspiciousTitForTat
p36
tp37
(dp38
g13
(I182
I181
tp39
sg15
(I579
I584
tp40
ss(g9
caxelrod.strategies.retaliate
LimitedRetaliate3
p41
tp42
(dp43
g13
(I0
I10
tp44
sg15
(I240
I190
tp45
ss(caxelrod.strategies.alternator
Alternator
p46
caxelrod.strategies.oncebitten
OnceBitten
p47
tp48
(dp49
g13
(I100
I200
tp50
sg15
(I800
I300
tp51
ss(g35
caxelrod.strategies.retaliate
Retaliate2
p52
tp53
(dp54
g13
(I182
I57
tp55
sg15
(I200
I825
tp56
ss(g23
g30
tp57
(dp58
g13
(I200
I0
tp59
sg15
(I0
I1000
tp60
ss(caxelrod.strategies.appeaser
Appeaser
p61
caxelrod.strategies.forgiver
Forgiver
p62
tp63
(dp64
g13
(I200
I200
tp65
sg15
(I600
I600
tp66
ss(caxelrod.strategies.mathematicalconstants
Golden
p67
caxelrod.strategies.geller
GellerCooperator
p68
tp69
(dp70
g13
(I123
I123
tp71
sg15
(I446
I446
tp72
ss(caxelrod.strategies.hunter
CooperatorHunter
p73
caxelrod.strategies.mindreader
ProtectedMindReader
p74
tp75
(dp76
g13
(I200
I0
tp77
sg15
(I0
I1000
tp78
ss(caxelrod.strategies.hunter
DefectorHunter
p79
g36
tp80
(dp81
g13
(I200
I199
tp82
sg15
(I597
I602
tp83
ss(caxelrod.strategies.cycler
CyclerCCCCCD
p84
caxelrod.strategies.memoryone
WinStayLoseShift
p85
tp86
(dp87
g13
(I167
I102
tp88
sg15
(I356
I681
tp89
ss(caxelrod.strategies.backstabber
BackStabber
p90
caxelrod.strategies.cycler
CyclerCCD
p91
tp92
(dp93
g13
(I12
I134
tp94
sg15
(I716
I106
tp95
ss(caxelrod.strategies.grudger
Grudger
p96
g68
tp97
(dp98
g13
(I200
I200
tp99
sg15
(I600
I600
tp100
ss(caxelrod.strategies.prober
HardProber
p101
caxelrod.strategies.darwin
Darwin
p102
tp103
(dp104
g13
(I2
I50
tp105
sg15
(I396
I156
tp106
ss(g41
g18
tp107
(dp108
g13
(I10
I11
tp109
sg15
(I234
I229
tp110
ss(caxelrod.strategies.cycler
CyclerCCCD
p111
g30
tp112
(dp113
g13
(I200
I0
tp114
sg15
(I0
I1000
tp115
ss(caxelrod.strategies.titfortat
Bully
p116
caxelrod.strategies.titfortat
TitFor2Tats
p117
tp118
(dp119
g13
(I80
I120
tp120
sg15
(I560
I360
tp121
ss(g9
g68
tp122
(dp123
g13
(I0
I0
tp124
sg15
(I200
I200
tp125
ss(caxelrod.strategies.forgiver
ForgivingTitForTat
p126
g102
tp127
(dp128
g13
(I180
I179
tp129
sg15
(I558
I563
tp130
ss(caxelrod.strategies.hunter
AlternatorHunter
p131
caxelrod.strategies.oncebitten
FoolMeOnce
p132
tp133
(dp134
g13
(I200
I200
tp135
sg15
(I600
I600
tp136
ss(caxelrod.strategies.titfortat
TitForTat
p137
g117
tp138
(dp139
g13
(I200
I200
tp140
sg15
(I600
I600
tp141
ss(caxelrod.strategies.titfortat
TwoTitsForTat
p142
g142
tp143
(dp144
g13
(I200
I200
tp145
sg15
(I600
I600
tp146
ss(caxelrod.strategies.prober
Prober2
p147
caxelrod.strategies.retaliate
Retaliate
p148
tp149
(dp150
g13
(I2
I1
tp151
sg15
(I202
I207
tp152
ss(g111
g62
tp153
(dp154
g13
(I150
I4
tp155
sg15
(I63
I793
tp156
ss(g46
g35
tp157
(dp158
g13
(I100
I182
tp159
sg15
(I737
I327
tp160
ss(g131
g137
tp161
(dp162
g13
(I200
I200
tp163
sg15
(I600
I600
tp164
ss(caxelrod.strategies.defector
Defector
p165
caxelrod.strategies.hunter
MathConstantHunter
p166
tp167
(dp168
g13
(I0
I200
tp169
sg15
(I1000
I0
tp170
ss(g111
caxelrod.strategies.titfortat
HardTitFor2Tats
p171
tp172
(dp173
g13
(I150
I200
tp174
sg15
(I700
I450
tp175
ss(caxelrod.strategies.mindcontrol
MindBender
p176
caxelrod.strategies.mindcontrol
MindController
p177
tp178
(dp179
g13
(I0
I200
tp180
sg15
(I1000
I0
tp181
ss(g79
g126
tp182
(dp183
g13
(I200
I200
tp184
sg15
(I600
I600
tp185
ss(caxelrod.strategies.grumpy
Grumpy
p186
g74
tp187
(dp188
g13
(I200
I0
tp189
sg15
(I0
I1000
tp190
ss(g132
g36
tp191
(dp192
g13
(I200
I199
tp193
sg15
(I597
I602
tp194
ss(g111
caxelrod.strategies.hunter
RandomHunter
p195
tp196
(dp197
g13
(I150
I193
tp198
sg15
(I678
I463
tp199
ss(g171
g137
tp200
(dp201
g13
(I200
I200
tp202
sg15
(I600
I600
tp203
ss(g67
g186
tp204
(dp205
g13
(I97
I149
tp206
sg15
(I652
I392
tp207
ss(g101
g24
tp208
(dp209
g13
(I198
I197
tp210
sg15
(I593
I598
tp211
ss(g41
g74
tp212
(dp213
g13
(I200
I0
tp214
sg15
(I0
I1000
tp215
ss(g165
caxelrod.strategies.geller
GellerDefector
p216
tp217
(dp218
g13
(I0
I0
tp219
sg15
(I200
I200
tp220
ss(g9
caxelrod.strategies.cooperator
TrickyCooperator
p221
tp222
(dp223
g13
(I11
I198
tp224
sg15
(I971
I36
tp225
ss(g177
g30
tp226
(dp227
g13
(I200
I200
tp228
sg15
(I600
I600
tp229
ss(caxelrod.strategies.retaliate
Retaliate3
p230
g177
tp231
(dp232
g13
(I200
I0
tp233
sg15
(I0
I1000
tp234
ss(g73
g147
tp235
(dp236
g13
(I200
I199
tp237
sg15
(I597
I602
tp238
ss(g148
g68
tp239
(dp240
g13
(I200
I200
tp241
sg15
(I600
I600
tp242
ss(caxelrod.strategies.hunter
EventualCycleHunter
p243
g30
tp244
(dp245
g13
(I200
I0
tp246
sg15
(I0
I1000
tp247
ss(caxelrod.strategies.gobymajority
GoByMajority5
p248
caxelrod.strategies.prober
Prober3
p249
tp250
(dp251
g13
(I100
I100
tp252
sg15
(I500
I500
tp253
ss(g23
g36
tp254
(dp255
g13
(I195
I194
tp256
sg15
(I592
I597
tp257
ss(g61
g195
tp258
(dp259
g13
(I200
I200
tp260
sg15
(I600
I600
tp261
ss(caxelrod.strategies.meta
MetaHunter
p262
g102
tp263
(dp264
g13
(I65
I56
tp265
sg15
(I303
I348
tp266
ss(g101
g36
tp267
(dp268
g13
(I198
I197
tp269
sg15
(I593
I598
tp270
ss(g73
caxelrod.strategies.grudger
ForgetfulGrudger
p271
tp272
(dp273
g13
(I198
I189
tp274
sg15
(I570
I615
tp275
ss(g101
caxelrod.strategies.mathematicalconstants
e
p276
tp277
(dp278
g13
(I2
I199
tp279
sg15
(I992
I7
tp280
ss(g17
g195
tp281
(dp282
g13
(I200
I200
tp283
sg15
(I600
I600
tp284
ss(g142
caxelrod.strategies.mindreader
MirrorMindReader
p285
tp286
(dp287
g13
(I200
I200
tp288
sg15
(I600
I600
tp289
ss(g132
g24
tp290
(dp291
g13
(I200
I199
tp292
sg15
(I597
I602
tp293
ss(caxelrod.strategies.hunter
CycleHunter
p294
caxelrod.strategies.backstabber
DoubleCrosser
p295
tp296
(dp297
g13
(I200
I198
tp298
sg15
(I594
I604
tp299
ss(g294
g102
tp300
(dp301
g13
(I200
I1
tp302
sg15
(I3
I998
tp303
ss(g249
g85
tp304
(dp305
g13
(I67
I67
tp306
sg15
(I401
I401
tp307
ss(caxelrod.strategies.titfortat
HardTitForTat
p308
g117
tp309
(dp310
g13
(I200
I200
tp311
sg15
(I600
I600
tp312
ss(g62
g67
tp313
(dp314
g13
(I67
I179
tp315
sg15
(I793
I233
tp316
ss(caxelrod.strategies.titfortat
AntiTitForTat
p317
g317
tp318
(dp319
g13
(I100
I100
tp320
sg15
(I400
I400
tp321
ss(g131
g148
tp322
(dp323
g13
(I200
I200
tp324
sg15
(I600
I600
tp325
ss(g84
g186
tp326
(dp327
g13
(I167
I200
tp328
sg15
(I666
I501
tp329
ss(g41
g230
tp330
(dp331
g13
(I200
I200
tp332
sg15
(I600
I600
tp333
ss(g276
g68
tp334
(dp335
g13
(I146
I146
tp336
sg15
(I492
I492
tp337
ss(g294
g23
tp338
(dp339
g13
(I200
I200
tp340
sg15
(I600
I600
tp341
ss(g147
g74
tp342
(dp343
g13
(I200
I0
tp344
sg15
(I0
I1000
tp345
ss(g295
g67
tp346
(dp347
g13
(I5
I195
tp348
sg15
(I974
I24
tp349
ss(g116
g10
tp350
(dp351
g13
(I99
I100
tp352
sg15
(I452
I447
tp353
ss(g91
g249
tp354
(dp355
g13
(I134
I1
tp356
sg15
(I69
I734
tp357
ss(g262
g177
tp358
(dp359
g13
(I200
I0
tp360
sg15
(I0
I1000
tp361
ss(g186
caxelrod.strategies.axelrod_tournaments
Tester
p362
tp363
(dp364
g13
(I200
I100
tp365
sg15
(I300
I800
tp366
ss(g166
g68
tp367
(dp368
g13
(I200
I200
tp369
sg15
(I600
I600
tp370
ss(g90
caxelrod.strategies.axelrod_tournaments
Davis
p371
tp372
(dp373
g13
(I198
I199
tp374
sg15
(I600
I595
tp375
ss(g46
g111
tp376
(dp377
g13
(I100
I150
tp378
sg15
(I600
I350
tp379
ss(g317
g295
tp380
(dp381
g13
(I195
I5
tp382
sg15
(I24
I974
tp383
ss(g23
g195
tp384
(dp385
g13
(I200
I200
tp386
sg15
(I600
I600
tp387
ss(g132
g285
tp388
(dp389
g13
(I200
I200
tp390
sg15
(I600
I600
tp391
ss(g165
g126
tp392
(dp393
g13
(I0
I1
tp394
sg15
(I204
I199
tp395
ss(g171
g30
tp396
(dp397
g13
(I200
I0
tp398
sg15
(I0
I1000
tp399
ss(caxelrod.strategies.axelrod_tournaments
Shubik
p400
g262
tp401
(dp402
g13
(I200
I200
tp403
sg15
(I600
I600
tp404
ss(g111
g102
tp405
(dp406
g13
(I150
I195
tp407
sg15
(I683
I458
tp408
ss(g111
g176
tp409
(dp410
g13
(I200
I0
tp411
sg15
(I0
I1000
tp412
ss(g90
g400
tp413
(dp414
g13
(I198
I199
tp415
sg15
(I600
I595
tp416
ss(g276
g74
tp417
(dp418
g13
(I200
I0
tp419
sg15
(I0
I1000
tp420
ss(g111
g243
tp421
(dp422
g13
(I150
I10
tp423
sg15
(I82
I782
tp424
ss(caxelrod.strategies.gobymajority
GoByMajority
p425
g101
tp426
(dp427
g13
(I99
I100
tp428
sg15
(I501
I496
tp429
ss(g79
g74
tp430
(dp431
g13
(I200
I0
tp432
sg15
(I0
I1000
tp433
ss(g195
g102
tp434
(dp435
g13
(I200
I3
tp436
sg15
(I9
I994
tp437
ss(g111
g216
tp438
(dp439
g13
(I150
I150
tp440
sg15
(I500
I500
tp441
ss(g186
g276
tp442
(dp443
g13
(I176
I116
tp444
sg15
(I395
I695
tp445
ss(g73
g371
tp446
(dp447
g13
(I193
I10
tp448
sg15
(I43
I958
tp449
ss(caxelrod.strategies.retaliate
LimitedRetaliate2
p450
g142
tp451
(dp452
g13
(I200
I200
tp453
sg15
(I600
I600
tp454
ss(g90
g23
tp455
(dp456
g13
(I198
I200
tp457
sg15
(I604
I594
tp458
ss(g61
g102
tp459
(dp460
g13
(I101
I1
tp461
sg15
(I102
I602
tp462
ss(g450
g41
tp463
(dp464
g13
(I200
I200
tp465
sg15
(I600
I600
tp466
ss(g137
caxelrod.strategies.mindreader
MindReader
p467
tp468
(dp469
g13
(I200
I0
tp470
sg15
(I0
I1000
tp471
ss(g131
caxelrod.strategies.gobymajority
GoByMajority40
p472
tp473
(dp474
g13
(I200
I200
tp475
sg15
(I600
I600
tp476
ss(g9
g271
tp477
(dp478
g13
(I0
I1
tp479
sg15
(I204
I199
tp480
ss(g90
g29
tp481
(dp482
g13
(I5
I195
tp483
sg15
(I974
I24
tp484
ss(g9
g91
tp485
(dp486
g13
(I0
I134
tp487
sg15
(I736
I66
tp488
ss(g116
g221
tp489
(dp490
g13
(I0
I200
tp491
sg15
(I1000
I0
tp492
ss(g262
g216
tp493
(dp494
g13
(I200
I200
tp495
sg15
(I600
I600
tp496
ss(g285
g285
tp497
(dp498
g13
(I200
I200
tp499
sg15
(I600
I600
tp500
ss(g46
g10
tp501
(dp502
g13
(I100
I150
tp503
sg15
(I650
I400
tp504
ss(g29
g195
tp505
(dp506
g13
(I1
I200
tp507
sg15
(I998
I3
tp508
ss(g61
g147
tp509
(dp510
g13
(I67
I67
tp511
sg15
(I401
I401
tp512
ss(g148
g467
tp513
(dp514
g13
(I200
I0
tp515
sg15
(I0
I1000
tp516
ss(g295
caxelrod.strategies.punisher
Punisher
p517
tp518
(dp519
g13
(I198
I199
tp520
sg15
(I600
I595
tp521
ss(g371
g132
tp522
(dp523
g13
(I200
I200
tp524
sg15
(I600
I600
tp525
ss(caxelrod.strategies.oncebitten
FoolMeForever
p526
g216
tp527
(dp528
g13
(I199
I199
tp529
sg15
(I598
I598
tp530
ss(g23
g472
tp531
(dp532
g13
(I200
I200
tp533
sg15
(I600
I600
tp534
ss(g271
g74
tp535
(dp536
g13
(I200
I0
tp537
sg15
(I0
I1000
tp538
ss(g243
g67
tp539
(dp540
g13
(I173
I73
tp541
sg15
(I266
I766
tp542
ss(g102
g285
tp543
(dp544
g13
(I200
I200
tp545
sg15
(I600
I600
tp546
ss(g35
g249
tp547
(dp548
g13
(I182
I181
tp549
sg15
(I579
I584
tp550
ss(g36
g177
tp551
(dp552
g13
(I200
I0
tp553
sg15
(I0
I1000
tp554
ss(caxelrod.strategies.defector
TrickyDefector
p555
g276
tp556
(dp557
g13
(I0
I200
tp558
sg15
(I1000
I0
tp559
ss(g73
g467
tp560
(dp561
g13
(I200
I0
tp562
sg15
(I0
I1000
tp563
ss(g526
g186
tp564
(dp565
g13
(I188
I176
tp566
sg15
(I551
I611
tp567
ss(g111
g400
tp568
(dp569
g13
(I150
I43
tp570
sg15
(I197
I732
tp571
ss(g96
g216
tp572
(dp573
g13
(I200
I200
tp574
sg15
(I600
I600
tp575
ss(g171
g285
tp576
(dp577
g13
(I200
I200
tp578
sg15
(I600
I600
tp579
ss(g517
g195
tp580
(dp581
g13
(I200
I200
tp582
sg15
(I600
I600
tp583
ss(g165
g165
tp584
(dp585
g13
(I0
I0
tp586
sg15
(I200
I200
tp587
ss(g132
g400
tp588
(dp589
g13
(I200
I200
tp590
sg15
(I600
I600
tp591
ss(g18
g74
tp592
(dp593
g13
(I200
I0
tp594
sg15
(I0
I1000
tp595
ss(g18
g147
tp596
(dp597
g13
(I2
I3
tp598
sg15
(I208
I203
tp599
ss(g84
g10
tp600
(dp601
g13
(I167
I164
tp602
sg15
(I557
I572
tp603
ss(g29
g230
tp604
(dp605
g13
(I194
I99
tp606
sg15
(I308
I783
tp607
ss(g165
g23
tp608
(dp609
g13
(I0
I1
tp610
sg15
(I204
I199
tp611
ss(g526
g249
tp612
(dp613
g13
(I199
I1
tp614
sg15
(I4
I994
tp615
ss(g61
g96
tp616
(dp617
g13
(I200
I200
tp618
sg15
(I600
I600
tp619
ss(g126
g177
tp620
(dp621
g13
(I200
I0
tp622
sg15
(I0
I1000
tp623
ss(g9
g467
tp624
(dp625
g13
(I200
I0
tp626
sg15
(I0
I1000
tp627
ss(g117
g142
tp628
(dp629
g13
(I200
I200
tp630
sg15
(I600
I600
tp631
ss(g362
g176
tp632
(dp633
g13
(I199
I0
tp634
sg15
(I1
I996
tp635
ss(g526
g177
tp636
(dp637
g13
(I200
I0
tp638
sg15
(I0
I1000
tp639
ss(g46
g362
tp640
(dp641
g13
(I100
I101
tp642
sg15
(I503
I498
tp643
ss(g9
g186
tp644
(dp645
g13
(I197
I200
tp646
sg15
(I606
I591
tp647
ss(g111
g221
tp648
(dp649
g13
(I150
I199
tp650
sg15
(I696
I451
tp651
ss(g73
g111
tp652
(dp653
g13
(I200
I150
tp654
sg15
(I450
I700
tp655
ss(g186
caxelrod.strategies.retaliate
LimitedRetaliate
p656
tp657
(dp658
g13
(I200
I200
tp659
sg15
(I600
I600
tp660
ss(g165
g47
tp661
(dp662
g13
(I0
I2
tp663
sg15
(I208
I198
tp664
ss(g29
g221
tp665
(dp666
g13
(I1
I200
tp667
sg15
(I998
I3
tp668
ss(g248
g30
tp669
(dp670
g13
(I200
I0
tp671
sg15
(I0
I1000
tp672
ss(g371
g29
tp673
(dp674
g13
(I10
I190
tp675
sg15
(I949
I49
tp676
ss(g36
g74
tp677
(dp678
g13
(I200
I0
tp679
sg15
(I0
I1000
tp680
ss(g165
g472
tp681
(dp682
g13
(I0
I1
tp683
sg15
(I204
I199
tp684
ss(g126
g29
tp685
(dp686
g13
(I152
I151
tp687
sg15
(I548
I553
tp688
ss(g46
g23
tp689
(dp690
g13
(I100
I200
tp691
sg15
(I800
I300
tp692
ss(g73
g171
tp693
(dp694
g13
(I197
I197
tp695
sg15
(I596
I596
tp696
ss(g371
g400
tp697
(dp698
g13
(I200
I200
tp699
sg15
(I600
I600
tp700
ss(g67
g18
tp701
(dp702
g13
(I123
I123
tp703
sg15
(I493
I493
tp704
ss(g142
g176
tp705
(dp706
g13
(I200
I0
tp707
sg15
(I0
I1000
tp708
ss(g425
g137
tp709
(dp710
g13
(I200
I200
tp711
sg15
(I600
I600
tp712
ss(g131
g36
tp713
(dp714
g13
(I200
I199
tp715
sg15
(I597
I602
tp716
ss(g472
g221
tp717
(dp718
g13
(I158
I117
tp719
sg15
(I427
I632
tp720
ss(caxelrod.strategies.gobymajority
GoByMajority20
p721
g74
tp722
(dp723
g13
(I200
I0
tp724
sg15
(I0
I1000
tp725
ss(g248
g276
tp726
(dp727
g13
(I155
I136
tp728
sg15
(I484
I579
tp729
ss(g52
g555
tp730
(dp731
g13
(I23
I152
tp732
sg15
(I774
I129
tp733
ss(g656
g221
tp734
(dp735
g13
(I101
I182
tp736
sg15
(I735
I330
tp737
ss(g117
g285
tp738
(dp739
g13
(I200
I200
tp740
sg15
(I600
I600
tp741
ss(g249
g177
tp742
(dp743
g13
(I200
I0
tp744
sg15
(I0
I1000
tp745
ss(g91
g186
tp746
(dp747
g13
(I134
I200
tp748
sg15
(I732
I402
tp749
ss(g101
g30
tp750
(dp751
g13
(I200
I0
tp752
sg15
(I0
I1000
tp753
ss(g46
g216
tp754
(dp755
g13
(I100
I100
tp756
sg15
(I400
I400
tp757
ss(g721
g177
tp758
(dp759
g13
(I200
I0
tp760
sg15
(I0
I1000
tp761
ss(g166
g176
tp762
(dp763
g13
(I200
I0
tp764
sg15
(I0
I1000
tp765
ss(g271
g721
tp766
(dp767
g13
(I200
I200
tp768
sg15
(I600
I600
tp769
ss(g18
g221
tp770
(dp771
g13
(I2
I200
tp772
sg15
(I996
I6
tp773
ss(g400
g36
tp774
(dp775
g13
(I2
I2
tp776
sg15
(I206
I206
tp777
ss(g23
g656
tp778
(dp779
g13
(I200
I200
tp780
sg15
(I600
I600
tp781
ss(g148
g362
tp782
(dp783
g13
(I1
I2
tp784
sg15
(I207
I202
tp785
ss(g142
g68
tp786
(dp787
g13
(I200
I200
tp788
sg15
(I600
I600
tp789
ss(g271
g230
tp790
(dp791
g13
(I200
I200
tp792
sg15
(I600
I600
tp793
ss(g371
g74
tp794
(dp795
g13
(I200
I0
tp796
sg15
(I0
I1000
tp797
ss(g132
g308
tp798
(dp799
g13
(I200
I200
tp800
sg15
(I600
I600
tp801
ss(g79
g425
tp802
(dp803
g13
(I200
I200
tp804
sg15
(I600
I600
tp805
ss(g450
g68
tp806
(dp807
g13
(I200
I200
tp808
sg15
(I600
I600
tp809
ss(g36
g262
tp810
(dp811
g13
(I56
I56
tp812
sg15
(I319
I319
tp813
ss(g371
g230
tp814
(dp815
g13
(I200
I200
tp816
sg15
(I600
I600
tp817
ss(g294
g177
tp818
(dp819
g13
(I200
I0
tp820
sg15
(I0
I1000
tp821
ss(g67
g517
tp822
(dp823
g13
(I160
I86
tp824
sg15
(I322
I692
tp825
ss(g29
g216
tp826
(dp827
g13
(I151
I151
tp828
sg15
(I502
I502
tp829
ss(g41
g10
tp830
(dp831
g13
(I120
I158
tp832
sg15
(I594
I404
tp833
ss(g85
g102
tp834
(dp835
g13
(I114
I28
tp836
sg15
(I170
I600
tp837
ss(g90
g285
tp838
(dp839
g13
(I200
I200
tp840
sg15
(I600
I600
tp841
ss(g371
g472
tp842
(dp843
g13
(I200
I200
tp844
sg15
(I600
I600
tp845
ss(g371
g62
tp846
(dp847
g13
(I200
I200
tp848
sg15
(I600
I600
tp849
ss(g171
g176
tp850
(dp851
g13
(I200
I0
tp852
sg15
(I0
I1000
tp853
ss(g165
g101
tp854
(dp855
g13
(I0
I2
tp856
sg15
(I208
I198
tp857
ss(g317
g248
tp858
(dp859
g13
(I101
I100
tp860
sg15
(I473
I478
tp861
ss(g116
g294
tp862
(dp863
g13
(I0
I200
tp864
sg15
(I1000
I0
tp865
ss(g132
g276
tp866
(dp867
g13
(I3
I197
tp868
sg15
(I984
I14
tp869
ss(g248
g216
tp870
(dp871
g13
(I200
I200
tp872
sg15
(I600
I600
tp873
ss(g17
g10
tp874
(dp875
g13
(I186
I192
tp876
sg15
(I597
I567
tp877
ss(g243
g17
tp878
(dp879
g13
(I200
I200
tp880
sg15
(I600
I600
tp881
ss(g248
g186
tp882
(dp883
g13
(I200
I200
tp884
sg15
(I600
I600
tp885
ss(g73
g142
tp886
(dp887
g13
(I198
I197
tp888
sg15
(I594
I599
tp889
ss(g243
g186
tp890
(dp891
g13
(I200
I200
tp892
sg15
(I600
I600
tp893
ss(g67
g467
tp894
(dp895
g13
(I200
I0
tp896
sg15
(I0
I1000
tp897
ss(g102
g176
tp898
(dp899
g13
(I200
I0
tp900
sg15
(I0
I1000
tp901
ss(g24
g221
tp902
(dp903
g13
(I199
I11
tp904
sg15
(I35
I975
tp905
ss(g46
g308
tp906
(dp907
g13
(I100
I2
tp908
sg15
(I107
I597
tp909
ss(g148
g142
tp910
(dp911
g13
(I200
I200
tp912
sg15
(I600
I600
tp913
ss(g308
g142
tp914
(dp915
g13
(I200
I200
tp916
sg15
(I600
I600
tp917
ss(g29
g68
tp918
(dp919
g13
(I151
I151
tp920
sg15
(I502
I502
tp921
ss(g317
g186
tp922
(dp923
g13
(I97
I104
tp924
sg15
(I514
I479
tp925
ss(g165
g147
tp926
(dp927
g13
(I0
I2
tp928
sg15
(I208
I198
tp929
ss(g295
g147
tp930
(dp931
g13
(I198
I198
tp932
sg15
(I597
I597
tp933
ss(g195
g117
tp934
(dp935
g13
(I200
I200
tp936
sg15
(I600
I600
tp937
ss(g186
g137
tp938
(dp939
g13
(I200
I200
tp940
sg15
(I600
I600
tp941
ss(g425
g18
tp942
(dp943
g13
(I199
I199
tp944
sg15
(I599
I599
tp945
ss(g472
g36
tp946
(dp947
g13
(I180
I179
tp948
sg15
(I577
I582
tp949
ss(g79
g249
tp950
(dp951
g13
(I200
I1
tp952
sg15
(I3
I998
tp953
ss(g186
g176
tp954
(dp955
g13
(I200
I0
tp956
sg15
(I0
I1000
tp957
ss(g116
g29
tp958
(dp959
g13
(I0
I200
tp960
sg15
(I1000
I0
tp961
ss(g79
g721
tp962
(dp963
g13
(I200
I200
tp964
sg15
(I600
I600
tp965
ss(g248
g362
tp966
(dp967
g13
(I199
I199
tp968
sg15
(I599
I599
tp969
ss(g84
g285
tp970
(dp971
g13
(I200
I200
tp972
sg15
(I600
I600
tp973
ss(g425
g96
tp974
(dp975
g13
(I200
I200
tp976
sg15
(I600
I600
tp977
ss(g131
g131
tp978
(dp979
g13
(I200
I200
tp980
sg15
(I600
I600
tp981
ss(g165
g24
tp982
(dp983
g13
(I0
I0
tp984
sg15
(I200
I200
tp985
ss(g166
g276
tp986
(dp987
g13
(I9
I192
tp988
sg15
(I957
I42
tp989
ss(g61
g177
tp990
(dp991
g13
(I200
I0
tp992
sg15
(I0
I1000
tp993
ss(g308
g29
tp994
(dp995
g13
(I127
I175
tp996
sg15
(I670
I430
tp997
ss(g137
g68
tp998
(dp999
g13
(I200
I200
tp1000
sg15
(I600
I600
tp1001
ss(g132
g249
tp1002
(dp1003
g13
(I3
I1
tp1004
sg15
(I200
I210
tp1005
ss(g84
g102
tp1006
(dp1007
g13
(I167
I1
tp1008
sg15
(I36
I866
tp1009
ss(g295
g24
tp1010
(dp1011
g13
(I198
I199
tp1012
sg15
(I601
I596
tp1013
ss(g90
g243
tp1014
(dp1015
g13
(I198
I199
tp1016
sg15
(I600
I595
tp1017
ss(g126
g248
tp1018
(dp1019
g13
(I200
I200
tp1020
sg15
(I600
I600
tp1021
ss(g472
g67
tp1022
(dp1023
g13
(I145
I101
tp1024
sg15
(I405
I625
tp1025
ss(g171
g47
tp1026
(dp1027
g13
(I200
I200
tp1028
sg15
(I600
I600
tp1029
ss(g35
g85
tp1030
(dp1031
g13
(I182
I101
tp1032
sg15
(I330
I735
tp1033
ss(g35
g126
tp1034
(dp1035
g13
(I182
I184
tp1036
sg15
(I588
I578
tp1037
ss(g23
g96
tp1038
(dp1039
g13
(I200
I200
tp1040
sg15
(I600
I600
tp1041
ss(g24
g177
tp1042
(dp1043
g13
(I200
I0
tp1044
sg15
(I0
I1000
tp1045
ss(g165
g18
tp1046
(dp1047
g13
(I0
I2
tp1048
sg15
(I208
I198
tp1049
ss(g166
g142
tp1050
(dp1051
g13
(I200
I200
tp1052
sg15
(I600
I600
tp1053
ss(caxelrod.strategies.cooperator
Cooperator
p1054
g308
tp1055
(dp1056
g13
(I200
I200
tp1057
sg15
(I600
I600
tp1058
ss(g23
g276
tp1059
(dp1060
g13
(I183
I109
tp1061
sg15
(I360
I730
tp1062
ss(g656
g195
tp1063
(dp1064
g13
(I200
I200
tp1065
sg15
(I600
I600
tp1066
ss(g90
g166
tp1067
(dp1068
g13
(I198
I199
tp1069
sg15
(I600
I595
tp1070
ss(g165
g96
tp1071
(dp1072
g13
(I0
I1
tp1073
sg15
(I204
I199
tp1074
ss(g362
g68
tp1075
(dp1076
g13
(I1
I0
tp1077
sg15
(I199
I204
tp1078
ss(g308
g148
tp1079
(dp1080
g13
(I200
I200
tp1081
sg15
(I600
I600
tp1082
ss(g295
g85
tp1083
(dp1084
g13
(I198
I199
tp1085
sg15
(I600
I595
tp1086
ss(g171
g656
tp1087
(dp1088
g13
(I200
I200
tp1089
sg15
(I600
I600
tp1090
ss(g137
g102
tp1091
(dp1092
g13
(I20
I19
tp1093
sg15
(I238
I243
tp1094
ss(g526
g276
tp1095
(dp1096
g13
(I0
I200
tp1097
sg15
(I1000
I0
tp1098
ss(g62
g308
tp1099
(dp1100
g13
(I200
I200
tp1101
sg15
(I600
I600
tp1102
ss(g131
g101
tp1103
(dp1104
g13
(I200
I2
tp1105
sg15
(I6
I996
tp1106
ss(g84
g555
tp1107
(dp1108
g13
(I167
I0
tp1109
sg15
(I33
I868
tp1110
ss(g1054
g166
tp1111
(dp1112
g13
(I200
I200
tp1113
sg15
(I600
I600
tp1114
ss(g46
g166
tp1115
(dp1116
g13
(I100
I29
tp1117
sg15
(I195
I550
tp1118
ss(g131
g317
tp1119
(dp1120
g13
(I200
I1
tp1121
sg15
(I3
I998
tp1122
ss(g91
g285
tp1123
(dp1124
g13
(I200
I200
tp1125
sg15
(I600
I600
tp1126
ss(g132
g425
tp1127
(dp1128
g13
(I200
I200
tp1129
sg15
(I600
I600
tp1130
ss(g9
g294
tp1131
(dp1132
g13
(I197
I200
tp1133
sg15
(I606
I591
tp1134
ss(g41
g216
tp1135
(dp1136
g13
(I200
I200
tp1137
sg15
(I600
I600
tp1138
ss(g91
g36
tp1139
(dp1140
g13
(I134
I133
tp1141
sg15
(I531
I536
tp1142
ss(g30
g74
tp1143
(dp1144
g13
(I200
I200
tp1145
sg15
(I600
I600
tp1146
ss(g526
g23
tp1147
(dp1148
g13
(I198
I197
tp1149
sg15
(I594
I599
tp1150
ss(g41
g221
tp1151
(dp1152
g13
(I74
I188
tp1153
sg15
(I810
I240
tp1154
ss(g425
g74
tp1155
(dp1156
g13
(I200
I0
tp1157
sg15
(I0
I1000
tp1158
ss(g166
g166
tp1159
(dp1160
g13
(I200
I200
tp1161
sg15
(I600
I600
tp1162
ss(g111
g18
tp1163
(dp1164
g13
(I150
I2
tp1165
sg15
(I56
I796
tp1166
ss(g526
g85
tp1167
(dp1168
g13
(I198
I199
tp1169
sg15
(I600
I595
tp1170
ss(g35
g186
tp1171
(dp1172
g13
(I182
I200
tp1173
sg15
(I636
I546
tp1174
ss(g52
g52
tp1175
(dp1176
g13
(I200
I200
tp1177
sg15
(I600
I600
tp1178
ss(g317
g85
tp1179
(dp1180
g13
(I67
I134
tp1181
sg15
(I602
I267
tp1182
ss(g9
g84
tp1183
(dp1184
g13
(I3
I167
tp1185
sg15
(I863
I43
tp1186
ss(g243
g10
tp1187
(dp1188
g13
(I168
I164
tp1189
sg15
(I536
I556
tp1190
ss(g126
g17
tp1191
(dp1192
g13
(I200
I200
tp1193
sg15
(I600
I600
tp1194
ss(g148
g221
tp1195
(dp1196
g13
(I101
I182
tp1197
sg15
(I735
I330
tp1198
ss(g116
g249
tp1199
(dp1200
g13
(I198
I1
tp1201
sg15
(I5
I990
tp1202
ss(g10
g216
tp1203
(dp1204
g13
(I198
I198
tp1205
sg15
(I596
I596
tp1206
ss(g116
g425
tp1207
(dp1208
g13
(I99
I100
tp1209
sg15
(I468
I463
tp1210
ss(g362
g117
tp1211
(dp1212
g13
(I100
I200
tp1213
sg15
(I800
I300
tp1214
ss(g195
g276
tp1215
(dp1216
g13
(I200
I1
tp1217
sg15
(I3
I998
tp1218
ss(g221
g262
tp1219
(dp1220
g13
(I186
I17
tp1221
sg15
(I78
I923
tp1222
ss(g67
g52
tp1223
(dp1224
g13
(I184
I61
tp1225
sg15
(I210
I825
tp1226
ss(g295
g17
tp1227
(dp1228
g13
(I198
I199
tp1229
sg15
(I600
I595
tp1230
ss(g195
g195
tp1231
(dp1232
g13
(I200
I200
tp1233
sg15
(I600
I600
tp1234
ss(g425
g656
tp1235
(dp1236
g13
(I200
I200
tp1237
sg15
(I600
I600
tp1238
ss(g450
g285
tp1239
(dp1240
g13
(I200
I200
tp1241
sg15
(I600
I600
tp1242
ss(g41
g362
tp1243
(dp1244
g13
(I10
I11
tp1245
sg15
(I234
I229
tp1246
ss(g96
g17
tp1247
(dp1248
g13
(I200
I200
tp1249
sg15
(I600
I600
tp1250
ss(g186
g171
tp1251
(dp1252
g13
(I200
I200
tp1253
sg15
(I600
I600
tp1254
ss(g1054
g371
tp1255
(dp1256
g13
(I200
I200
tp1257
sg15
(I600
I600
tp1258
ss(g90
g425
tp1259
(dp1260
g13
(I198
I200
tp1261
sg15
(I604
I594
tp1262
ss(g85
g276
tp1263
(dp1264
g13
(I6
I197
tp1265
sg15
(I978
I23
tp1266
ss(g10
g142
tp1267
(dp1268
g13
(I133
I68
tp1269
sg15
(I337
I662
tp1270
ss(g295
g41
tp1271
(dp1272
g13
(I198
I199
tp1273
sg15
(I600
I595
tp1274
ss(g46
g656
tp1275
(dp1276
g13
(I100
I11
tp1277
sg15
(I143
I588
tp1278
ss(g294
g85
tp1279
(dp1280
g13
(I200
I200
tp1281
sg15
(I600
I600
tp1282
ss(g362
g262
tp1283
(dp1284
g13
(I35
I37
tp1285
sg15
(I284
I274
tp1286
ss(g472
g30
tp1287
(dp1288
g13
(I200
I0
tp1289
sg15
(I0
I1000
tp1290
ss(g73
g148
tp1291
(dp1292
g13
(I198
I189
tp1293
sg15
(I570
I615
tp1294
ss(g79
g148
tp1295
(dp1296
g13
(I200
I200
tp1297
sg15
(I600
I600
tp1298
ss(g67
g101
tp1299
(dp1300
g13
(I198
I2
tp1301
sg15
(I9
I989
tp1302
ss(g96
g262
tp1303
(dp1304
g13
(I200
I200
tp1305
sg15
(I600
I600
tp1306
ss(g36
g68
tp1307
(dp1308
g13
(I0
I0
tp1309
sg15
(I200
I200
tp1310
ss(g79
g171
tp1311
(dp1312
g13
(I200
I200
tp1313
sg15
(I600
I600
tp1314
ss(g46
g137
tp1315
(dp1316
g13
(I100
I101
tp1317
sg15
(I503
I498
tp1318
ss(g1054
g132
tp1319
(dp1320
g13
(I200
I200
tp1321
sg15
(I600
I600
tp1322
ss(g52
g117
tp1323
(dp1324
g13
(I200
I200
tp1325
sg15
(I600
I600
tp1326
ss(g41
g517
tp1327
(dp1328
g13
(I200
I200
tp1329
sg15
(I600
I600
tp1330
ss(g117
g68
tp1331
(dp1332
g13
(I200
I200
tp1333
sg15
(I600
I600
tp1334
ss(g47
g24
tp1335
(dp1336
g13
(I200
I199
tp1337
sg15
(I597
I602
tp1338
ss(g62
g68
tp1339
(dp1340
g13
(I200
I200
tp1341
sg15
(I600
I600
tp1342
ss(g85
g30
tp1343
(dp1344
g13
(I200
I0
tp1345
sg15
(I0
I1000
tp1346
ss(g248
g101
tp1347
(dp1348
g13
(I196
I196
tp1349
sg15
(I595
I595
tp1350
ss(g18
g142
tp1351
(dp1352
g13
(I3
I2
tp1353
sg15
(I205
I210
tp1354
ss(g271
g10
tp1355
(dp1356
g13
(I12
I105
tp1357
sg15
(I606
I141
tp1358
ss(g79
g29
tp1359
(dp1360
g13
(I200
I1
tp1361
sg15
(I3
I998
tp1362
ss(g96
g400
tp1363
(dp1364
g13
(I200
I200
tp1365
sg15
(I600
I600
tp1366
ss(g271
g29
tp1367
(dp1368
g13
(I112
I191
tp1369
sg15
(I748
I353
tp1370
ss(g294
g276
tp1371
(dp1372
g13
(I200
I1
tp1373
sg15
(I3
I998
tp1374
ss(g29
g74
tp1375
(dp1376
g13
(I200
I0
tp1377
sg15
(I0
I1000
tp1378
ss(g371
g24
tp1379
(dp1380
g13
(I10
I199
tp1381
sg15
(I977
I32
tp1382
ss(g90
g177
tp1383
(dp1384
g13
(I200
I0
tp1385
sg15
(I0
I1000
tp1386
ss(g308
g249
tp1387
(dp1388
g13
(I1
I1
tp1389
sg15
(I203
I203
tp1390
ss(g294
g147
tp1391
(dp1392
g13
(I200
I199
tp1393
sg15
(I597
I602
tp1394
ss(g317
g30
tp1395
(dp1396
g13
(I200
I0
tp1397
sg15
(I0
I1000
tp1398
ss(g62
g10
tp1399
(dp1400
g13
(I3
I100
tp1401
sg15
(I595
I110
tp1402
ss(g308
g36
tp1403
(dp1404
g13
(I1
I1
tp1405
sg15
(I203
I203
tp1406
ss(g148
g177
tp1407
(dp1408
g13
(I200
I0
tp1409
sg15
(I0
I1000
tp1410
ss(g248
g147
tp1411
(dp1412
g13
(I199
I199
tp1413
sg15
(I599
I599
tp1414
ss(g317
g101
tp1415
(dp1416
g13
(I198
I2
tp1417
sg15
(I9
I989
tp1418
ss(g248
g221
tp1419
(dp1420
g13
(I152
I152
tp1421
sg15
(I540
I540
tp1422
ss(g116
g147
tp1423
(dp1424
g13
(I99
I100
tp1425
sg15
(I451
I446
tp1426
ss(g62
g656
tp1427
(dp1428
g13
(I200
I200
tp1429
sg15
(I600
I600
tp1430
ss(g17
g117
tp1431
(dp1432
g13
(I200
I200
tp1433
sg15
(I600
I600
tp1434
ss(g17
g285
tp1435
(dp1436
g13
(I200
I200
tp1437
sg15
(I600
I600
tp1438
ss(g243
g271
tp1439
(dp1440
g13
(I200
I200
tp1441
sg15
(I600
I600
tp1442
ss(g23
g101
tp1443
(dp1444
g13
(I194
I194
tp1445
sg15
(I593
I593
tp1446
ss(g84
g47
tp1447
(dp1448
g13
(I167
I200
tp1449
sg15
(I666
I501
tp1450
ss(g308
g30
tp1451
(dp1452
g13
(I200
I0
tp1453
sg15
(I0
I1000
tp1454
ss(g47
g216
tp1455
(dp1456
g13
(I200
I200
tp1457
sg15
(I600
I600
tp1458
ss(g317
g276
tp1459
(dp1460
g13
(I2
I199
tp1461
sg15
(I992
I7
tp1462
ss(g362
g85
tp1463
(dp1464
g13
(I67
I67
tp1465
sg15
(I401
I401
tp1466
ss(g472
g186
tp1467
(dp1468
g13
(I200
I200
tp1469
sg15
(I600
I600
tp1470
ss(g73
g517
tp1471
(dp1472
g13
(I198
I195
tp1473
sg15
(I588
I603
tp1474
ss(g271
g126
tp1475
(dp1476
g13
(I200
I200
tp1477
sg15
(I600
I600
tp1478
ss(g317
g147
tp1479
(dp1480
g13
(I100
I100
tp1481
sg15
(I450
I450
tp1482
ss(g186
g450
tp1483
(dp1484
g13
(I200
I200
tp1485
sg15
(I600
I600
tp1486
ss(g371
g101
tp1487
(dp1488
g13
(I10
I2
tp1489
sg15
(I196
I236
tp1490
ss(g52
g10
tp1491
(dp1492
g13
(I174
I186
tp1493
sg15
(I597
I537
tp1494
ss(g271
g171
tp1495
(dp1496
g13
(I200
I200
tp1497
sg15
(I600
I600
tp1498
ss(g84
g23
tp1499
(dp1500
g13
(I167
I200
tp1501
sg15
(I666
I501
tp1502
ss(g166
g148
tp1503
(dp1504
g13
(I200
I200
tp1505
sg15
(I600
I600
tp1506
ss(g29
g85
tp1507
(dp1508
g13
(I197
I7
tp1509
sg15
(I26
I976
tp1510
ss(g90
g41
tp1511
(dp1512
g13
(I198
I199
tp1513
sg15
(I600
I595
tp1514
ss(g1054
g171
tp1515
(dp1516
g13
(I200
I200
tp1517
sg15
(I600
I600
tp1518
ss(g276
g285
tp1519
(dp1520
g13
(I200
I200
tp1521
sg15
(I600
I600
tp1522
ss(g116
g450
tp1523
(dp1524
g13
(I174
I25
tp1525
sg15
(I114
I859
tp1526
ss(g425
g721
tp1527
(dp1528
g13
(I200
I200
tp1529
sg15
(I600
I600
tp1530
ss(g10
g177
tp1531
(dp1532
g13
(I200
I0
tp1533
sg15
(I0
I1000
tp1534
ss(g24
g18
tp1535
(dp1536
g13
(I198
I199
tp1537
sg15
(I600
I595
tp1538
ss(g79
g285
tp1539
(dp1540
g13
(I200
I200
tp1541
sg15
(I600
I600
tp1542
ss(g29
g262
tp1543
(dp1544
g13
(I192
I9
tp1545
sg15
(I42
I957
tp1546
ss(g165
g68
tp1547
(dp1548
g13
(I0
I0
tp1549
sg15
(I200
I200
tp1550
ss(g84
g84
tp1551
(dp1552
g13
(I167
I167
tp1553
sg15
(I534
I534
tp1554
ss(g62
g262
tp1555
(dp1556
g13
(I200
I200
tp1557
sg15
(I600
I600
tp1558
ss(g46
g102
tp1559
(dp1560
g13
(I100
I199
tp1561
sg15
(I796
I301
tp1562
ss(g73
g126
tp1563
(dp1564
g13
(I198
I198
tp1565
sg15
(I597
I597
tp1566
ss(g317
g91
tp1567
(dp1568
g13
(I67
I134
tp1569
sg15
(I602
I267
tp1570
ss(g24
g276
tp1571
(dp1572
g13
(I199
I93
tp1573
sg15
(I281
I811
tp1574
ss(g317
g67
tp1575
(dp1576
g13
(I3
I198
tp1577
sg15
(I986
I11
tp1578
ss(g166
g36
tp1579
(dp1580
g13
(I117
I117
tp1581
sg15
(I443
I443
tp1582
ss(g362
g74
tp1583
(dp1584
g13
(I200
I0
tp1585
sg15
(I0
I1000
tp1586
ss(g46
g526
tp1587
(dp1588
g13
(I100
I198
tp1589
sg15
(I793
I303
tp1590
ss(g47
g362
tp1591
(dp1592
g13
(I200
I100
tp1593
sg15
(I300
I800
tp1594
ss(g425
g425
tp1595
(dp1596
g13
(I200
I200
tp1597
sg15
(I600
I600
tp1598
ss(g248
g74
tp1599
(dp1600
g13
(I200
I0
tp1601
sg15
(I0
I1000
tp1602
ss(g230
g262
tp1603
(dp1604
g13
(I200
I200
tp1605
sg15
(I600
I600
tp1606
ss(g96
g74
tp1607
(dp1608
g13
(I200
I0
tp1609
sg15
(I0
I1000
tp1610
ss(g243
g517
tp1611
(dp1612
g13
(I200
I200
tp1613
sg15
(I600
I600
tp1614
ss(g29
g517
tp1615
(dp1616
g13
(I177
I126
tp1617
sg15
(I423
I678
tp1618
ss(g195
g400
tp1619
(dp1620
g13
(I200
I200
tp1621
sg15
(I600
I600
tp1622
ss(g131
g216
tp1623
(dp1624
g13
(I200
I200
tp1625
sg15
(I600
I600
tp1626
ss(g85
g262
tp1627
(dp1628
g13
(I200
I200
tp1629
sg15
(I600
I600
tp1630
ss(g35
g285
tp1631
(dp1632
g13
(I200
I200
tp1633
sg15
(I600
I600
tp1634
ss(g1054
g1054
tp1635
(dp1636
g13
(I200
I200
tp1637
sg15
(I600
I600
tp1638
ss(g166
g47
tp1639
(dp1640
g13
(I200
I200
tp1641
sg15
(I600
I600
tp1642
ss(g195
g362
tp1643
(dp1644
g13
(I193
I188
tp1645
sg15
(I572
I597
tp1646
ss(g18
g276
tp1647
(dp1648
g13
(I146
I146
tp1649
sg15
(I539
I539
tp1650
ss(g131
g221
tp1651
(dp1652
g13
(I200
I3
tp1653
sg15
(I9
I994
tp1654
ss(g171
g36
tp1655
(dp1656
g13
(I200
I199
tp1657
sg15
(I597
I602
tp1658
ss(g35
g216
tp1659
(dp1660
g13
(I187
I187
tp1661
sg15
(I587
I587
tp1662
ss(g18
g18
tp1663
(dp1664
g13
(I2
I2
tp1665
sg15
(I204
I204
tp1666
ss(g36
g276
tp1667
(dp1668
g13
(I146
I146
tp1669
sg15
(I539
I539
tp1670
ss(g526
g195
tp1671
(dp1672
g13
(I0
I200
tp1673
sg15
(I1000
I0
tp1674
ss(g721
g472
tp1675
(dp1676
g13
(I200
I200
tp1677
sg15
(I600
I600
tp1678
ss(g84
g74
tp1679
(dp1680
g13
(I200
I0
tp1681
sg15
(I0
I1000
tp1682
ss(g721
g308
tp1683
(dp1684
g13
(I200
I200
tp1685
sg15
(I600
I600
tp1686
ss(g243
g117
tp1687
(dp1688
g13
(I200
I200
tp1689
sg15
(I600
I600
tp1690
ss(g317
g362
tp1691
(dp1692
g13
(I100
I101
tp1693
sg15
(I454
I449
tp1694
ss(g29
g18
tp1695
(dp1696
g13
(I199
I2
tp1697
sg15
(I7
I992
tp1698
ss(g67
g262
tp1699
(dp1700
g13
(I192
I9
tp1701
sg15
(I42
I957
tp1702
ss(g295
g230
tp1703
(dp1704
g13
(I198
I199
tp1705
sg15
(I600
I595
tp1706
ss(g517
g221
tp1707
(dp1708
g13
(I155
I172
tp1709
sg15
(I592
I507
tp1710
ss(g62
g176
tp1711
(dp1712
g13
(I200
I0
tp1713
sg15
(I0
I1000
tp1714
ss(g472
g29
tp1715
(dp1716
g13
(I197
I106
tp1717
sg15
(I323
I778
tp1718
ss(g131
g30
tp1719
(dp1720
g13
(I200
I0
tp1721
sg15
(I0
I1000
tp1722
ss(g450
g102
tp1723
(dp1724
g13
(I91
I83
tp1725
sg15
(I358
I398
tp1726
ss(g61
g41
tp1727
(dp1728
g13
(I200
I200
tp1729
sg15
(I600
I600
tp1730
ss(g450
g166
tp1731
(dp1732
g13
(I200
I200
tp1733
sg15
(I600
I600
tp1734
ss(g517
g216
tp1735
(dp1736
g13
(I200
I200
tp1737
sg15
(I600
I600
tp1738
ss(g308
g166
tp1739
(dp1740
g13
(I200
I200
tp1741
sg15
(I600
I600
tp1742
ss(g96
g29
tp1743
(dp1744
g13
(I2
I198
tp1745
sg15
(I989
I9
tp1746
ss(g1054
g216
tp1747
(dp1748
g13
(I200
I200
tp1749
sg15
(I600
I600
tp1750
ss(g9
g47
tp1751
(dp1752
g13
(I0
I2
tp1753
sg15
(I208
I198
tp1754
ss(g96
g195
tp1755
(dp1756
g13
(I200
I200
tp1757
sg15
(I600
I600
tp1758
ss(g84
g450
tp1759
(dp1760
g13
(I167
I41
tp1761
sg15
(I167
I797
tp1762
ss(g61
g295
tp1763
(dp1764
g13
(I199
I198
tp1765
sg15
(I595
I600
tp1766
ss(g111
g41
tp1767
(dp1768
g13
(I150
I18
tp1769
sg15
(I112
I772
tp1770
ss(g41
g85
tp1771
(dp1772
g13
(I200
I200
tp1773
sg15
(I600
I600
tp1774
ss(g295
g195
tp1775
(dp1776
g13
(I198
I200
tp1777
sg15
(I604
I594
tp1778
ss(g85
g176
tp1779
(dp1780
g13
(I200
I0
tp1781
sg15
(I0
I1000
tp1782
ss(g17
g30
tp1783
(dp1784
g13
(I200
I0
tp1785
sg15
(I0
I1000
tp1786
ss(g171
g74
tp1787
(dp1788
g13
(I200
I0
tp1789
sg15
(I0
I1000
tp1790
ss(g371
g79
tp1791
(dp1792
g13
(I200
I200
tp1793
sg15
(I600
I600
tp1794
ss(g294
g362
tp1795
(dp1796
g13
(I200
I100
tp1797
sg15
(I300
I800
tp1798
ss(g47
g285
tp1799
(dp1800
g13
(I200
I200
tp1801
sg15
(I600
I600
tp1802
ss(g73
g230
tp1803
(dp1804
g13
(I198
I179
tp1805
sg15
(I540
I635
tp1806
ss(g24
g10
tp1807
(dp1808
g13
(I199
I200
tp1809
sg15
(I602
I597
tp1810
ss(g102
g68
tp1811
(dp1812
g13
(I199
I200
tp1813
sg15
(I602
I597
tp1814
ss(g221
g221
tp1815
(dp1816
g13
(I182
I182
tp1817
sg15
(I564
I564
tp1818
ss(g1054
g96
tp1819
(dp1820
g13
(I200
I200
tp1821
sg15
(I600
I600
tp1822
ss(g117
g176
tp1823
(dp1824
g13
(I200
I0
tp1825
sg15
(I0
I1000
tp1826
ss(g317
g216
tp1827
(dp1828
g13
(I100
I100
tp1829
sg15
(I400
I400
tp1830
ss(g294
g249
tp1831
(dp1832
g13
(I200
I1
tp1833
sg15
(I3
I998
tp1834
ss(g91
g216
tp1835
(dp1836
g13
(I134
I134
tp1837
sg15
(I468
I468
tp1838
ss(g90
g147
tp1839
(dp1840
g13
(I198
I198
tp1841
sg15
(I597
I597
tp1842
ss(g79
g17
tp1843
(dp1844
g13
(I200
I200
tp1845
sg15
(I600
I600
tp1846
ss(g62
g101
tp1847
(dp1848
g13
(I1
I2
tp1849
sg15
(I207
I202
tp1850
ss(g271
g17
tp1851
(dp1852
g13
(I200
I200
tp1853
sg15
(I600
I600
tp1854
ss(g450
g85
tp1855
(dp1856
g13
(I200
I200
tp1857
sg15
(I600
I600
tp1858
ss(g91
g295
tp1859
(dp1860
g13
(I134
I12
tp1861
sg15
(I106
I716
tp1862
ss(g90
g230
tp1863
(dp1864
g13
(I198
I199
tp1865
sg15
(I600
I595
tp1866
ss(g294
g186
tp1867
(dp1868
g13
(I200
I200
tp1869
sg15
(I600
I600
tp1870
ss(g294
g142
tp1871
(dp1872
g13
(I200
I200
tp1873
sg15
(I600
I600
tp1874
ss(g84
g467
tp1875
(dp1876
g13
(I200
I0
tp1877
sg15
(I0
I1000
tp1878
ss(g165
g171
tp1879
(dp1880
g13
(I0
I2
tp1881
sg15
(I208
I198
tp1882
ss(g294
g41
tp1883
(dp1884
g13
(I200
I200
tp1885
sg15
(I600
I600
tp1886
ss(g308
g74
tp1887
(dp1888
g13
(I200
I0
tp1889
sg15
(I0
I1000
tp1890
ss(g46
g276
tp1891
(dp1892
g13
(I100
I191
tp1893
sg15
(I764
I309
tp1894
ss(g171
g262
tp1895
(dp1896
g13
(I200
I200
tp1897
sg15
(I600
I600
tp1898
ss(g90
g472
tp1899
(dp1900
g13
(I198
I200
tp1901
sg15
(I604
I594
tp1902
ss(g555
g216
tp1903
(dp1904
g13
(I0
I0
tp1905
sg15
(I200
I200
tp1906
ss(g308
g656
tp1907
(dp1908
g13
(I200
I200
tp1909
sg15
(I600
I600
tp1910
ss(g294
g216
tp1911
(dp1912
g13
(I200
I200
tp1913
sg15
(I600
I600
tp1914
ss(g35
g68
tp1915
(dp1916
g13
(I187
I187
tp1917
sg15
(I587
I587
tp1918
ss(g61
g117
tp1919
(dp1920
g13
(I200
I200
tp1921
sg15
(I600
I600
tp1922
ss(g52
g177
tp1923
(dp1924
g13
(I200
I0
tp1925
sg15
(I0
I1000
tp1926
ss(g317
g285
tp1927
(dp1928
g13
(I200
I200
tp1929
sg15
(I600
I600
tp1930
ss(g656
g29
tp1931
(dp1932
g13
(I109
I190
tp1933
sg15
(I751
I346
tp1934
ss(g17
g176
tp1935
(dp1936
g13
(I200
I0
tp1937
sg15
(I0
I1000
tp1938
ss(g132
g62
tp1939
(dp1940
g13
(I200
I200
tp1941
sg15
(I600
I600
tp1942
ss(g73
g400
tp1943
(dp1944
g13
(I198
I198
tp1945
sg15
(I597
I597
tp1946
ss(g23
g285
tp1947
(dp1948
g13
(I200
I200
tp1949
sg15
(I600
I600
tp1950
ss(g61
g23
tp1951
(dp1952
g13
(I200
I200
tp1953
sg15
(I600
I600
tp1954
ss(g111
g117
tp1955
(dp1956
g13
(I150
I200
tp1957
sg15
(I700
I450
tp1958
ss(g371
g262
tp1959
(dp1960
g13
(I200
I200
tp1961
sg15
(I600
I600
tp1962
ss(g166
g362
tp1963
(dp1964
g13
(I60
I58
tp1965
sg15
(I331
I341
tp1966
ss(g84
g371
tp1967
(dp1968
g13
(I167
I10
tp1969
sg15
(I64
I849
tp1970
ss(g111
g472
tp1971
(dp1972
g13
(I150
I200
tp1973
sg15
(I700
I450
tp1974
ss(g371
g425
tp1975
(dp1976
g13
(I200
I200
tp1977
sg15
(I600
I600
tp1978
ss(g295
g137
tp1979
(dp1980
g13
(I198
I199
tp1981
sg15
(I600
I595
tp1982
ss(g132
g450
tp1983
(dp1984
g13
(I200
I200
tp1985
sg15
(I600
I600
tp1986
ss(g116
g74
tp1987
(dp1988
g13
(I200
I0
tp1989
sg15
(I0
I1000
tp1990
ss(g186
g555
tp1991
(dp1992
g13
(I88
I104
tp1993
sg15
(I524
I444
tp1994
ss(g96
g137
tp1995
(dp1996
g13
(I200
I200
tp1997
sg15
(I600
I600
tp1998
ss(g216
g285
tp1999
(dp2000
g13
(I200
I200
tp2001
sg15
(I600
I600
tp2002
ss(g400
g74
tp2003
(dp2004
g13
(I200
I0
tp2005
sg15
(I0
I1000
tp2006
ss(g131
g276
tp2007
(dp2008
g13
(I200
I1
tp2009
sg15
(I3
I998
tp2010
ss(g111
g230
tp2011
(dp2012
g13
(I150
I18
tp2013
sg15
(I112
I772
tp2014
ss(g371
g248
tp2015
(dp2016
g13
(I200
I200
tp2017
sg15
(I600
I600
tp2018
ss(g1054
g62
tp2019
(dp2020
g13
(I200
I200
tp2021
sg15
(I600
I600
tp2022
ss(g116
g195
tp2023
(dp2024
g13
(I0
I200
tp2025
sg15
(I1000
I0
tp2026
ss(g126
g425
tp2027
(dp2028
g13
(I200
I200
tp2029
sg15
(I600
I600
tp2030
ss(g46
g249
tp2031
(dp2032
g13
(I100
I100
tp2033
sg15
(I500
I500
tp2034
ss(g186
g101
tp2035
(dp2036
g13
(I15
I2
tp2037
sg15
(I191
I256
tp2038
ss(g101
g41
tp2039
(dp2040
g13
(I11
I10
tp2041
sg15
(I229
I234
tp2042
ss(g29
g29
tp2043
(dp2044
g13
(I151
I151
tp2045
sg15
(I502
I502
tp2046
ss(g195
g142
tp2047
(dp2048
g13
(I200
I200
tp2049
sg15
(I600
I600
tp2050
ss(g90
g73
tp2051
(dp2052
g13
(I8
I195
tp2053
sg15
(I968
I33
tp2054
ss(g295
g555
tp2055
(dp2056
g13
(I4
I193
tp2057
sg15
(I968
I23
tp2058
ss(g61
g230
tp2059
(dp2060
g13
(I200
I200
tp2061
sg15
(I600
I600
tp2062
ss(g29
g400
tp2063
(dp2064
g13
(I186
I113
tp2065
sg15
(I366
I731
tp2066
ss(g79
g101
tp2067
(dp2068
g13
(I200
I2
tp2069
sg15
(I6
I996
tp2070
ss(g126
g85
tp2071
(dp2072
g13
(I200
I200
tp2073
sg15
(I600
I600
tp2074
ss(g9
g102
tp2075
(dp2076
g13
(I0
I1
tp2077
sg15
(I204
I199
tp2078
ss(g230
g555
tp2079
(dp2080
g13
(I16
I168
tp2081
sg15
(I848
I88
tp2082
ss(g656
g147
tp2083
(dp2084
g13
(I10
I11
tp2085
sg15
(I234
I229
tp2086
ss(g132
g262
tp2087
(dp2088
g13
(I200
I200
tp2089
sg15
(I600
I600
tp2090
ss(g243
g101
tp2091
(dp2092
g13
(I19
I2
tp2093
sg15
(I187
I272
tp2094
ss(g271
g148
tp2095
(dp2096
g13
(I200
I200
tp2097
sg15
(I600
I600
tp2098
ss(g249
g285
tp2099
(dp2100
g13
(I200
I200
tp2101
sg15
(I600
I600
tp2102
ss(g116
g248
tp2103
(dp2104
g13
(I99
I101
tp2105
sg15
(I480
I470
tp2106
ss(g79
g186
tp2107
(dp2108
g13
(I200
I200
tp2109
sg15
(I600
I600
tp2110
ss(g243
g555
tp2111
(dp2112
g13
(I154
I27
tp2113
sg15
(I145
I780
tp2114
ss(g62
g177
tp2115
(dp2116
g13
(I200
I0
tp2117
sg15
(I0
I1000
tp2118
ss(g165
g195
tp2119
(dp2120
g13
(I0
I200
tp2121
sg15
(I1000
I0
tp2122
ss(g35
g317
tp2123
(dp2124
g13
(I182
I19
tp2125
sg15
(I75
I890
tp2126
ss(g47
g85
tp2127
(dp2128
g13
(I200
I200
tp2129
sg15
(I600
I600
tp2130
ss(g371
g171
tp2131
(dp2132
g13
(I200
I200
tp2133
sg15
(I600
I600
tp2134
ss(g248
g308
tp2135
(dp2136
g13
(I200
I200
tp2137
sg15
(I600
I600
tp2138
ss(g126
g10
tp2139
(dp2140
g13
(I198
I198
tp2141
sg15
(I597
I597
tp2142
ss(g102
g74
tp2143
(dp2144
g13
(I200
I0
tp2145
sg15
(I0
I1000
tp2146
ss(g116
g30
tp2147
(dp2148
g13
(I200
I0
tp2149
sg15
(I0
I1000
tp2150
ss(g18
g177
tp2151
(dp2152
g13
(I200
I0
tp2153
sg15
(I0
I1000
tp2154
ss(g67
g74
tp2155
(dp2156
g13
(I200
I0
tp2157
sg15
(I0
I1000
tp2158
ss(g526
g166
tp2159
(dp2160
g13
(I0
I200
tp2161
sg15
(I1000
I0
tp2162
ss(g74
g74
tp2163
(dp2164
g13
(I200
I0
tp2165
sg15
(I0
I1000
tp2166
ss(g526
g102
tp2167
(dp2168
g13
(I183
I16
tp2169
sg15
(I81
I916
tp2170
ss(g116
g472
tp2171
(dp2172
g13
(I98
I101
tp2173
sg15
(I474
I459
tp2174
ss(g10
g362
tp2175
(dp2176
g13
(I199
I198
tp2177
sg15
(I596
I601
tp2178
ss(g271
g52
tp2179
(dp2180
g13
(I200
I200
tp2181
sg15
(I600
I600
tp2182
ss(g450
g276
tp2183
(dp2184
g13
(I98
I189
tp2185
sg15
(I768
I313
tp2186
ss(g41
g41
tp2187
(dp2188
g13
(I200
I200
tp2189
sg15
(I600
I600
tp2190
ss(g91
g248
tp2191
(dp2192
g13
(I134
I200
tp2193
sg15
(I732
I402
tp2194
ss(g9
g36
tp2195
(dp2196
g13
(I0
I0
tp2197
sg15
(I200
I200
tp2198
ss(g317
g148
tp2199
(dp2200
g13
(I168
I32
tp2201
sg15
(I144
I824
tp2202
ss(g23
g171
tp2203
(dp2204
g13
(I200
I200
tp2205
sg15
(I600
I600
tp2206
ss(g555
g467
tp2207
(dp2208
g13
(I200
I0
tp2209
sg15
(I0
I1000
tp2210
ss(g526
g30
tp2211
(dp2212
g13
(I200
I0
tp2213
sg15
(I0
I1000
tp2214
ss(g35
g295
tp2215
(dp2216
g13
(I182
I14
tp2217
sg15
(I64
I904
tp2218
ss(g9
g230
tp2219
(dp2220
g13
(I0
I1
tp2221
sg15
(I204
I199
tp2222
ss(g61
g400
tp2223
(dp2224
g13
(I200
I200
tp2225
sg15
(I600
I600
tp2226
ss(g18
g52
tp2227
(dp2228
g13
(I2
I1
tp2229
sg15
(I202
I207
tp2230
ss(g84
g362
tp2231
(dp2232
g13
(I167
I165
tp2233
sg15
(I560
I570
tp2234
ss(g62
g467
tp2235
(dp2236
g13
(I200
I0
tp2237
sg15
(I0
I1000
tp2238
ss(g23
g177
tp2239
(dp2240
g13
(I200
I0
tp2241
sg15
(I0
I1000
tp2242
ss(g17
g41
tp2243
(dp2244
g13
(I200
I200
tp2245
sg15
(I600
I600
tp2246
ss(g91
g262
tp2247
(dp2248
g13
(I134
I8
tp2249
sg15
(I92
I722
tp2250
ss(g79
g142
tp2251
(dp2252
g13
(I200
I200
tp2253
sg15
(I600
I600
tp2254
ss(g62
g216
tp2255
(dp2256
g13
(I200
I200
tp2257
sg15
(I600
I600
tp2258
ss(g111
g166
tp2259
(dp2260
g13
(I150
I33
tp2261
sg15
(I155
I740
tp2262
ss(g656
g450
tp2263
(dp2264
g13
(I200
I200
tp2265
sg15
(I600
I600
tp2266
ss(g137
g176
tp2267
(dp2268
g13
(I200
I0
tp2269
sg15
(I0
I1000
tp2270
ss(g249
g10
tp2271
(dp2272
g13
(I1
I101
tp2273
sg15
(I602
I102
tp2274
ss(g425
g262
tp2275
(dp2276
g13
(I200
I200
tp2277
sg15
(I600
I600
tp2278
ss(g137
g137
tp2279
(dp2280
g13
(I200
I200
tp2281
sg15
(I600
I600
tp2282
ss(g111
g126
tp2283
(dp2284
g13
(I150
I151
tp2285
sg15
(I553
I548
tp2286
ss(g295
g295
tp2287
(dp2288
g13
(I198
I198
tp2289
sg15
(I596
I596
tp2290
ss(g216
g177
tp2291
(dp2292
g13
(I200
I0
tp2293
sg15
(I0
I1000
tp2294
ss(g165
g243
tp2295
(dp2296
g13
(I0
I10
tp2297
sg15
(I240
I190
tp2298
ss(g9
g195
tp2299
(dp2300
g13
(I197
I200
tp2301
sg15
(I606
I591
tp2302
ss(g148
g102
tp2303
(dp2304
g13
(I2
I1
tp2305
sg15
(I201
I206
tp2306
ss(g18
g148
tp2307
(dp2308
g13
(I2
I1
tp2309
sg15
(I202
I207
tp2310
ss(g116
g101
tp2311
(dp2312
g13
(I197
I2
tp2313
sg15
(I10
I985
tp2314
ss(g126
g249
tp2315
(dp2316
g13
(I100
I100
tp2317
sg15
(I500
I500
tp2318
ss(g721
g285
tp2319
(dp2320
g13
(I200
I200
tp2321
sg15
(I600
I600
tp2322
ss(g90
g117
tp2323
(dp2324
g13
(I198
I200
tp2325
sg15
(I604
I594
tp2326
ss(g131
g85
tp2327
(dp2328
g13
(I200
I200
tp2329
sg15
(I600
I600
tp2330
ss(g41
g195
tp2331
(dp2332
g13
(I200
I200
tp2333
sg15
(I600
I600
tp2334
ss(g132
g147
tp2335
(dp2336
g13
(I200
I199
tp2337
sg15
(I597
I602
tp2338
ss(g656
g262
tp2339
(dp2340
g13
(I200
I200
tp2341
sg15
(I600
I600
tp2342
ss(g132
g656
tp2343
(dp2344
g13
(I200
I200
tp2345
sg15
(I600
I600
tp2346
ss(g555
g176
tp2347
(dp2348
g13
(I199
I0
tp2349
sg15
(I1
I996
tp2350
ss(g177
g177
tp2351
(dp2352
g13
(I200
I0
tp2353
sg15
(I0
I1000
tp2354
ss(g308
g467
tp2355
(dp2356
g13
(I200
I0
tp2357
sg15
(I0
I1000
tp2358
ss(g295
g721
tp2359
(dp2360
g13
(I198
I200
tp2361
sg15
(I604
I594
tp2362
ss(g362
g102
tp2363
(dp2364
g13
(I180
I179
tp2365
sg15
(I559
I564
tp2366
ss(g111
g68
tp2367
(dp2368
g13
(I150
I150
tp2369
sg15
(I500
I500
tp2370
ss(g526
g68
tp2371
(dp2372
g13
(I199
I199
tp2373
sg15
(I598
I598
tp2374
ss(g132
g176
tp2375
(dp2376
g13
(I200
I0
tp2377
sg15
(I0
I1000
tp2378
ss(g23
g10
tp2379
(dp2380
g13
(I196
I195
tp2381
sg15
(I592
I597
tp2382
ss(g295
g467
tp2383
(dp2384
g13
(I200
I0
tp2385
sg15
(I0
I1000
tp2386
ss(g101
g142
tp2387
(dp2388
g13
(I3
I2
tp2389
sg15
(I205
I210
tp2390
ss(g73
g96
tp2391
(dp2392
g13
(I198
I5
tp2393
sg15
(I18
I983
tp2394
ss(g90
g52
tp2395
(dp2396
g13
(I198
I199
tp2397
sg15
(I600
I595
tp2398
ss(g1054
g295
tp2399
(dp2400
g13
(I200
I198
tp2401
sg15
(I594
I604
tp2402
ss(g230
g36
tp2403
(dp2404
g13
(I1
I1
tp2405
sg15
(I203
I203
tp2406
ss(g1054
g10
tp2407
(dp2408
g13
(I200
I2
tp2409
sg15
(I6
I996
tp2410
ss(g35
g117
tp2411
(dp2412
g13
(I182
I200
tp2413
sg15
(I636
I546
tp2414
ss(g166
g230
tp2415
(dp2416
g13
(I200
I200
tp2417
sg15
(I600
I600
tp2418
ss(g46
g52
tp2419
(dp2420
g13
(I100
I9
tp2421
sg15
(I135
I590
tp2422
ss(g294
g74
tp2423
(dp2424
g13
(I200
I0
tp2425
sg15
(I0
I1000
tp2426
ss(g555
g74
tp2427
(dp2428
g13
(I200
I0
tp2429
sg15
(I0
I1000
tp2430
ss(g67
g555
tp2431
(dp2432
g13
(I200
I0
tp2433
sg15
(I0
I1000
tp2434
ss(g721
g96
tp2435
(dp2436
g13
(I200
I200
tp2437
sg15
(I600
I600
tp2438
ss(g61
g142
tp2439
(dp2440
g13
(I200
I200
tp2441
sg15
(I600
I600
tp2442
ss(g371
g147
tp2443
(dp2444
g13
(I10
I10
tp2445
sg15
(I221
I221
tp2446
ss(g101
g137
tp2447
(dp2448
g13
(I198
I198
tp2449
sg15
(I597
I597
tp2450
ss(g84
g472
tp2451
(dp2452
g13
(I167
I200
tp2453
sg15
(I666
I501
tp2454
ss(g1054
g721
tp2455
(dp2456
g13
(I200
I200
tp2457
sg15
(I600
I600
tp2458
ss(g1054
g85
tp2459
(dp2460
g13
(I200
I200
tp2461
sg15
(I600
I600
tp2462
ss(g517
g467
tp2463
(dp2464
g13
(I200
I0
tp2465
sg15
(I0
I1000
tp2466
ss(g116
g526
tp2467
(dp2468
g13
(I1
I199
tp2469
sg15
(I994
I4
tp2470
ss(g294
g117
tp2471
(dp2472
g13
(I200
I200
tp2473
sg15
(I600
I600
tp2474
ss(g91
g276
tp2475
(dp2476
g13
(I134
I158
tp2477
sg15
(I570
I450
tp2478
ss(g171
g102
tp2479
(dp2480
g13
(I151
I150
tp2481
sg15
(I501
I506
tp2482
ss(g371
g176
tp2483
(dp2484
g13
(I200
I0
tp2485
sg15
(I0
I1000
tp2486
ss(g131
g166
tp2487
(dp2488
g13
(I200
I200
tp2489
sg15
(I600
I600
tp2490
ss(g131
g102
tp2491
(dp2492
g13
(I200
I1
tp2493
sg15
(I3
I998
tp2494
ss(g317
g166
tp2495
(dp2496
g13
(I191
I9
tp2497
sg15
(I43
I953
tp2498
ss(g132
g17
tp2499
(dp2500
g13
(I200
I200
tp2501
sg15
(I600
I600
tp2502
ss(g317
g116
tp2503
(dp2504
g13
(I200
I0
tp2505
sg15
(I0
I1000
tp2506
ss(g132
g117
tp2507
(dp2508
g13
(I200
I200
tp2509
sg15
(I600
I600
tp2510
ss(g96
g47
tp2511
(dp2512
g13
(I200
I200
tp2513
sg15
(I600
I600
tp2514
ss(g171
g147
tp2515
(dp2516
g13
(I200
I199
tp2517
sg15
(I597
I602
tp2518
ss(g116
g362
tp2519
(dp2520
g13
(I99
I100
tp2521
sg15
(I451
I446
tp2522
ss(g165
g308
tp2523
(dp2524
g13
(I0
I1
tp2525
sg15
(I204
I199
tp2526
ss(g165
g62
tp2527
(dp2528
g13
(I0
I1
tp2529
sg15
(I204
I199
tp2530
ss(g1054
g126
tp2531
(dp2532
g13
(I200
I200
tp2533
sg15
(I600
I600
tp2534
ss(g165
g52
tp2535
(dp2536
g13
(I0
I1
tp2537
sg15
(I204
I199
tp2538
ss(g131
g90
tp2539
(dp2540
g13
(I200
I198
tp2541
sg15
(I594
I604
tp2542
ss(g62
g62
tp2543
(dp2544
g13
(I200
I200
tp2545
sg15
(I600
I600
tp2546
ss(g111
g165
tp2547
(dp2548
g13
(I150
I0
tp2549
sg15
(I50
I800
tp2550
ss(g147
g216
tp2551
(dp2552
g13
(I199
I199
tp2553
sg15
(I598
I598
tp2554
ss(g111
g467
tp2555
(dp2556
g13
(I200
I0
tp2557
sg15
(I0
I1000
tp2558
ss(g472
g472
tp2559
(dp2560
g13
(I200
I200
tp2561
sg15
(I600
I600
tp2562
ss(g41
g285
tp2563
(dp2564
g13
(I200
I200
tp2565
sg15
(I600
I600
tp2566
ss(g166
g52
tp2567
(dp2568
g13
(I200
I200
tp2569
sg15
(I600
I600
tp2570
ss(g91
g85
tp2571
(dp2572
g13
(I134
I101
tp2573
sg15
(I402
I567
tp2574
ss(g68
g30
tp2575
(dp2576
g13
(I200
I0
tp2577
sg15
(I0
I1000
tp2578
ss(g73
g47
tp2579
(dp2580
g13
(I197
I189
tp2581
sg15
(I572
I612
tp2582
ss(g79
g295
tp2583
(dp2584
g13
(I200
I198
tp2585
sg15
(I594
I604
tp2586
ss(g171
g221
tp2587
(dp2588
g13
(I161
I159
tp2589
sg15
(I542
I552
tp2590
ss(g221
g177
tp2591
(dp2592
g13
(I200
I0
tp2593
sg15
(I0
I1000
tp2594
ss(g656
g517
tp2595
(dp2596
g13
(I200
I200
tp2597
sg15
(I600
I600
tp2598
ss(g9
g111
tp2599
(dp2600
g13
(I1
I150
tp2601
sg15
(I799
I54
tp2602
ss(g450
g216
tp2603
(dp2604
g13
(I200
I200
tp2605
sg15
(I600
I600
tp2606
ss(g165
g36
tp2607
(dp2608
g13
(I0
I0
tp2609
sg15
(I200
I200
tp2610
ss(g137
g85
tp2611
(dp2612
g13
(I200
I200
tp2613
sg15
(I600
I600
tp2614
ss(g425
g30
tp2615
(dp2616
g13
(I200
I0
tp2617
sg15
(I0
I1000
tp2618
ss(g165
g148
tp2619
(dp2620
g13
(I0
I1
tp2621
sg15
(I204
I199
tp2622
ss(g131
g656
tp2623
(dp2624
g13
(I200
I200
tp2625
sg15
(I600
I600
tp2626
ss(g67
g142
tp2627
(dp2628
g13
(I140
I106
tp2629
sg15
(I414
I584
tp2630
ss(g117
g262
tp2631
(dp2632
g13
(I200
I200
tp2633
sg15
(I600
I600
tp2634
ss(g165
g555
tp2635
(dp2636
g13
(I0
I0
tp2637
sg15
(I200
I200
tp2638
ss(g24
g74
tp2639
(dp2640
g13
(I200
I0
tp2641
sg15
(I0
I1000
tp2642
ss(g116
g216
tp2643
(dp2644
g13
(I100
I100
tp2645
sg15
(I400
I400
tp2646
ss(g17
g400
tp2647
(dp2648
g13
(I200
I200
tp2649
sg15
(I600
I600
tp2650
ss(g171
g17
tp2651
(dp2652
g13
(I200
I200
tp2653
sg15
(I600
I600
tp2654
ss(g73
g176
tp2655
(dp2656
g13
(I200
I0
tp2657
sg15
(I0
I1000
tp2658
ss(g35
g166
tp2659
(dp2660
g13
(I182
I18
tp2661
sg15
(I75
I895
tp2662
ss(g90
g1054
tp2663
(dp2664
g13
(I198
I200
tp2665
sg15
(I604
I594
tp2666
ss(g243
g248
tp2667
(dp2668
g13
(I200
I200
tp2669
sg15
(I600
I600
tp2670
ss(g23
g17
tp2671
(dp2672
g13
(I200
I200
tp2673
sg15
(I600
I600
tp2674
ss(g67
g41
tp2675
(dp2676
g13
(I186
I56
tp2677
sg15
(I189
I839
tp2678
ss(g147
g52
tp2679
(dp2680
g13
(I2
I1
tp2681
sg15
(I202
I207
tp2682
ss(g17
g555
tp2683
(dp2684
g13
(I29
I140
tp2685
sg15
(I717
I162
tp2686
ss(g1054
g101
tp2687
(dp2688
g13
(I200
I2
tp2689
sg15
(I6
I996
tp2690
ss(g165
g102
tp2691
(dp2692
g13
(I0
I10
tp2693
sg15
(I240
I190
tp2694
ss(g9
g526
tp2695
(dp2696
g13
(I0
I199
tp2697
sg15
(I996
I1
tp2698
ss(g47
g117
tp2699
(dp2700
g13
(I200
I200
tp2701
sg15
(I600
I600
tp2702
ss(g9
g371
tp2703
(dp2704
g13
(I8
I10
tp2705
sg15
(I225
I215
tp2706
ss(g165
g400
tp2707
(dp2708
g13
(I0
I1
tp2709
sg15
(I204
I199
tp2710
ss(g116
g166
tp2711
(dp2712
g13
(I0
I200
tp2713
sg15
(I1000
I0
tp2714
ss(g166
g262
tp2715
(dp2716
g13
(I200
I200
tp2717
sg15
(I600
I600
tp2718
ss(g294
g148
tp2719
(dp2720
g13
(I200
I200
tp2721
sg15
(I600
I600
tp2722
ss(g96
g177
tp2723
(dp2724
g13
(I200
I0
tp2725
sg15
(I0
I1000
tp2726
ss(g126
g262
tp2727
(dp2728
g13
(I200
I200
tp2729
sg15
(I600
I600
tp2730
ss(g517
g36
tp2731
(dp2732
g13
(I1
I1
tp2733
sg15
(I203
I203
tp2734
ss(g9
g177
tp2735
(dp2736
g13
(I200
I0
tp2737
sg15
(I0
I1000
tp2738
ss(g41
g467
tp2739
(dp2740
g13
(I200
I0
tp2741
sg15
(I0
I1000
tp2742
ss(g84
g230
tp2743
(dp2744
g13
(I167
I14
tp2745
sg15
(I84
I849
tp2746
ss(g10
g85
tp2747
(dp2748
g13
(I198
I199
tp2749
sg15
(I600
I595
tp2750
ss(g362
g142
tp2751
(dp2752
g13
(I3
I2
tp2753
sg15
(I205
I210
tp2754
ss(g243
g221
tp2755
(dp2756
g13
(I179
I87
tp2757
sg15
(I296
I756
tp2758
ss(g73
g91
tp2759
(dp2760
g13
(I200
I134
tp2761
sg15
(I402
I732
tp2762
ss(g96
g171
tp2763
(dp2764
g13
(I200
I200
tp2765
sg15
(I600
I600
tp2766
ss(g371
g96
tp2767
(dp2768
g13
(I200
I200
tp2769
sg15
(I600
I600
tp2770
ss(g526
g24
tp2771
(dp2772
g13
(I199
I198
tp2773
sg15
(I595
I600
tp2774
ss(g126
g216
tp2775
(dp2776
g13
(I200
I200
tp2777
sg15
(I600
I600
tp2778
ss(g165
g285
tp2779
(dp2780
g13
(I200
I200
tp2781
sg15
(I600
I600
tp2782
ss(g61
g132
tp2783
(dp2784
g13
(I200
I200
tp2785
sg15
(I600
I600
tp2786
ss(g137
g30
tp2787
(dp2788
g13
(I200
I0
tp2789
sg15
(I0
I1000
tp2790
ss(g362
g216
tp2791
(dp2792
g13
(I1
I0
tp2793
sg15
(I199
I204
tp2794
ss(g148
g276
tp2795
(dp2796
g13
(I104
I187
tp2797
sg15
(I750
I335
tp2798
ss(g36
g285
tp2799
(dp2800
g13
(I200
I200
tp2801
sg15
(I600
I600
tp2802
ss(g17
g230
tp2803
(dp2804
g13
(I200
I200
tp2805
sg15
(I600
I600
tp2806
ss(g148
g400
tp2807
(dp2808
g13
(I200
I200
tp2809
sg15
(I600
I600
tp2810
ss(g73
g308
tp2811
(dp2812
g13
(I198
I196
tp2813
sg15
(I591
I601
tp2814
ss(g90
g165
tp2815
(dp2816
g13
(I4
I0
tp2817
sg15
(I196
I216
tp2818
ss(g526
g18
tp2819
(dp2820
g13
(I199
I2
tp2821
sg15
(I7
I992
tp2822
ss(g221
g285
tp2823
(dp2824
g13
(I200
I200
tp2825
sg15
(I600
I600
tp2826
ss(g101
g400
tp2827
(dp2828
g13
(I198
I198
tp2829
sg15
(I597
I597
tp2830
ss(g472
g656
tp2831
(dp2832
g13
(I200
I200
tp2833
sg15
(I600
I600
tp2834
ss(g248
g176
tp2835
(dp2836
g13
(I200
I0
tp2837
sg15
(I0
I1000
tp2838
ss(g295
g276
tp2839
(dp2840
g13
(I5
I195
tp2841
sg15
(I974
I24
tp2842
ss(g24
g262
tp2843
(dp2844
g13
(I199
I11
tp2845
sg15
(I35
I975
tp2846
ss(g165
g467
tp2847
(dp2848
g13
(I200
I0
tp2849
sg15
(I0
I1000
tp2850
ss(g472
g74
tp2851
(dp2852
g13
(I200
I0
tp2853
sg15
(I0
I1000
tp2854
ss(g195
g177
tp2855
(dp2856
g13
(I200
I0
tp2857
sg15
(I0
I1000
tp2858
ss(g425
g171
tp2859
(dp2860
g13
(I200
I200
tp2861
sg15
(I600
I600
tp2862
ss(g52
g216
tp2863
(dp2864
g13
(I200
I200
tp2865
sg15
(I600
I600
tp2866
ss(g721
g24
tp2867
(dp2868
g13
(I199
I199
tp2869
sg15
(I599
I599
tp2870
ss(g721
g221
tp2871
(dp2872
g13
(I133
I123
tp2873
sg15
(I496
I546
tp2874
ss(g90
g271
tp2875
(dp2876
g13
(I198
I199
tp2877
sg15
(I600
I595
tp2878
ss(g248
g52
tp2879
(dp2880
g13
(I200
I200
tp2881
sg15
(I600
I600
tp2882
ss(g41
g68
tp2883
(dp2884
g13
(I200
I200
tp2885
sg15
(I600
I600
tp2886
ss(g73
g165
tp2887
(dp2888
g13
(I200
I0
tp2889
sg15
(I0
I1000
tp2890
ss(g36
g221
tp2891
(dp2892
g13
(I169
I170
tp2893
sg15
(I557
I552
tp2894
ss(g61
g176
tp2895
(dp2896
g13
(I200
I0
tp2897
sg15
(I0
I1000
tp2898
ss(g46
g61
tp2899
(dp2900
g13
(I100
I100
tp2901
sg15
(I450
I450
tp2902
ss(g17
g177
tp2903
(dp2904
g13
(I200
I0
tp2905
sg15
(I0
I1000
tp2906
ss(g400
g142
tp2907
(dp2908
g13
(I200
I200
tp2909
sg15
(I600
I600
tp2910
ss(g23
g230
tp2911
(dp2912
g13
(I200
I200
tp2913
sg15
(I600
I600
tp2914
ss(g271
g30
tp2915
(dp2916
g13
(I200
I0
tp2917
sg15
(I0
I1000
tp2918
ss(g111
g74
tp2919
(dp2920
g13
(I200
I0
tp2921
sg15
(I0
I1000
tp2922
ss(g271
g656
tp2923
(dp2924
g13
(I200
I200
tp2925
sg15
(I600
I600
tp2926
ss(g1054
g177
tp2927
(dp2928
g13
(I200
I0
tp2929
sg15
(I0
I1000
tp2930
ss(g166
g517
tp2931
(dp2932
g13
(I200
I200
tp2933
sg15
(I600
I600
tp2934
ss(g243
g41
tp2935
(dp2936
g13
(I200
I200
tp2937
sg15
(I600
I600
tp2938
ss(g317
g262
tp2939
(dp2940
g13
(I191
I9
tp2941
sg15
(I43
I953
tp2942
ss(g46
g46
tp2943
(dp2944
g13
(I100
I100
tp2945
sg15
(I400
I400
tp2946
ss(g243
g52
tp2947
(dp2948
g13
(I200
I200
tp2949
sg15
(I600
I600
tp2950
ss(g294
g472
tp2951
(dp2952
g13
(I200
I200
tp2953
sg15
(I600
I600
tp2954
ss(g96
g142
tp2955
(dp2956
g13
(I200
I200
tp2957
sg15
(I600
I600
tp2958
ss(g147
g195
tp2959
(dp2960
g13
(I199
I200
tp2961
sg15
(I602
I597
tp2962
ss(g131
g285
tp2963
(dp2964
g13
(I200
I200
tp2965
sg15
(I600
I600
tp2966
ss(g400
g137
tp2967
(dp2968
g13
(I200
I200
tp2969
sg15
(I600
I600
tp2970
ss(g165
g249
tp2971
(dp2972
g13
(I0
I1
tp2973
sg15
(I204
I199
tp2974
ss(g102
g177
tp2975
(dp2976
g13
(I200
I0
tp2977
sg15
(I0
I1000
tp2978
ss(g116
g243
tp2979
(dp2980
g13
(I30
I170
tp2981
sg15
(I840
I140
tp2982
ss(g131
g450
tp2983
(dp2984
g13
(I200
I200
tp2985
sg15
(I600
I600
tp2986
ss(g62
g249
tp2987
(dp2988
g13
(I1
I1
tp2989
sg15
(I203
I203
tp2990
ss(g52
g68
tp2991
(dp2992
g13
(I200
I200
tp2993
sg15
(I600
I600
tp2994
ss(g91
g656
tp2995
(dp2996
g13
(I134
I16
tp2997
sg15
(I128
I718
tp2998
ss(g132
g271
tp2999
(dp3000
g13
(I200
I200
tp3001
sg15
(I600
I600
tp3002
ss(g61
g47
tp3003
(dp3004
g13
(I200
I200
tp3005
sg15
(I600
I600
tp3006
ss(g294
g165
tp3007
(dp3008
g13
(I200
I0
tp3009
sg15
(I0
I1000
tp3010
ss(g46
g62
tp3011
(dp3012
g13
(I100
I2
tp3013
sg15
(I107
I597
tp3014
ss(g171
g24
tp3015
(dp3016
g13
(I200
I199
tp3017
sg15
(I597
I602
tp3018
ss(g67
g230
tp3019
(dp3020
g13
(I186
I56
tp3021
sg15
(I189
I839
tp3022
ss(g317
g308
tp3023
(dp3024
g13
(I133
I68
tp3025
sg15
(I305
I630
tp3026
ss(g24
g195
tp3027
(dp3028
g13
(I199
I200
tp3029
sg15
(I602
I597
tp3030
ss(g73
g68
tp3031
(dp3032
g13
(I199
I199
tp3033
sg15
(I598
I598
tp3034
ss(g23
g400
tp3035
(dp3036
g13
(I200
I200
tp3037
sg15
(I600
I600
tp3038
ss(g271
g166
tp3039
(dp3040
g13
(I200
I200
tp3041
sg15
(I600
I600
tp3042
ss(g317
g472
tp3043
(dp3044
g13
(I97
I103
tp3045
sg15
(I482
I452
tp3046
ss(g243
g29
tp3047
(dp3048
g13
(I29
I184
tp3049
sg15
(I893
I118
tp3050
ss(g85
g216
tp3051
(dp3052
g13
(I200
I200
tp3053
sg15
(I600
I600
tp3054
ss(g116
g1054
tp3055
(dp3056
g13
(I0
I200
tp3057
sg15
(I1000
I0
tp3058
ss(g9
g35
tp3059
(dp3060
g13
(I0
I182
tp3061
sg15
(I928
I18
tp3062
ss(g73
g41
tp3063
(dp3064
g13
(I198
I179
tp3065
sg15
(I540
I635
tp3066
ss(g472
g117
tp3067
(dp3068
g13
(I200
I200
tp3069
sg15
(I600
I600
tp3070
ss(g116
g276
tp3071
(dp3072
g13
(I0
I200
tp3073
sg15
(I1000
I0
tp3074
ss(g248
g24
tp3075
(dp3076
g13
(I199
I199
tp3077
sg15
(I599
I599
tp3078
ss(g9
g85
tp3079
(dp3080
g13
(I0
I100
tp3081
sg15
(I600
I100
tp3082
ss(g317
g137
tp3083
(dp3084
g13
(I100
I100
tp3085
sg15
(I450
I450
tp3086
ss(g96
g147
tp3087
(dp3088
g13
(I1
I2
tp3089
sg15
(I207
I202
tp3090
ss(g84
g67
tp3091
(dp3092
g13
(I167
I80
tp3093
sg15
(I281
I716
tp3094
ss(g425
g29
tp3095
(dp3096
g13
(I197
I106
tp3097
sg15
(I323
I778
tp3098
ss(g41
g137
tp3099
(dp3100
g13
(I200
I200
tp3101
sg15
(I600
I600
tp3102
ss(g131
g295
tp3103
(dp3104
g13
(I200
I198
tp3105
sg15
(I594
I604
tp3106
ss(g132
g74
tp3107
(dp3108
g13
(I200
I0
tp3109
sg15
(I0
I1000
tp3110
ss(g142
g74
tp3111
(dp3112
g13
(I200
I0
tp3113
sg15
(I0
I1000
tp3114
ss(g1054
g517
tp3115
(dp3116
g13
(I200
I200
tp3117
sg15
(I600
I600
tp3118
ss(g317
g656
tp3119
(dp3120
g13
(I168
I32
tp3121
sg15
(I144
I824
tp3122
ss(g126
g67
tp3123
(dp3124
g13
(I123
I123
tp3125
sg15
(I493
I493
tp3126
ss(g84
g79
tp3127
(dp3128
g13
(I167
I200
tp3129
sg15
(I666
I501
tp3130
ss(g165
g526
tp3131
(dp3132
g13
(I0
I199
tp3133
sg15
(I996
I1
tp3134
ss(g472
g308
tp3135
(dp3136
g13
(I200
I200
tp3137
sg15
(I600
I600
tp3138
ss(g61
g126
tp3139
(dp3140
g13
(I200
I200
tp3141
sg15
(I600
I600
tp3142
ss(g23
g29
tp3143
(dp3144
g13
(I197
I106
tp3145
sg15
(I323
I778
tp3146
ss(g73
g73
tp3147
(dp3148
g13
(I199
I199
tp3149
sg15
(I598
I598
tp3150
ss(g295
g526
tp3151
(dp3152
g13
(I4
I195
tp3153
sg15
(I976
I21
tp3154
ss(g243
g400
tp3155
(dp3156
g13
(I200
I200
tp3157
sg15
(I600
I600
tp3158
ss(g472
g517
tp3159
(dp3160
g13
(I200
I200
tp3161
sg15
(I600
I600
tp3162
ss(g90
g47
tp3163
(dp3164
g13
(I198
I200
tp3165
sg15
(I604
I594
tp3166
ss(g249
g400
tp3167
(dp3168
g13
(I2
I2
tp3169
sg15
(I206
I206
tp3170
ss(g248
g96
tp3171
(dp3172
g13
(I200
I200
tp3173
sg15
(I600
I600
tp3174
ss(g131
g73
tp3175
(dp3176
g13
(I200
I4
tp3177
sg15
(I12
I992
tp3178
ss(g1054
g41
tp3179
(dp3180
g13
(I200
I200
tp3181
sg15
(I600
I600
tp3182
ss(g9
g165
tp3183
(dp3184
g13
(I0
I0
tp3185
sg15
(I200
I200
tp3186
ss(g67
g276
tp3187
(dp3188
g13
(I48
I199
tp3189
sg15
(I900
I145
tp3190
ss(g61
g285
tp3191
(dp3192
g13
(I200
I200
tp3193
sg15
(I600
I600
tp3194
ss(g79
g243
tp3195
(dp3196
g13
(I200
I200
tp3197
sg15
(I600
I600
tp3198
ss(g17
g221
tp3199
(dp3200
g13
(I70
I186
tp3201
sg15
(I811
I231
tp3202
ss(g526
g271
tp3203
(dp3204
g13
(I198
I189
tp3205
sg15
(I570
I615
tp3206
ss(g9
g79
tp3207
(dp3208
g13
(I197
I200
tp3209
sg15
(I606
I591
tp3210
ss(g171
g148
tp3211
(dp3212
g13
(I200
I200
tp3213
sg15
(I600
I600
tp3214
ss(g29
g555
tp3215
(dp3216
g13
(I200
I0
tp3217
sg15
(I0
I1000
tp3218
ss(g165
g132
tp3219
(dp3220
g13
(I0
I2
tp3221
sg15
(I208
I198
tp3222
ss(g248
g285
tp3223
(dp3224
g13
(I200
I200
tp3225
sg15
(I600
I600
tp3226
ss(g91
g10
tp3227
(dp3228
g13
(I134
I133
tp3229
sg15
(I530
I535
tp3230
ss(g517
g137
tp3231
(dp3232
g13
(I200
I200
tp3233
sg15
(I600
I600
tp3234
ss(g1054
g294
tp3235
(dp3236
g13
(I200
I200
tp3237
sg15
(I600
I600
tp3238
ss(g90
g116
tp3239
(dp3240
g13
(I4
I195
tp3241
sg15
(I976
I21
tp3242
ss(g116
g176
tp3243
(dp3244
g13
(I199
I0
tp3245
sg15
(I1
I996
tp3246
ss(g450
g117
tp3247
(dp3248
g13
(I200
I200
tp3249
sg15
(I600
I600
tp3250
ss(g526
g526
tp3251
(dp3252
g13
(I199
I199
tp3253
sg15
(I598
I598
tp3254
ss(g186
g400
tp3255
(dp3256
g13
(I200
I200
tp3257
sg15
(I600
I600
tp3258
ss(g116
g721
tp3259
(dp3260
g13
(I96
I103
tp3261
sg15
(I482
I447
tp3262
ss(g400
g68
tp3263
(dp3264
g13
(I200
I200
tp3265
sg15
(I600
I600
tp3266
ss(g526
g450
tp3267
(dp3268
g13
(I198
I186
tp3269
sg15
(I561
I621
tp3270
ss(g526
g67
tp3271
(dp3272
g13
(I0
I200
tp3273
sg15
(I1000
I0
tp3274
ss(g721
g176
tp3275
(dp3276
g13
(I200
I0
tp3277
sg15
(I0
I1000
tp3278
ss(g73
g24
tp3279
(dp3280
g13
(I200
I199
tp3281
sg15
(I597
I602
tp3282
ss(g29
g102
tp3283
(dp3284
g13
(I199
I1
tp3285
sg15
(I4
I994
tp3286
ss(g35
g102
tp3287
(dp3288
g13
(I182
I1
tp3289
sg15
(I21
I926
tp3290
ss(g17
g249
tp3291
(dp3292
g13
(I1
I1
tp3293
sg15
(I203
I203
tp3294
ss(g35
g176
tp3295
(dp3296
g13
(I200
I0
tp3297
sg15
(I0
I1000
tp3298
ss(g35
g116
tp3299
(dp3300
g13
(I182
I18
tp3301
sg15
(I72
I892
tp3302
ss(g249
g148
tp3303
(dp3304
g13
(I1
I1
tp3305
sg15
(I203
I203
tp3306
ss(g117
g30
tp3307
(dp3308
g13
(I200
I0
tp3309
sg15
(I0
I1000
tp3310
ss(g243
g230
tp3311
(dp3312
g13
(I200
I200
tp3313
sg15
(I600
I600
tp3314
ss(g17
g24
tp3315
(dp3316
g13
(I198
I199
tp3317
sg15
(I601
I596
tp3318
ss(g101
g216
tp3319
(dp3320
g13
(I198
I198
tp3321
sg15
(I596
I596
tp3322
ss(g35
g147
tp3323
(dp3324
g13
(I182
I199
tp3325
sg15
(I633
I548
tp3326
ss(g721
g101
tp3327
(dp3328
g13
(I189
I189
tp3329
sg15
(I588
I588
tp3330
ss(g73
g18
tp3331
(dp3332
g13
(I200
I2
tp3333
sg15
(I6
I996
tp3334
ss(g308
g17
tp3335
(dp3336
g13
(I200
I200
tp3337
sg15
(I600
I600
tp3338
ss(g186
g221
tp3339
(dp3340
g13
(I128
I102
tp3341
sg15
(I447
I577
tp3342
ss(g96
g362
tp3343
(dp3344
g13
(I1
I2
tp3345
sg15
(I207
I202
tp3346
ss(g61
g30
tp3347
(dp3348
g13
(I200
I0
tp3349
sg15
(I0
I1000
tp3350
ss(g526
g362
tp3351
(dp3352
g13
(I199
I199
tp3353
sg15
(I598
I598
tp3354
ss(g61
g249
tp3355
(dp3356
g13
(I67
I67
tp3357
sg15
(I401
I401
tp3358
ss(g132
g721
tp3359
(dp3360
g13
(I200
I200
tp3361
sg15
(I600
I600
tp3362
ss(g9
g171
tp3363
(dp3364
g13
(I0
I2
tp3365
sg15
(I208
I198
tp3366
ss(g46
g73
tp3367
(dp3368
g13
(I100
I200
tp3369
sg15
(I800
I300
tp3370
ss(g10
g36
tp3371
(dp3372
g13
(I200
I199
tp3373
sg15
(I597
I602
tp3374
ss(g517
g102
tp3375
(dp3376
g13
(I2
I2
tp3377
sg15
(I205
I205
tp3378
ss(g116
g132
tp3379
(dp3380
g13
(I197
I2
tp3381
sg15
(I11
I986
tp3382
ss(g295
g221
tp3383
(dp3384
g13
(I7
I195
tp3385
sg15
(I970
I30
tp3386
ss(g131
g68
tp3387
(dp3388
g13
(I200
I200
tp3389
sg15
(I600
I600
tp3390
ss(g317
g555
tp3391
(dp3392
g13
(I200
I0
tp3393
sg15
(I0
I1000
tp3394
ss(g84
g308
tp3395
(dp3396
g13
(I167
I102
tp3397
sg15
(I372
I697
tp3398
ss(g46
g176
tp3399
(dp3400
g13
(I200
I0
tp3401
sg15
(I0
I1000
tp3402
ss(g35
g91
tp3403
(dp3404
g13
(I182
I134
tp3405
sg15
(I432
I672
tp3406
ss(g9
g74
tp3407
(dp3408
g13
(I200
I0
tp3409
sg15
(I0
I1000
tp3410
ss(g308
g400
tp3411
(dp3412
g13
(I200
I200
tp3413
sg15
(I600
I600
tp3414
ss(g67
g137
tp3415
(dp3416
g13
(I123
I123
tp3417
sg15
(I493
I493
tp3418
ss(g91
g132
tp3419
(dp3420
g13
(I134
I6
tp3421
sg15
(I86
I726
tp3422
ss(g30
g30
tp3423
(dp3424
g13
(I200
I0
tp3425
sg15
(I0
I1000
tp3426
ss(g52
g85
tp3427
(dp3428
g13
(I200
I200
tp3429
sg15
(I600
I600
tp3430
ss(g35
g96
tp3431
(dp3432
g13
(I182
I2
tp3433
sg15
(I25
I925
tp3434
ss(g1054
g276
tp3435
(dp3436
g13
(I200
I1
tp3437
sg15
(I3
I998
tp3438
ss(g271
g36
tp3439
(dp3440
g13
(I1
I1
tp3441
sg15
(I203
I203
tp3442
ss(g116
g36
tp3443
(dp3444
g13
(I100
I100
tp3445
sg15
(I450
I450
tp3446
ss(g79
g276
tp3447
(dp3448
g13
(I200
I1
tp3449
sg15
(I3
I998
tp3450
ss(g62
g195
tp3451
(dp3452
g13
(I200
I200
tp3453
sg15
(I600
I600
tp3454
ss(g271
g276
tp3455
(dp3456
g13
(I101
I189
tp3457
sg15
(I763
I323
tp3458
ss(g117
g74
tp3459
(dp3460
g13
(I200
I0
tp3461
sg15
(I0
I1000
tp3462
ss(g294
g555
tp3463
(dp3464
g13
(I200
I0
tp3465
sg15
(I0
I1000
tp3466
ss(g79
g96
tp3467
(dp3468
g13
(I200
I200
tp3469
sg15
(I600
I600
tp3470
ss(g177
g467
tp3471
(dp3472
g13
(I200
I200
tp3473
sg15
(I600
I600
tp3474
ss(g425
g400
tp3475
(dp3476
g13
(I200
I200
tp3477
sg15
(I600
I600
tp3478
ss(g271
g96
tp3479
(dp3480
g13
(I200
I200
tp3481
sg15
(I600
I600
tp3482
ss(g90
g84
tp3483
(dp3484
g13
(I24
I167
tp3485
sg15
(I824
I109
tp3486
ss(g555
g285
tp3487
(dp3488
g13
(I200
I200
tp3489
sg15
(I600
I600
tp3490
ss(g294
g467
tp3491
(dp3492
g13
(I200
I0
tp3493
sg15
(I0
I1000
tp3494
ss(g46
g17
tp3495
(dp3496
g13
(I100
I18
tp3497
sg15
(I171
I581
tp3498
ss(g165
g221
tp3499
(dp3500
g13
(I0
I200
tp3501
sg15
(I1000
I0
tp3502
ss(g62
g230
tp3503
(dp3504
g13
(I200
I200
tp3505
sg15
(I600
I600
tp3506
ss(g132
g68
tp3507
(dp3508
g13
(I200
I200
tp3509
sg15
(I600
I600
tp3510
ss(g371
g295
tp3511
(dp3512
g13
(I199
I198
tp3513
sg15
(I595
I600
tp3514
ss(g517
g52
tp3515
(dp3516
g13
(I200
I200
tp3517
sg15
(I600
I600
tp3518
ss(g23
g249
tp3519
(dp3520
g13
(I195
I194
tp3521
sg15
(I592
I597
tp3522
ss(g555
g142
tp3523
(dp3524
g13
(I84
I57
tp3525
sg15
(I316
I451
tp3526
ss(g29
g177
tp3527
(dp3528
g13
(I200
I0
tp3529
sg15
(I0
I1000
tp3530
ss(g262
g74
tp3531
(dp3532
g13
(I200
I0
tp3533
sg15
(I0
I1000
tp3534
ss(g131
g371
tp3535
(dp3536
g13
(I200
I200
tp3537
sg15
(I600
I600
tp3538
ss(g62
g117
tp3539
(dp3540
g13
(I200
I200
tp3541
sg15
(I600
I600
tp3542
ss(g73
g101
tp3543
(dp3544
g13
(I200
I2
tp3545
sg15
(I6
I996
tp3546
ss(g62
g148
tp3547
(dp3548
g13
(I200
I200
tp3549
sg15
(I600
I600
tp3550
ss(g91
g91
tp3551
(dp3552
g13
(I134
I134
tp3553
sg15
(I468
I468
tp3554
ss(g249
g276
tp3555
(dp3556
g13
(I1
I199
tp3557
sg15
(I994
I4
tp3558
ss(g52
g36
tp3559
(dp3560
g13
(I1
I1
tp3561
sg15
(I203
I203
tp3562
ss(g18
g117
tp3563
(dp3564
g13
(I2
I5
tp3565
sg15
(I216
I201
tp3566
ss(g1054
g91
tp3567
(dp3568
g13
(I200
I134
tp3569
sg15
(I402
I732
tp3570
ss(g116
g41
tp3571
(dp3572
g13
(I176
I24
tp3573
sg15
(I104
I864
tp3574
ss(g10
g467
tp3575
(dp3576
g13
(I200
I0
tp3577
sg15
(I0
I1000
tp3578
ss(g472
g147
tp3579
(dp3580
g13
(I199
I199
tp3581
sg15
(I599
I599
tp3582
ss(g425
g17
tp3583
(dp3584
g13
(I200
I200
tp3585
sg15
(I600
I600
tp3586
ss(g79
g176
tp3587
(dp3588
g13
(I200
I0
tp3589
sg15
(I0
I1000
tp3590
ss(g195
g555
tp3591
(dp3592
g13
(I200
I0
tp3593
sg15
(I0
I1000
tp3594
ss(g84
g177
tp3595
(dp3596
g13
(I200
I0
tp3597
sg15
(I0
I1000
tp3598
ss(g362
g137
tp3599
(dp3600
g13
(I199
I199
tp3601
sg15
(I599
I599
tp3602
ss(g116
g23
tp3603
(dp3604
g13
(I93
I107
tp3605
sg15
(I504
I434
tp3606
ss(g79
g67
tp3607
(dp3608
g13
(I200
I1
tp3609
sg15
(I3
I998
tp3610
ss(g96
g41
tp3611
(dp3612
g13
(I200
I200
tp3613
sg15
(I600
I600
tp3614
ss(g126
g117
tp3615
(dp3616
g13
(I200
I200
tp3617
sg15
(I600
I600
tp3618
ss(g371
g285
tp3619
(dp3620
g13
(I200
I200
tp3621
sg15
(I600
I600
tp3622
ss(g46
g317
tp3623
(dp3624
g13
(I100
I100
tp3625
sg15
(I400
I400
tp3626
ss(g472
g68
tp3627
(dp3628
g13
(I200
I200
tp3629
sg15
(I600
I600
tp3630
ss(g472
g24
tp3631
(dp3632
g13
(I199
I199
tp3633
sg15
(I599
I599
tp3634
ss(g371
g221
tp3635
(dp3636
g13
(I10
I192
tp3637
sg15
(I955
I45
tp3638
ss(g47
g30
tp3639
(dp3640
g13
(I200
I0
tp3641
sg15
(I0
I1000
tp3642
ss(g400
g85
tp3643
(dp3644
g13
(I200
I200
tp3645
sg15
(I600
I600
tp3646
ss(g656
g36
tp3647
(dp3648
g13
(I10
I10
tp3649
sg15
(I230
I230
tp3650
ss(g35
g248
tp3651
(dp3652
g13
(I182
I200
tp3653
sg15
(I636
I546
tp3654
ss(g101
g47
tp3655
(dp3656
g13
(I2
I2
tp3657
sg15
(I206
I206
tp3658
ss(g400
g467
tp3659
(dp3660
g13
(I200
I0
tp3661
sg15
(I0
I1000
tp3662
ss(g67
g148
tp3663
(dp3664
g13
(I176
I68
tp3665
sg15
(I240
I780
tp3666
ss(g85
g85
tp3667
(dp3668
g13
(I200
I200
tp3669
sg15
(I600
I600
tp3670
ss(g166
g285
tp3671
(dp3672
g13
(I200
I200
tp3673
sg15
(I600
I600
tp3674
ss(g526
g656
tp3675
(dp3676
g13
(I198
I189
tp3677
sg15
(I570
I615
tp3678
ss(g472
g85
tp3679
(dp3680
g13
(I200
I200
tp3681
sg15
(I600
I600
tp3682
ss(g46
g24
tp3683
(dp3684
g13
(I100
I199
tp3685
sg15
(I797
I302
tp3686
ss(g262
g68
tp3687
(dp3688
g13
(I200
I200
tp3689
sg15
(I600
I600
tp3690
ss(g47
g276
tp3691
(dp3692
g13
(I112
I176
tp3693
sg15
(I703
I383
tp3694
ss(g317
g23
tp3695
(dp3696
g13
(I92
I108
tp3697
sg15
(I509
I429
tp3698
ss(g243
g47
tp3699
(dp3700
g13
(I200
I200
tp3701
sg15
(I600
I600
tp3702
ss(g35
g262
tp3703
(dp3704
g13
(I182
I14
tp3705
sg15
(I63
I903
tp3706
ss(g101
g517
tp3707
(dp3708
g13
(I2
I1
tp3709
sg15
(I202
I207
tp3710
ss(g23
g74
tp3711
(dp3712
g13
(I200
I0
tp3713
sg15
(I0
I1000
tp3714
ss(g656
g230
tp3715
(dp3716
g13
(I200
I200
tp3717
sg15
(I600
I600
tp3718
ss(g90
g10
tp3719
(dp3720
g13
(I6
I99
tp3721
sg15
(I588
I123
tp3722
ss(g147
g137
tp3723
(dp3724
g13
(I199
I199
tp3725
sg15
(I599
I599
tp3726
ss(g371
g148
tp3727
(dp3728
g13
(I200
I200
tp3729
sg15
(I600
I600
tp3730
ss(g111
g91
tp3731
(dp3732
g13
(I150
I134
tp3733
sg15
(I486
I566
tp3734
ss(g142
g276
tp3735
(dp3736
g13
(I131
I160
tp3737
sg15
(I609
I464
tp3738
ss(g294
g221
tp3739
(dp3740
g13
(I200
I3
tp3741
sg15
(I9
I994
tp3742
ss(g29
g147
tp3743
(dp3744
g13
(I152
I151
tp3745
sg15
(I549
I554
tp3746
ss(g721
g262
tp3747
(dp3748
g13
(I200
I200
tp3749
sg15
(I600
I600
tp3750
ss(g18
g262
tp3751
(dp3752
g13
(I2
I16
tp3753
sg15
(I260
I190
tp3754
ss(g46
g243
tp3755
(dp3756
g13
(I100
I10
tp3757
sg15
(I135
I585
tp3758
ss(g176
g467
tp3759
(dp3760
g13
(I0
I200
tp3761
sg15
(I1000
I0
tp3762
ss(g101
g555
tp3763
(dp3764
g13
(I66
I65
tp3765
sg15
(I362
I367
tp3766
ss(g9
g249
tp3767
(dp3768
g13
(I0
I1
tp3769
sg15
(I204
I199
tp3770
ss(g84
g171
tp3771
(dp3772
g13
(I167
I200
tp3773
sg15
(I666
I501
tp3774
ss(g46
g285
tp3775
(dp3776
g13
(I200
I200
tp3777
sg15
(I600
I600
tp3778
ss(g61
g85
tp3779
(dp3780
g13
(I200
I200
tp3781
sg15
(I600
I600
tp3782
ss(g721
g248
tp3783
(dp3784
g13
(I200
I200
tp3785
sg15
(I600
I600
tp3786
ss(g295
g177
tp3787
(dp3788
g13
(I200
I0
tp3789
sg15
(I0
I1000
tp3790
ss(g195
g74
tp3791
(dp3792
g13
(I200
I0
tp3793
sg15
(I0
I1000
tp3794
ss(g79
g262
tp3795
(dp3796
g13
(I200
I200
tp3797
sg15
(I600
I600
tp3798
ss(g271
g102
tp3799
(dp3800
g13
(I178
I182
tp3801
sg15
(I574
I554
tp3802
ss(g9
g23
tp3803
(dp3804
g13
(I0
I1
tp3805
sg15
(I204
I199
tp3806
ss(g1054
g84
tp3807
(dp3808
g13
(I200
I167
tp3809
sg15
(I501
I666
tp3810
ss(g472
g17
tp3811
(dp3812
g13
(I200
I200
tp3813
sg15
(I600
I600
tp3814
ss(g425
g142
tp3815
(dp3816
g13
(I200
I200
tp3817
sg15
(I600
I600
tp3818
ss(g517
g177
tp3819
(dp3820
g13
(I200
I0
tp3821
sg15
(I0
I1000
tp3822
ss(g450
g148
tp3823
(dp3824
g13
(I200
I200
tp3825
sg15
(I600
I600
tp3826
ss(g131
g186
tp3827
(dp3828
g13
(I200
I200
tp3829
sg15
(I600
I600
tp3830
ss(g116
g308
tp3831
(dp3832
g13
(I132
I67
tp3833
sg15
(I303
I628
tp3834
ss(g90
g67
tp3835
(dp3836
g13
(I5
I195
tp3837
sg15
(I974
I24
tp3838
ss(g262
g176
tp3839
(dp3840
g13
(I200
I0
tp3841
sg15
(I0
I1000
tp3842
ss(g186
g285
tp3843
(dp3844
g13
(I200
I200
tp3845
sg15
(I600
I600
tp3846
ss(g186
g18
tp3847
(dp3848
g13
(I15
I2
tp3849
sg15
(I191
I256
tp3850
ss(g132
g10
tp3851
(dp3852
g13
(I4
I100
tp3853
sg15
(I594
I114
tp3854
ss(g243
g526
tp3855
(dp3856
g13
(I23
I189
tp3857
sg15
(I920
I90
tp3858
ss(g171
g117
tp3859
(dp3860
g13
(I200
I200
tp3861
sg15
(I600
I600
tp3862
ss(g73
g84
tp3863
(dp3864
g13
(I198
I167
tp3865
sg15
(I504
I659
tp3866
ss(g17
g276
tp3867
(dp3868
g13
(I93
I193
tp3869
sg15
(I792
I292
tp3870
ss(g116
g91
tp3871
(dp3872
g13
(I66
I134
tp3873
sg15
(I604
I264
tp3874
ss(g73
g102
tp3875
(dp3876
g13
(I200
I1
tp3877
sg15
(I3
I998
tp3878
ss(g79
g450
tp3879
(dp3880
g13
(I200
I200
tp3881
sg15
(I600
I600
tp3882
ss(g96
g467
tp3883
(dp3884
g13
(I200
I0
tp3885
sg15
(I0
I1000
tp3886
ss(g166
g177
tp3887
(dp3888
g13
(I200
I0
tp3889
sg15
(I0
I1000
tp3890
ss(g148
g555
tp3891
(dp3892
g13
(I27
I144
tp3893
sg15
(I736
I151
tp3894
ss(g243
g177
tp3895
(dp3896
g13
(I200
I0
tp3897
sg15
(I0
I1000
tp3898
ss(g230
g142
tp3899
(dp3900
g13
(I200
I200
tp3901
sg15
(I600
I600
tp3902
ss(g166
g147
tp3903
(dp3904
g13
(I117
I117
tp3905
sg15
(I443
I443
tp3906
ss(g79
g132
tp3907
(dp3908
g13
(I200
I200
tp3909
sg15
(I600
I600
tp3910
ss(g17
g166
tp3911
(dp3912
g13
(I200
I200
tp3913
sg15
(I600
I600
tp3914
ss(g142
g177
tp3915
(dp3916
g13
(I200
I0
tp3917
sg15
(I0
I1000
tp3918
ss(g62
g285
tp3919
(dp3920
g13
(I200
I200
tp3921
sg15
(I600
I600
tp3922
ss(g262
g30
tp3923
(dp3924
g13
(I200
I0
tp3925
sg15
(I0
I1000
tp3926
ss(g517
g10
tp3927
(dp3928
g13
(I21
I110
tp3929
sg15
(I617
I172
tp3930
ss(g294
g176
tp3931
(dp3932
g13
(I200
I0
tp3933
sg15
(I0
I1000
tp3934
ss(g67
g249
tp3935
(dp3936
g13
(I199
I1
tp3937
sg15
(I4
I994
tp3938
ss(g450
g230
tp3939
(dp3940
g13
(I200
I200
tp3941
sg15
(I600
I600
tp3942
ss(g131
g248
tp3943
(dp3944
g13
(I200
I200
tp3945
sg15
(I600
I600
tp3946
ss(g18
g68
tp3947
(dp3948
g13
(I2
I2
tp3949
sg15
(I204
I204
tp3950
ss(g294
g248
tp3951
(dp3952
g13
(I200
I200
tp3953
sg15
(I600
I600
tp3954
ss(g52
g30
tp3955
(dp3956
g13
(I200
I0
tp3957
sg15
(I0
I1000
tp3958
ss(g84
g17
tp3959
(dp3960
g13
(I167
I16
tp3961
sg15
(I92
I847
tp3962
ss(g91
g177
tp3963
(dp3964
g13
(I200
I0
tp3965
sg15
(I0
I1000
tp3966
ss(g67
g216
tp3967
(dp3968
g13
(I123
I123
tp3969
sg15
(I446
I446
tp3970
ss(g36
g85
tp3971
(dp3972
g13
(I67
I67
tp3973
sg15
(I401
I401
tp3974
ss(g91
g171
tp3975
(dp3976
g13
(I134
I200
tp3977
sg15
(I732
I402
tp3978
ss(g166
g216
tp3979
(dp3980
g13
(I200
I200
tp3981
sg15
(I600
I600
tp3982
ss(g142
g467
tp3983
(dp3984
g13
(I200
I0
tp3985
sg15
(I0
I1000
tp3986
ss(g295
g148
tp3987
(dp3988
g13
(I198
I199
tp3989
sg15
(I600
I595
tp3990
ss(g111
g721
tp3991
(dp3992
g13
(I150
I200
tp3993
sg15
(I700
I450
tp3994
ss(g46
g91
tp3995
(dp3996
g13
(I100
I134
tp3997
sg15
(I569
I399
tp3998
ss(g67
g30
tp3999
(dp4000
g13
(I200
I0
tp4001
sg15
(I0
I1000
tp4002
ss(g249
g467
tp4003
(dp4004
g13
(I200
I0
tp4005
sg15
(I0
I1000
tp4006
ss(g111
g79
tp4007
(dp4008
g13
(I150
I200
tp4009
sg15
(I700
I450
tp4010
ss(g317
g176
tp4011
(dp4012
g13
(I200
I0
tp4013
sg15
(I0
I1000
tp4014
ss(g111
g656
tp4015
(dp4016
g13
(I150
I40
tp4017
sg15
(I183
I733
tp4018
ss(g61
g248
tp4019
(dp4020
g13
(I200
I200
tp4021
sg15
(I600
I600
tp4022
ss(g10
g102
tp4023
(dp4024
g13
(I190
I181
tp4025
sg15
(I554
I599
tp4026
ss(g1054
g221
tp4027
(dp4028
g13
(I200
I3
tp4029
sg15
(I9
I994
tp4030
ss(g132
g248
tp4031
(dp4032
g13
(I200
I200
tp4033
sg15
(I600
I600
tp4034
ss(g276
g467
tp4035
(dp4036
g13
(I200
I0
tp4037
sg15
(I0
I1000
tp4038
ss(g111
g10
tp4039
(dp4040
g13
(I150
I150
tp4041
sg15
(I549
I549
tp4042
ss(g517
g142
tp4043
(dp4044
g13
(I200
I200
tp4045
sg15
(I600
I600
tp4046
ss(g249
g221
tp4047
(dp4048
g13
(I1
I200
tp4049
sg15
(I998
I3
tp4050
ss(g41
g400
tp4051
(dp4052
g13
(I200
I200
tp4053
sg15
(I600
I600
tp4054
ss(g425
g249
tp4055
(dp4056
g13
(I100
I100
tp4057
sg15
(I500
I500
tp4058
ss(g186
g177
tp4059
(dp4060
g13
(I200
I0
tp4061
sg15
(I0
I1000
tp4062
ss(g317
g117
tp4063
(dp4064
g13
(I80
I120
tp4065
sg15
(I560
I360
tp4066
ss(g61
g165
tp4067
(dp4068
g13
(I100
I0
tp4069
sg15
(I100
I600
tp4070
ss(g425
g24
tp4071
(dp4072
g13
(I199
I199
tp4073
sg15
(I599
I599
tp4074
ss(g526
g137
tp4075
(dp4076
g13
(I198
I198
tp4077
sg15
(I597
I597
tp4078
ss(g450
g400
tp4079
(dp4080
g13
(I200
I200
tp4081
sg15
(I600
I600
tp4082
ss(g131
g362
tp4083
(dp4084
g13
(I200
I100
tp4085
sg15
(I300
I800
tp4086
ss(g84
g400
tp4087
(dp4088
g13
(I167
I60
tp4089
sg15
(I230
I765
tp4090
ss(g147
g262
tp4091
(dp4092
g13
(I56
I56
tp4093
sg15
(I319
I319
tp4094
ss(g285
g74
tp4095
(dp4096
g13
(I200
I200
tp4097
sg15
(I600
I600
tp4098
ss(g721
g117
tp4099
(dp4100
g13
(I200
I200
tp4101
sg15
(I600
I600
tp4102
ss(g249
g74
tp4103
(dp4104
g13
(I200
I0
tp4105
sg15
(I0
I1000
tp4106
ss(g73
g62
tp4107
(dp4108
g13
(I198
I185
tp4109
sg15
(I558
I623
tp4110
ss(g10
g555
tp4111
(dp4112
g13
(I100
I0
tp4113
sg15
(I100
I600
tp4114
ss(g177
g285
tp4115
(dp4116
g13
(I200
I200
tp4117
sg15
(I600
I600
tp4118
ss(g35
g555
tp4119
(dp4120
g13
(I182
I0
tp4121
sg15
(I18
I928
tp4122
ss(g84
g91
tp4123
(dp4124
g13
(I167
I134
tp4125
sg15
(I435
I600
tp4126
ss(g147
g142
tp4127
(dp4128
g13
(I3
I2
tp4129
sg15
(I205
I210
tp4130
ss(g24
g176
tp4131
(dp4132
g13
(I199
I0
tp4133
sg15
(I1
I996
tp4134
ss(g166
g137
tp4135
(dp4136
g13
(I200
I200
tp4137
sg15
(I600
I600
tp4138
ss(g79
g195
tp4139
(dp4140
g13
(I200
I200
tp4141
sg15
(I600
I600
tp4142
ss(g35
g101
tp4143
(dp4144
g13
(I182
I181
tp4145
sg15
(I578
I583
tp4146
ss(g62
g24
tp4147
(dp4148
g13
(I191
I199
tp4149
sg15
(I615
I575
tp4150
ss(g271
g249
tp4151
(dp4152
g13
(I1
I1
tp4153
sg15
(I203
I203
tp4154
ss(g90
g294
tp4155
(dp4156
g13
(I198
I200
tp4157
sg15
(I604
I594
tp4158
ss(g24
g147
tp4159
(dp4160
g13
(I198
I199
tp4161
sg15
(I600
I595
tp4162
ss(g73
g36
tp4163
(dp4164
g13
(I200
I199
tp4165
sg15
(I597
I602
tp4166
ss(g526
g36
tp4167
(dp4168
g13
(I199
I198
tp4169
sg15
(I595
I600
tp4170
ss(g425
g102
tp4171
(dp4172
g13
(I161
I178
tp4173
sg15
(I593
I508
tp4174
ss(g91
g23
tp4175
(dp4176
g13
(I134
I200
tp4177
sg15
(I732
I402
tp4178
ss(g9
g142
tp4179
(dp4180
g13
(I0
I1
tp4181
sg15
(I204
I199
tp4182
ss(g85
g74
tp4183
(dp4184
g13
(I200
I0
tp4185
sg15
(I0
I1000
tp4186
ss(g517
g555
tp4187
(dp4188
g13
(I39
I121
tp4189
sg15
(I626
I216
tp4190
ss(g79
g166
tp4191
(dp4192
g13
(I200
I200
tp4193
sg15
(I600
I600
tp4194
ss(g230
g362
tp4195
(dp4196
g13
(I1
I2
tp4197
sg15
(I207
I202
tp4198
ss(g131
g171
tp4199
(dp4200
g13
(I200
I200
tp4201
sg15
(I600
I600
tp4202
ss(g90
g186
tp4203
(dp4204
g13
(I198
I200
tp4205
sg15
(I604
I594
tp4206
ss(g131
g126
tp4207
(dp4208
g13
(I200
I200
tp4209
sg15
(I600
I600
tp4210
ss(g91
g102
tp4211
(dp4212
g13
(I134
I7
tp4213
sg15
(I89
I724
tp4214
ss(g9
g656
tp4215
(dp4216
g13
(I0
I10
tp4217
sg15
(I240
I190
tp4218
ss(g362
g285
tp4219
(dp4220
g13
(I200
I200
tp4221
sg15
(I600
I600
tp4222
ss(g84
g36
tp4223
(dp4224
g13
(I167
I166
tp4225
sg15
(I564
I569
tp4226
ss(g656
g362
tp4227
(dp4228
g13
(I10
I11
tp4229
sg15
(I234
I229
tp4230
ss(g18
g30
tp4231
(dp4232
g13
(I200
I0
tp4233
sg15
(I0
I1000
tp4234
ss(g131
g79
tp4235
(dp4236
g13
(I200
I200
tp4237
sg15
(I600
I600
tp4238
ss(g126
g142
tp4239
(dp4240
g13
(I200
I200
tp4241
sg15
(I600
I600
tp4242
ss(g137
g285
tp4243
(dp4244
g13
(I200
I200
tp4245
sg15
(I600
I600
tp4246
ss(g131
g111
tp4247
(dp4248
g13
(I200
I150
tp4249
sg15
(I450
I700
tp4250
ss(g61
g271
tp4251
(dp4252
g13
(I200
I200
tp4253
sg15
(I600
I600
tp4254
ss(g9
g126
tp4255
(dp4256
g13
(I0
I1
tp4257
sg15
(I204
I199
tp4258
ss(g96
g517
tp4259
(dp4260
g13
(I200
I200
tp4261
sg15
(I600
I600
tp4262
ss(g1054
g102
tp4263
(dp4264
g13
(I200
I79
tp4265
sg15
(I237
I842
tp4266
ss(g165
g41
tp4267
(dp4268
g13
(I0
I10
tp4269
sg15
(I240
I190
tp4270
ss(g186
g30
tp4271
(dp4272
g13
(I200
I0
tp4273
sg15
(I0
I1000
tp4274
ss(g35
g24
tp4275
(dp4276
g13
(I182
I199
tp4277
sg15
(I633
I548
tp4278
ss(g116
g517
tp4279
(dp4280
g13
(I150
I49
tp4281
sg15
(I222
I727
tp4282
ss(g9
g90
tp4283
(dp4284
g13
(I196
I198
tp4285
sg15
(I601
I591
tp4286
ss(g472
g216
tp4287
(dp4288
g13
(I200
I200
tp4289
sg15
(I600
I600
tp4290
ss(g46
g721
tp4291
(dp4292
g13
(I100
I200
tp4293
sg15
(I800
I300
tp4294
ss(g91
g362
tp4295
(dp4296
g13
(I134
I134
tp4297
sg15
(I534
I534
tp4298
ss(g171
g142
tp4299
(dp4300
g13
(I200
I200
tp4301
sg15
(I600
I600
tp4302
ss(g126
g137
tp4303
(dp4304
g13
(I200
I200
tp4305
sg15
(I600
I600
tp4306
ss(g137
g276
tp4307
(dp4308
g13
(I146
I145
tp4309
sg15
(I534
I539
tp4310
ss(g195
g30
tp4311
(dp4312
g13
(I200
I0
tp4313
sg15
(I0
I1000
tp4314
ss(g131
g147
tp4315
(dp4316
g13
(I200
I199
tp4317
sg15
(I597
I602
tp4318
ss(g221
g68
tp4319
(dp4320
g13
(I182
I182
tp4321
sg15
(I564
I564
tp4322
ss(g90
g132
tp4323
(dp4324
g13
(I198
I200
tp4325
sg15
(I604
I594
tp4326
ss(g165
g656
tp4327
(dp4328
g13
(I0
I10
tp4329
sg15
(I240
I190
tp4330
ss(g425
g41
tp4331
(dp4332
g13
(I200
I200
tp4333
sg15
(I600
I600
tp4334
ss(g46
g221
tp4335
(dp4336
g13
(I100
I200
tp4337
sg15
(I800
I300
tp4338
ss(g47
g221
tp4339
(dp4340
g13
(I101
I173
tp4341
sg15
(I708
I348
tp4342
ss(g131
g10
tp4343
(dp4344
g13
(I200
I2
tp4345
sg15
(I6
I996
tp4346
ss(g96
g656
tp4347
(dp4348
g13
(I200
I200
tp4349
sg15
(I600
I600
tp4350
ss(g656
g216
tp4351
(dp4352
g13
(I200
I200
tp4353
sg15
(I600
I600
tp4354
ss(g61
g472
tp4355
(dp4356
g13
(I200
I200
tp4357
sg15
(I600
I600
tp4358
ss(g195
g216
tp4359
(dp4360
g13
(I200
I200
tp4361
sg15
(I600
I600
tp4362
ss(g517
g74
tp4363
(dp4364
g13
(I200
I0
tp4365
sg15
(I0
I1000
tp4366
ss(g132
g186
tp4367
(dp4368
g13
(I200
I200
tp4369
sg15
(I600
I600
tp4370
ss(g46
g295
tp4371
(dp4372
g13
(I100
I8
tp4373
sg15
(I128
I588
tp4374
ss(g111
g23
tp4375
(dp4376
g13
(I150
I200
tp4377
sg15
(I700
I450
tp4378
ss(g1054
g230
tp4379
(dp4380
g13
(I200
I200
tp4381
sg15
(I600
I600
tp4382
ss(g101
g308
tp4383
(dp4384
g13
(I2
I1
tp4385
sg15
(I202
I207
tp4386
ss(g73
g132
tp4387
(dp4388
g13
(I197
I6
tp4389
sg15
(I23
I978
tp4390
ss(g1054
g526
tp4391
(dp4392
g13
(I200
I0
tp4393
sg15
(I0
I1000
tp4394
ss(g101
g117
tp4395
(dp4396
g13
(I198
I199
tp4397
sg15
(I601
I596
tp4398
ss(g61
g216
tp4399
(dp4400
g13
(I200
I200
tp4401
sg15
(I600
I600
tp4402
ss(g79
g555
tp4403
(dp4404
g13
(I196
I2
tp4405
sg15
(I11
I981
tp4406
ss(g116
g18
tp4407
(dp4408
g13
(I99
I100
tp4409
sg15
(I451
I446
tp4410
ss(g165
g79
tp4411
(dp4412
g13
(I0
I4
tp4413
sg15
(I216
I196
tp4414
ss(g171
g68
tp4415
(dp4416
g13
(I200
I200
tp4417
sg15
(I600
I600
tp4418
ss(g1054
g362
tp4419
(dp4420
g13
(I200
I100
tp4421
sg15
(I300
I800
tp4422
ss(g101
g176
tp4423
(dp4424
g13
(I199
I0
tp4425
sg15
(I1
I996
tp4426
ss(g294
g30
tp4427
(dp4428
g13
(I200
I0
tp4429
sg15
(I0
I1000
tp4430
ss(g243
g171
tp4431
(dp4432
g13
(I200
I200
tp4433
sg15
(I600
I600
tp4434
ss(g84
g29
tp4435
(dp4436
g13
(I167
I136
tp4437
sg15
(I457
I612
tp4438
ss(g371
g186
tp4439
(dp4440
g13
(I200
I200
tp4441
sg15
(I600
I600
tp4442
ss(g271
g362
tp4443
(dp4444
g13
(I1
I2
tp4445
sg15
(I207
I202
tp4446
ss(g147
g117
tp4447
(dp4448
g13
(I199
I200
tp4449
sg15
(I602
I597
tp4450
ss(g472
g248
tp4451
(dp4452
g13
(I200
I200
tp4453
sg15
(I600
I600
tp4454
ss(g18
g195
tp4455
(dp4456
g13
(I2
I200
tp4457
sg15
(I996
I6
tp4458
ss(g294
g101
tp4459
(dp4460
g13
(I200
I2
tp4461
sg15
(I6
I996
tp4462
ss(g132
g132
tp4463
(dp4464
g13
(I200
I200
tp4465
sg15
(I600
I600
tp4466
ss(g116
g24
tp4467
(dp4468
g13
(I2
I198
tp4469
sg15
(I989
I9
tp4470
ss(g131
g35
tp4471
(dp4472
g13
(I200
I182
tp4473
sg15
(I546
I636
tp4474
ss(g171
g467
tp4475
(dp4476
g13
(I200
I0
tp4477
sg15
(I0
I1000
tp4478
ss(g29
g36
tp4479
(dp4480
g13
(I152
I151
tp4481
sg15
(I549
I554
tp4482
ss(g132
g29
tp4483
(dp4484
g13
(I3
I197
tp4485
sg15
(I984
I14
tp4486
ss(g1054
g243
tp4487
(dp4488
g13
(I200
I200
tp4489
sg15
(I600
I600
tp4490
ss(g36
g30
tp4491
(dp4492
g13
(I200
I0
tp4493
sg15
(I0
I1000
tp4494
ss(g450
g262
tp4495
(dp4496
g13
(I200
I200
tp4497
sg15
(I600
I600
tp4498
ss(g79
g52
tp4499
(dp4500
g13
(I200
I200
tp4501
sg15
(I600
I600
tp4502
ss(g35
g62
tp4503
(dp4504
g13
(I182
I44
tp4505
sg15
(I154
I844
tp4506
ss(g79
g216
tp4507
(dp4508
g13
(I200
I200
tp4509
sg15
(I600
I600
tp4510
ss(g67
g176
tp4511
(dp4512
g13
(I200
I0
tp4513
sg15
(I0
I1000
tp4514
ss(g18
g285
tp4515
(dp4516
g13
(I200
I200
tp4517
sg15
(I600
I600
tp4518
ss(g165
g10
tp4519
(dp4520
g13
(I0
I100
tp4521
sg15
(I600
I100
tp4522
ss(g90
g221
tp4523
(dp4524
g13
(I7
I195
tp4525
sg15
(I970
I30
tp4526
ss(g243
g425
tp4527
(dp4528
g13
(I200
I200
tp4529
sg15
(I600
I600
tp4530
ss(g73
g249
tp4531
(dp4532
g13
(I200
I1
tp4533
sg15
(I3
I998
tp4534
ss(g721
g450
tp4535
(dp4536
g13
(I200
I200
tp4537
sg15
(I600
I600
tp4538
ss(g41
g52
tp4539
(dp4540
g13
(I200
I200
tp4541
sg15
(I600
I600
tp4542
ss(g132
g148
tp4543
(dp4544
g13
(I200
I200
tp4545
sg15
(I600
I600
tp4546
ss(g111
g96
tp4547
(dp4548
g13
(I150
I4
tp4549
sg15
(I63
I793
tp4550
ss(g295
g249
tp4551
(dp4552
g13
(I5
I1
tp4553
sg15
(I198
I218
tp4554
ss(g186
g117
tp4555
(dp4556
g13
(I200
I200
tp4557
sg15
(I600
I600
tp4558
ss(g132
g555
tp4559
(dp4560
g13
(I2
I195
tp4561
sg15
(I978
I13
tp4562
ss(g186
g467
tp4563
(dp4564
g13
(I200
I0
tp4565
sg15
(I0
I1000
tp4566
ss(g17
g52
tp4567
(dp4568
g13
(I200
I200
tp4569
sg15
(I600
I600
tp4570
ss(g61
g221
tp4571
(dp4572
g13
(I183
I166
tp4573
sg15
(I515
I600
tp4574
ss(g90
g195
tp4575
(dp4576
g13
(I198
I200
tp4577
sg15
(I604
I594
tp4578
ss(g425
g248
tp4579
(dp4580
g13
(I200
I200
tp4581
sg15
(I600
I600
tp4582
ss(g24
g249
tp4583
(dp4584
g13
(I198
I198
tp4585
sg15
(I597
I597
tp4586
ss(g295
g29
tp4587
(dp4588
g13
(I5
I195
tp4589
sg15
(I974
I24
tp4590
ss(g68
g467
tp4591
(dp4592
g13
(I200
I0
tp4593
sg15
(I0
I1000
tp4594
ss(g294
g91
tp4595
(dp4596
g13
(I8
I134
tp4597
sg15
(I722
I92
tp4598
ss(g126
g23
tp4599
(dp4600
g13
(I200
I200
tp4601
sg15
(I600
I600
tp4602
ss(g9
g17
tp4603
(dp4604
g13
(I0
I1
tp4605
sg15
(I204
I199
tp4606
ss(g84
g165
tp4607
(dp4608
g13
(I167
I0
tp4609
sg15
(I33
I868
tp4610
ss(g68
g216
tp4611
(dp4612
g13
(I0
I200
tp4613
sg15
(I1000
I0
tp4614
ss(g61
g61
tp4615
(dp4616
g13
(I200
I200
tp4617
sg15
(I600
I600
tp4618
ss(g111
g24
tp4619
(dp4620
g13
(I150
I199
tp4621
sg15
(I697
I452
tp4622
ss(g79
g362
tp4623
(dp4624
g13
(I200
I100
tp4625
sg15
(I300
I800
tp4626
ss(g317
g61
tp4627
(dp4628
g13
(I67
I134
tp4629
sg15
(I602
I267
tp4630
ss(g24
g30
tp4631
(dp4632
g13
(I200
I0
tp4633
sg15
(I0
I1000
tp4634
ss(g23
g147
tp4635
(dp4636
g13
(I199
I199
tp4637
sg15
(I599
I599
tp4638
ss(g294
g52
tp4639
(dp4640
g13
(I200
I200
tp4641
sg15
(I600
I600
tp4642
ss(g61
g68
tp4643
(dp4644
g13
(I200
I200
tp4645
sg15
(I600
I600
tp4646
ss(g1054
g285
tp4647
(dp4648
g13
(I200
I200
tp4649
sg15
(I600
I600
tp4650
ss(g61
g24
tp4651
(dp4652
g13
(I1
I199
tp4653
sg15
(I995
I5
tp4654
ss(g126
g47
tp4655
(dp4656
g13
(I200
I200
tp4657
sg15
(I600
I600
tp4658
ss(g9
g30
tp4659
(dp4660
g13
(I200
I0
tp4661
sg15
(I0
I1000
tp4662
ss(g137
g262
tp4663
(dp4664
g13
(I200
I200
tp4665
sg15
(I600
I600
tp4666
ss(g526
g29
tp4667
(dp4668
g13
(I0
I200
tp4669
sg15
(I1000
I0
tp4670
ss(g400
g276
tp4671
(dp4672
g13
(I108
I184
tp4673
sg15
(I734
I354
tp4674
ss(g131
g249
tp4675
(dp4676
g13
(I200
I1
tp4677
sg15
(I3
I998
tp4678
ss(g656
g18
tp4679
(dp4680
g13
(I10
I11
tp4681
sg15
(I234
I229
tp4682
ss(g9
g24
tp4683
(dp4684
g13
(I0
I0
tp4685
sg15
(I200
I200
tp4686
ss(g243
g249
tp4687
(dp4688
g13
(I17
I1
tp4689
sg15
(I186
I266
tp4690
ss(g165
g117
tp4691
(dp4692
g13
(I0
I2
tp4693
sg15
(I208
I198
tp4694
ss(g96
g308
tp4695
(dp4696
g13
(I200
I200
tp4697
sg15
(I600
I600
tp4698
ss(g450
g176
tp4699
(dp4700
g13
(I200
I0
tp4701
sg15
(I0
I1000
tp4702
ss(g131
g177
tp4703
(dp4704
g13
(I200
I0
tp4705
sg15
(I0
I1000
tp4706
ss(g91
g147
tp4707
(dp4708
g13
(I134
I133
tp4709
sg15
(I531
I536
tp4710
ss(g91
g195
tp4711
(dp4712
g13
(I134
I12
tp4713
sg15
(I106
I716
tp4714
ss(g90
g148
tp4715
(dp4716
g13
(I198
I199
tp4717
sg15
(I600
I595
tp4718
ss(g47
g195
tp4719
(dp4720
g13
(I200
I200
tp4721
sg15
(I600
I600
tp4722
ss(g186
g166
tp4723
(dp4724
g13
(I200
I200
tp4725
sg15
(I600
I600
tp4726
ss(g116
g230
tp4727
(dp4728
g13
(I182
I17
tp4729
sg15
(I78
I903
tp4730
ss(g35
g472
tp4731
(dp4732
g13
(I182
I200
tp4733
sg15
(I636
I546
tp4734
ss(g23
g18
tp4735
(dp4736
g13
(I199
I199
tp4737
sg15
(I599
I599
tp4738
ss(g117
g221
tp4739
(dp4740
g13
(I172
I157
tp4741
sg15
(I513
I588
tp4742
ss(g166
g195
tp4743
(dp4744
g13
(I200
I200
tp4745
sg15
(I600
I600
tp4746
ss(g90
g18
tp4747
(dp4748
g13
(I6
I2
tp4749
sg15
(I200
I220
tp4750
ss(g230
g276
tp4751
(dp4752
g13
(I99
I193
tp4753
sg15
(I780
I310
tp4754
ss(g230
g137
tp4755
(dp4756
g13
(I200
I200
tp4757
sg15
(I600
I600
tp4758
ss(g67
g10
tp4759
(dp4760
g13
(I123
I123
tp4761
sg15
(I493
I493
tp4762
ss(g35
g230
tp4763
(dp4764
g13
(I182
I49
tp4765
sg15
(I172
I837
tp4766
ss(g165
g176
tp4767
(dp4768
g13
(I199
I0
tp4769
sg15
(I1
I996
tp4770
ss(g249
g30
tp4771
(dp4772
g13
(I200
I0
tp4773
sg15
(I0
I1000
tp4774
ss(g35
g371
tp4775
(dp4776
g13
(I182
I10
tp4777
sg15
(I51
I911
tp4778
ss(g9
g101
tp4779
(dp4780
g13
(I0
I2
tp4781
sg15
(I208
I198
tp4782
ss(g526
g10
tp4783
(dp4784
g13
(I197
I198
tp4785
sg15
(I599
I594
tp4786
ss(g425
g230
tp4787
(dp4788
g13
(I200
I200
tp4789
sg15
(I600
I600
tp4790
ss(g195
g285
tp4791
(dp4792
g13
(I200
I200
tp4793
sg15
(I600
I600
tp4794
ss(g450
g47
tp4795
(dp4796
g13
(I200
I200
tp4797
sg15
(I600
I600
tp4798
ss(g1054
g18
tp4799
(dp4800
g13
(I200
I2
tp4801
sg15
(I6
I996
tp4802
ss(g517
g400
tp4803
(dp4804
g13
(I200
I200
tp4805
sg15
(I600
I600
tp4806
ss(g111
g285
tp4807
(dp4808
g13
(I200
I200
tp4809
sg15
(I600
I600
tp4810
ss(g148
g74
tp4811
(dp4812
g13
(I200
I0
tp4813
sg15
(I0
I1000
tp4814
ss(g46
g230
tp4815
(dp4816
g13
(I100
I6
tp4817
sg15
(I123
I593
tp4818
ss(g165
g30
tp4819
(dp4820
g13
(I200
I0
tp4821
sg15
(I0
I1000
tp4822
ss(g111
g249
tp4823
(dp4824
g13
(I150
I1
tp4825
sg15
(I53
I798
tp4826
ss(g35
g148
tp4827
(dp4828
g13
(I182
I65
tp4829
sg15
(I226
I811
tp4830
ss(g517
g517
tp4831
(dp4832
g13
(I200
I200
tp4833
sg15
(I600
I600
tp4834
ss(g1054
g24
tp4835
(dp4836
g13
(I200
I199
tp4837
sg15
(I597
I602
tp4838
ss(g90
g517
tp4839
(dp4840
g13
(I198
I199
tp4841
sg15
(I600
I595
tp4842
ss(g216
g216
tp4843
(dp4844
g13
(I0
I0
tp4845
sg15
(I200
I200
tp4846
ss(g294
g517
tp4847
(dp4848
g13
(I200
I200
tp4849
sg15
(I600
I600
tp4850
ss(g132
g18
tp4851
(dp4852
g13
(I4
I2
tp4853
sg15
(I202
I212
tp4854
ss(g400
g117
tp4855
(dp4856
g13
(I200
I200
tp4857
sg15
(I600
I600
tp4858
ss(g117
g117
tp4859
(dp4860
g13
(I200
I200
tp4861
sg15
(I600
I600
tp4862
ss(g35
g400
tp4863
(dp4864
g13
(I182
I36
tp4865
sg15
(I144
I874
tp4866
ss(g126
g166
tp4867
(dp4868
g13
(I200
I200
tp4869
sg15
(I600
I600
tp4870
ss(g230
g30
tp4871
(dp4872
g13
(I200
I0
tp4873
sg15
(I0
I1000
tp4874
ss(g85
g285
tp4875
(dp4876
g13
(I200
I200
tp4877
sg15
(I600
I600
tp4878
ss(g131
g425
tp4879
(dp4880
g13
(I200
I200
tp4881
sg15
(I600
I600
tp4882
ss(g165
g276
tp4883
(dp4884
g13
(I0
I200
tp4885
sg15
(I1000
I0
tp4886
ss(g84
g295
tp4887
(dp4888
g13
(I167
I24
tp4889
sg15
(I109
I824
tp4890
ss(g91
g230
tp4891
(dp4892
g13
(I134
I9
tp4893
sg15
(I100
I725
tp4894
ss(g24
g362
tp4895
(dp4896
g13
(I198
I198
tp4897
sg15
(I597
I597
tp4898
ss(g62
g74
tp4899
(dp4900
g13
(I200
I0
tp4901
sg15
(I0
I1000
tp4902
ss(g294
g10
tp4903
(dp4904
g13
(I200
I2
tp4905
sg15
(I6
I996
tp4906
ss(g271
g85
tp4907
(dp4908
g13
(I200
I200
tp4909
sg15
(I600
I600
tp4910
ss(g308
g147
tp4911
(dp4912
g13
(I1
I2
tp4913
sg15
(I207
I202
tp4914
ss(g131
g721
tp4915
(dp4916
g13
(I200
I200
tp4917
sg15
(I600
I600
tp4918
ss(g243
g721
tp4919
(dp4920
g13
(I200
I200
tp4921
sg15
(I600
I600
tp4922
ss(g41
g555
tp4923
(dp4924
g13
(I20
I151
tp4925
sg15
(I771
I116
tp4926
ss(g308
g10
tp4927
(dp4928
g13
(I3
I100
tp4929
sg15
(I595
I110
tp4930
ss(g61
g29
tp4931
(dp4932
g13
(I7
I197
tp4933
sg15
(I976
I26
tp4934
ss(g271
g195
tp4935
(dp4936
g13
(I200
I200
tp4937
sg15
(I600
I600
tp4938
ss(g142
g102
tp4939
(dp4940
g13
(I172
I172
tp4941
sg15
(I546
I546
tp4942
ss(g317
g517
tp4943
(dp4944
g13
(I150
I50
tp4945
sg15
(I225
I725
tp4946
ss(g24
g68
tp4947
(dp4948
g13
(I0
I0
tp4949
sg15
(I200
I200
tp4950
ss(g84
g721
tp4951
(dp4952
g13
(I167
I200
tp4953
sg15
(I666
I501
tp4954
ss(g17
g137
tp4955
(dp4956
g13
(I200
I200
tp4957
sg15
(I600
I600
tp4958
ss(g17
g74
tp4959
(dp4960
g13
(I200
I0
tp4961
sg15
(I0
I1000
tp4962
ss(g73
g450
tp4963
(dp4964
g13
(I198
I186
tp4965
sg15
(I561
I621
tp4966
ss(g243
g96
tp4967
(dp4968
g13
(I200
I200
tp4969
sg15
(I600
I600
tp4970
ss(g656
g177
tp4971
(dp4972
g13
(I200
I0
tp4973
sg15
(I0
I1000
tp4974
ss(g9
g362
tp4975
(dp4976
g13
(I0
I1
tp4977
sg15
(I204
I199
tp4978
ss(g248
g36
tp4979
(dp4980
g13
(I100
I100
tp4981
sg15
(I500
I500
tp4982
ss(g308
g177
tp4983
(dp4984
g13
(I200
I0
tp4985
sg15
(I0
I1000
tp4986
ss(g132
g517
tp4987
(dp4988
g13
(I200
I200
tp4989
sg15
(I600
I600
tp4990
ss(g111
g132
tp4991
(dp4992
g13
(I150
I8
tp4993
sg15
(I76
I786
tp4994
ss(g295
g96
tp4995
(dp4996
g13
(I198
I199
tp4997
sg15
(I600
I595
tp4998
ss(g96
g85
tp4999
(dp5000
g13
(I200
I200
tp5001
sg15
(I600
I600
tp5002
ss(g186
g41
tp5003
(dp5004
g13
(I200
I200
tp5005
sg15
(I600
I600
tp5006
ss(g371
g249
tp5007
(dp5008
g13
(I10
I1
tp5009
sg15
(I193
I238
tp5010
ss(g295
g10
tp5011
(dp5012
g13
(I6
I99
tp5013
sg15
(I588
I123
tp5014
ss(g84
g248
tp5015
(dp5016
g13
(I167
I200
tp5017
sg15
(I666
I501
tp5018
ss(g425
g47
tp5019
(dp5020
g13
(I200
I200
tp5021
sg15
(I600
I600
tp5022
ss(g90
g450
tp5023
(dp5024
g13
(I198
I199
tp5025
sg15
(I600
I595
tp5026
ss(g276
g276
tp5027
(dp5028
g13
(I146
I146
tp5029
sg15
(I492
I492
tp5030
ss(g9
g216
tp5031
(dp5032
g13
(I0
I0
tp5033
sg15
(I200
I200
tp5034
ss(g73
g79
tp5035
(dp5036
g13
(I4
I200
tp5037
sg15
(I992
I12
tp5038
ss(g84
g526
tp5039
(dp5040
g13
(I167
I194
tp5041
sg15
(I647
I512
tp5042
ss(g1054
g47
tp5043
(dp5044
g13
(I200
I200
tp5045
sg15
(I600
I600
tp5046
ss(g425
g472
tp5047
(dp5048
g13
(I200
I200
tp5049
sg15
(I600
I600
tp5050
ss(g131
g195
tp5051
(dp5052
g13
(I200
I200
tp5053
sg15
(I600
I600
tp5054
ss(g126
g285
tp5055
(dp5056
g13
(I200
I200
tp5057
sg15
(I600
I600
tp5058
ss(g67
g166
tp5059
(dp5060
g13
(I192
I9
tp5061
sg15
(I42
I957
tp5062
ss(g111
g371
tp5063
(dp5064
g13
(I150
I10
tp5065
sg15
(I82
I782
tp5066
ss(g137
g555
tp5067
(dp5068
g13
(I67
I66
tp5069
sg15
(I364
I369
tp5070
ss(g111
g526
tp5071
(dp5072
g13
(I150
I196
tp5073
sg15
(I687
I457
tp5074
ss(g721
g276
tp5075
(dp5076
g13
(I180
I112
tp5077
sg15
(I372
I712
tp5078
ss(g166
g467
tp5079
(dp5080
g13
(I200
I0
tp5081
sg15
(I0
I1000
tp5082
ss(g221
g467
tp5083
(dp5084
g13
(I200
I0
tp5085
sg15
(I0
I1000
tp5086
ss(g46
g84
tp5087
(dp5088
g13
(I100
I167
tp5089
sg15
(I668
I333
tp5090
ss(g271
g23
tp5091
(dp5092
g13
(I200
I200
tp5093
sg15
(I600
I600
tp5094
ss(g23
g186
tp5095
(dp5096
g13
(I200
I200
tp5097
sg15
(I600
I600
tp5098
ss(g91
g425
tp5099
(dp5100
g13
(I134
I200
tp5101
sg15
(I732
I402
tp5102
ss(g317
g111
tp5103
(dp5104
g13
(I50
I150
tp5105
sg15
(I700
I200
tp5106
ss(g9
g73
tp5107
(dp5108
g13
(I197
I200
tp5109
sg15
(I606
I591
tp5110
ss(g79
g85
tp5111
(dp5112
g13
(I200
I200
tp5113
sg15
(I600
I600
tp5114
ss(g102
g467
tp5115
(dp5116
g13
(I200
I0
tp5117
sg15
(I0
I1000
tp5118
ss(g1054
g23
tp5119
(dp5120
g13
(I200
I200
tp5121
sg15
(I600
I600
tp5122
ss(g117
g102
tp5123
(dp5124
g13
(I182
I179
tp5125
sg15
(I556
I571
tp5126
ss(g249
g216
tp5127
(dp5128
g13
(I1
I1
tp5129
sg15
(I202
I202
tp5130
ss(g23
g467
tp5131
(dp5132
g13
(I200
I0
tp5133
sg15
(I0
I1000
tp5134
ss(g721
g10
tp5135
(dp5136
g13
(I196
I195
tp5137
sg15
(I592
I597
tp5138
ss(g90
g262
tp5139
(dp5140
g13
(I198
I199
tp5141
sg15
(I600
I595
tp5142
ss(g526
g17
tp5143
(dp5144
g13
(I198
I198
tp5145
sg15
(I597
I597
tp5146
ss(g126
g467
tp5147
(dp5148
g13
(I200
I0
tp5149
sg15
(I0
I1000
tp5150
ss(g24
g285
tp5151
(dp5152
g13
(I200
I200
tp5153
sg15
(I600
I600
tp5154
ss(g47
g10
tp5155
(dp5156
g13
(I189
I192
tp5157
sg15
(I593
I578
tp5158
ss(g147
g177
tp5159
(dp5160
g13
(I200
I0
tp5161
sg15
(I0
I1000
tp5162
ss(g116
g467
tp5163
(dp5164
g13
(I200
I0
tp5165
sg15
(I0
I1000
tp5166
ss(g526
g467
tp5167
(dp5168
g13
(I200
I0
tp5169
sg15
(I0
I1000
tp5170
ss(g721
g166
tp5171
(dp5172
g13
(I200
I200
tp5173
sg15
(I600
I600
tp5174
ss(g171
g249
tp5175
(dp5176
g13
(I4
I1
tp5177
sg15
(I199
I214
tp5178
ss(g96
g221
tp5179
(dp5180
g13
(I4
I198
tp5181
sg15
(I985
I15
tp5182
ss(g186
g85
tp5183
(dp5184
g13
(I200
I200
tp5185
sg15
(I600
I600
tp5186
ss(g721
g186
tp5187
(dp5188
g13
(I200
I200
tp5189
sg15
(I600
I600
tp5190
ss(g317
g126
tp5191
(dp5192
g13
(I100
I100
tp5193
sg15
(I450
I450
tp5194
ss(g147
g285
tp5195
(dp5196
g13
(I200
I200
tp5197
sg15
(I600
I600
tp5198
ss(g18
g102
tp5199
(dp5200
g13
(I2
I199
tp5201
sg15
(I992
I7
tp5202
ss(g248
g262
tp5203
(dp5204
g13
(I200
I200
tp5205
sg15
(I600
I600
tp5206
ss(g73
g362
tp5207
(dp5208
g13
(I200
I100
tp5209
sg15
(I300
I800
tp5210
ss(g47
g68
tp5211
(dp5212
g13
(I200
I200
tp5213
sg15
(I600
I600
tp5214
ss(g271
g467
tp5215
(dp5216
g13
(I200
I0
tp5217
sg15
(I0
I1000
tp5218
ss(g9
g295
tp5219
(dp5220
g13
(I196
I198
tp5221
sg15
(I601
I591
tp5222
ss(g23
g52
tp5223
(dp5224
g13
(I200
I200
tp5225
sg15
(I600
I600
tp5226
ss(g111
g148
tp5227
(dp5228
g13
(I150
I40
tp5229
sg15
(I183
I733
tp5230
ss(g230
g102
tp5231
(dp5232
g13
(I3
I2
tp5233
sg15
(I203
I208
tp5234
ss(g362
g276
tp5235
(dp5236
g13
(I146
I145
tp5237
sg15
(I535
I540
tp5238
ss(g230
g176
tp5239
(dp5240
g13
(I200
I0
tp5241
sg15
(I0
I1000
tp5242
ss(g73
g526
tp5243
(dp5244
g13
(I200
I0
tp5245
sg15
(I0
I1000
tp5246
ss(g243
g148
tp5247
(dp5248
g13
(I200
I200
tp5249
sg15
(I600
I600
tp5250
ss(g137
g74
tp5251
(dp5252
g13
(I200
I0
tp5253
sg15
(I0
I1000
tp5254
ss(g425
g177
tp5255
(dp5256
g13
(I200
I0
tp5257
sg15
(I0
I1000
tp5258
ss(g526
g171
tp5259
(dp5260
g13
(I197
I197
tp5261
sg15
(I596
I596
tp5262
ss(g73
g248
tp5263
(dp5264
g13
(I196
I196
tp5265
sg15
(I595
I595
tp5266
ss(g90
g721
tp5267
(dp5268
g13
(I198
I200
tp5269
sg15
(I604
I594
tp5270
ss(g243
g137
tp5271
(dp5272
g13
(I200
I200
tp5273
sg15
(I600
I600
tp5274
ss(g10
g10
tp5275
(dp5276
g13
(I198
I198
tp5277
sg15
(I596
I596
tp5278
ss(g295
g656
tp5279
(dp5280
g13
(I198
I199
tp5281
sg15
(I600
I595
tp5282
ss(g176
g285
tp5283
(dp5284
g13
(I0
I200
tp5285
sg15
(I1000
I0
tp5286
ss(g46
g41
tp5287
(dp5288
g13
(I100
I11
tp5289
sg15
(I138
I583
tp5290
ss(g472
g276
tp5291
(dp5292
g13
(I185
I107
tp5293
sg15
(I350
I740
tp5294
ss(g1054
g79
tp5295
(dp5296
g13
(I200
I200
tp5297
sg15
(I600
I600
tp5298
ss(g450
g24
tp5299
(dp5300
g13
(I187
I199
tp5301
sg15
(I623
I563
tp5302
ss(g90
g101
tp5303
(dp5304
g13
(I6
I2
tp5305
sg15
(I200
I220
tp5306
ss(g195
g176
tp5307
(dp5308
g13
(I200
I0
tp5309
sg15
(I0
I1000
tp5310
ss(g186
g186
tp5311
(dp5312
g13
(I200
I200
tp5313
sg15
(I600
I600
tp5314
ss(g84
g41
tp5315
(dp5316
g13
(I167
I42
tp5317
sg15
(I166
I791
tp5318
ss(g116
g96
tp5319
(dp5320
g13
(I198
I1
tp5321
sg15
(I6
I991
tp5322
ss(g90
g102
tp5323
(dp5324
g13
(I5
I182
tp5325
sg15
(I922
I37
tp5326
ss(g91
g29
tp5327
(dp5328
g13
(I134
I169
tp5329
sg15
(I609
I434
tp5330
ss(g371
g102
tp5331
(dp5332
g13
(I10
I192
tp5333
sg15
(I955
I45
tp5334
ss(g472
g450
tp5335
(dp5336
g13
(I200
I200
tp5337
sg15
(I600
I600
tp5338
ss(g85
g467
tp5339
(dp5340
g13
(I200
I0
tp5341
sg15
(I0
I1000
tp5342
ss(g23
g216
tp5343
(dp5344
g13
(I200
I200
tp5345
sg15
(I600
I600
tp5346
ss(g262
g262
tp5347
(dp5348
g13
(I200
I200
tp5349
sg15
(I600
I600
tp5350
ss(g362
g362
tp5351
(dp5352
g13
(I199
I199
tp5353
sg15
(I598
I598
tp5354
ss(g472
g285
tp5355
(dp5356
g13
(I200
I200
tp5357
sg15
(I600
I600
tp5358
ss(g67
g171
tp5359
(dp5360
g13
(I117
I129
tp5361
sg15
(I529
I469
tp5362
ss(g47
g47
tp5363
(dp5364
g13
(I200
I200
tp5365
sg15
(I600
I600
tp5366
ss(g24
g36
tp5367
(dp5368
g13
(I0
I0
tp5369
sg15
(I200
I200
tp5370
ss(g271
g177
tp5371
(dp5372
g13
(I200
I0
tp5373
sg15
(I0
I1000
tp5374
ss(g35
g29
tp5375
(dp5376
g13
(I182
I121
tp5377
sg15
(I395
I700
tp5378
ss(g1054
g271
tp5379
(dp5380
g13
(I200
I200
tp5381
sg15
(I600
I600
tp5382
ss(g46
g371
tp5383
(dp5384
g13
(I100
I10
tp5385
sg15
(I135
I585
tp5386
ss(g308
g517
tp5387
(dp5388
g13
(I200
I200
tp5389
sg15
(I600
I600
tp5390
ss(g79
g271
tp5391
(dp5392
g13
(I200
I200
tp5393
sg15
(I600
I600
tp5394
ss(g317
g74
tp5395
(dp5396
g13
(I200
I0
tp5397
sg15
(I0
I1000
tp5398
ss(g271
g271
tp5399
(dp5400
g13
(I200
I200
tp5401
sg15
(I600
I600
tp5402
ss(g137
g221
tp5403
(dp5404
g13
(I169
I168
tp5405
sg15
(I550
I555
tp5406
ss(g35
g132
tp5407
(dp5408
g13
(I182
I5
tp5409
sg15
(I35
I920
tp5410
ss(g294
g47
tp5411
(dp5412
g13
(I200
I200
tp5413
sg15
(I600
I600
tp5414
ss(g308
g308
tp5415
(dp5416
g13
(I200
I200
tp5417
sg15
(I600
I600
tp5418
ss(g116
g116
tp5419
(dp5420
g13
(I100
I100
tp5421
sg15
(I400
I400
tp5422
ss(g62
g555
tp5423
(dp5424
g13
(I9
I180
tp5425
sg15
(I907
I52
tp5426
ss(g132
g195
tp5427
(dp5428
g13
(I200
I200
tp5429
sg15
(I600
I600
tp5430
ss(g721
g148
tp5431
(dp5432
g13
(I200
I200
tp5433
sg15
(I600
I600
tp5434
ss(g271
g137
tp5435
(dp5436
g13
(I200
I200
tp5437
sg15
(I600
I600
tp5438
ss(g555
g30
tp5439
(dp5440
g13
(I200
I0
tp5441
sg15
(I0
I1000
tp5442
ss(g371
g36
tp5443
(dp5444
g13
(I10
I10
tp5445
sg15
(I221
I221
tp5446
ss(g91
g67
tp5447
(dp5448
g13
(I134
I113
tp5449
sg15
(I421
I526
tp5450
ss(g294
g230
tp5451
(dp5452
g13
(I200
I200
tp5453
sg15
(I600
I600
tp5454
ss(g294
g79
tp5455
(dp5456
g13
(I200
I200
tp5457
sg15
(I600
I600
tp5458
ss(g294
g132
tp5459
(dp5460
g13
(I200
I200
tp5461
sg15
(I600
I600
tp5462
ss(g425
g362
tp5463
(dp5464
g13
(I199
I199
tp5465
sg15
(I599
I599
tp5466
ss(g46
g29
tp5467
(dp5468
g13
(I100
I199
tp5469
sg15
(I796
I301
tp5470
ss(g90
g126
tp5471
(dp5472
g13
(I198
I200
tp5473
sg15
(I604
I594
tp5474
ss(g62
g137
tp5475
(dp5476
g13
(I200
I200
tp5477
sg15
(I600
I600
tp5478
ss(g317
g450
tp5479
(dp5480
g13
(I174
I26
tp5481
sg15
(I117
I857
tp5482
ss(g308
g230
tp5483
(dp5484
g13
(I200
I200
tp5485
sg15
(I600
I600
tp5486
ss(g294
g721
tp5487
(dp5488
g13
(I200
I200
tp5489
sg15
(I600
I600
tp5490
ss(g271
g68
tp5491
(dp5492
g13
(I200
I200
tp5493
sg15
(I600
I600
tp5494
ss(g317
g526
tp5495
(dp5496
g13
(I200
I0
tp5497
sg15
(I0
I1000
tp5498
ss(g317
g47
tp5499
(dp5500
g13
(I155
I45
tp5501
sg15
(I210
I760
tp5502
ss(g52
g142
tp5503
(dp5504
g13
(I200
I200
tp5505
sg15
(I600
I600
tp5506
ss(g96
g285
tp5507
(dp5508
g13
(I200
I200
tp5509
sg15
(I600
I600
tp5510
ss(g132
g85
tp5511
(dp5512
g13
(I200
I200
tp5513
sg15
(I600
I600
tp5514
ss(g96
g102
tp5515
(dp5516
g13
(I50
I49
tp5517
sg15
(I297
I302
tp5518
ss(g243
g467
tp5519
(dp5520
g13
(I200
I0
tp5521
sg15
(I0
I1000
tp5522
ss(g230
g68
tp5523
(dp5524
g13
(I200
I200
tp5525
sg15
(I600
I600
tp5526
ss(g84
g18
tp5527
(dp5528
g13
(I167
I2
tp5529
sg15
(I39
I864
tp5530
ss(g10
g176
tp5531
(dp5532
g13
(I200
I0
tp5533
sg15
(I0
I1000
tp5534
ss(g73
g30
tp5535
(dp5536
g13
(I200
I0
tp5537
sg15
(I0
I1000
tp5538
ss(g131
g262
tp5539
(dp5540
g13
(I200
I200
tp5541
sg15
(I600
I600
tp5542
ss(g79
g467
tp5543
(dp5544
g13
(I200
I0
tp5545
sg15
(I0
I1000
tp5546
ss(g23
g248
tp5547
(dp5548
g13
(I200
I200
tp5549
sg15
(I600
I600
tp5550
ss(g46
g148
tp5551
(dp5552
g13
(I100
I11
tp5553
sg15
(I143
I588
tp5554
ss(g295
g117
tp5555
(dp5556
g13
(I198
I200
tp5557
sg15
(I604
I594
tp5558
ss(g317
g1054
tp5559
(dp5560
g13
(I1
I200
tp5561
sg15
(I998
I3
tp5562
ss(g317
g230
tp5563
(dp5564
g13
(I182
I18
tp5565
sg15
(I81
I901
tp5566
ss(g23
g85
tp5567
(dp5568
g13
(I200
I200
tp5569
sg15
(I600
I600
tp5570
ss(g656
g249
tp5571
(dp5572
g13
(I10
I10
tp5573
sg15
(I230
I230
tp5574
ss(g61
g1054
tp5575
(dp5576
g13
(I200
I200
tp5577
sg15
(I600
I600
tp5578
ss(g46
g555
tp5579
(dp5580
g13
(I100
I0
tp5581
sg15
(I100
I600
tp5582
ss(g721
g102
tp5583
(dp5584
g13
(I165
I172
tp5585
sg15
(I561
I526
tp5586
ss(g317
g132
tp5587
(dp5588
g13
(I197
I3
tp5589
sg15
(I14
I984
tp5590
ss(g131
g29
tp5591
(dp5592
g13
(I200
I1
tp5593
sg15
(I3
I998
tp5594
ss(g84
g24
tp5595
(dp5596
g13
(I167
I199
tp5597
sg15
(I663
I503
tp5598
ss(g371
g23
tp5599
(dp5600
g13
(I200
I200
tp5601
sg15
(I600
I600
tp5602
ss(g425
g467
tp5603
(dp5604
g13
(I200
I0
tp5605
sg15
(I0
I1000
tp5606
ss(g248
g656
tp5607
(dp5608
g13
(I200
I200
tp5609
sg15
(I600
I600
tp5610
ss(g317
g721
tp5611
(dp5612
g13
(I95
I105
tp5613
sg15
(I490
I440
tp5614
ss(g116
g148
tp5615
(dp5616
g13
(I168
I31
tp5617
sg15
(I141
I826
tp5618
ss(g46
g147
tp5619
(dp5620
g13
(I100
I199
tp5621
sg15
(I797
I302
tp5622
ss(g186
g517
tp5623
(dp5624
g13
(I200
I200
tp5625
sg15
(I600
I600
tp5626
ss(g425
g555
tp5627
(dp5628
g13
(I60
I100
tp5629
sg15
(I520
I320
tp5630
ss(g294
g400
tp5631
(dp5632
g13
(I200
I200
tp5633
sg15
(I600
I600
tp5634
ss(g61
g656
tp5635
(dp5636
g13
(I200
I200
tp5637
sg15
(I600
I600
tp5638
ss(g472
g142
tp5639
(dp5640
g13
(I200
I200
tp5641
sg15
(I600
I600
tp5642
ss(g271
g285
tp5643
(dp5644
g13
(I200
I200
tp5645
sg15
(I600
I600
tp5646
ss(g295
g308
tp5647
(dp5648
g13
(I198
I199
tp5649
sg15
(I600
I595
tp5650
ss(g84
g62
tp5651
(dp5652
g13
(I167
I8
tp5653
sg15
(I59
I854
tp5654
ss(g35
g294
tp5655
(dp5656
g13
(I182
I199
tp5657
sg15
(I632
I547
tp5658
ss(g35
g67
tp5659
(dp5660
g13
(I182
I65
tp5661
sg15
(I219
I804
tp5662
ss(g721
g555
tp5663
(dp5664
g13
(I81
I87
tp5665
sg15
(I451
I421
tp5666
ss(g90
g90
tp5667
(dp5668
g13
(I198
I198
tp5669
sg15
(I596
I596
tp5670
ss(g35
g450
tp5671
(dp5672
g13
(I182
I57
tp5673
sg15
(I200
I825
tp5674
ss(g248
g142
tp5675
(dp5676
g13
(I200
I200
tp5677
sg15
(I600
I600
tp5678
ss(g249
g195
tp5679
(dp5680
g13
(I1
I200
tp5681
sg15
(I998
I3
tp5682
ss(g467
g467
tp5683
(dp5684
g13
(I200
I0
tp5685
sg15
(I0
I1000
tp5686
ss(g35
g47
tp5687
(dp5688
g13
(I182
I200
tp5689
sg15
(I636
I546
tp5690
ss(g171
g85
tp5691
(dp5692
g13
(I200
I200
tp5693
sg15
(I600
I600
tp5694
ss(g371
g555
tp5695
(dp5696
g13
(I10
I187
tp5697
sg15
(I938
I53
tp5698
ss(g35
g308
tp5699
(dp5700
g13
(I182
I146
tp5701
sg15
(I473
I653
tp5702
ss(g61
g90
tp5703
(dp5704
g13
(I199
I198
tp5705
sg15
(I595
I600
tp5706
ss(g147
g221
tp5707
(dp5708
g13
(I169
I170
tp5709
sg15
(I557
I552
tp5710
ss(g91
g24
tp5711
(dp5712
g13
(I134
I199
tp5713
sg15
(I729
I404
tp5714
ss(g111
g111
tp5715
(dp5716
g13
(I150
I150
tp5717
sg15
(I500
I500
tp5718
ss(g317
g400
tp5719
(dp5720
g13
(I164
I36
tp5721
sg15
(I162
I802
tp5722
ss(g116
g555
tp5723
(dp5724
g13
(I199
I0
tp5725
sg15
(I1
I996
tp5726
ss(g721
g195
tp5727
(dp5728
g13
(I200
I200
tp5729
sg15
(I600
I600
tp5730
ss(g526
g308
tp5731
(dp5732
g13
(I198
I196
tp5733
sg15
(I591
I601
tp5734
ss(g450
g10
tp5735
(dp5736
g13
(I15
I101
tp5737
sg15
(I587
I157
tp5738
ss(g62
g221
tp5739
(dp5740
g13
(I76
I180
tp5741
sg15
(I781
I261
tp5742
ss(g721
g656
tp5743
(dp5744
g13
(I200
I200
tp5745
sg15
(I600
I600
tp5746
ss(g62
g147
tp5747
(dp5748
g13
(I1
I2
tp5749
sg15
(I207
I202
tp5750
ss(g176
g176
tp5751
(dp5752
g13
(I0
I200
tp5753
sg15
(I1000
I0
tp5754
ss(g9
g262
tp5755
(dp5756
g13
(I14
I25
tp5757
sg15
(I273
I218
tp5758
ss(g91
g18
tp5759
(dp5760
g13
(I134
I133
tp5761
sg15
(I531
I536
tp5762
ss(g248
g10
tp5763
(dp5764
g13
(I194
I194
tp5765
sg15
(I591
I591
tp5766
ss(g9
g425
tp5767
(dp5768
g13
(I0
I1
tp5769
sg15
(I204
I199
tp5770
ss(g116
g68
tp5771
(dp5772
g13
(I100
I100
tp5773
sg15
(I400
I400
tp5774
ss(g295
g30
tp5775
(dp5776
g13
(I200
I0
tp5777
sg15
(I0
I1000
tp5778
ss(g148
g30
tp5779
(dp5780
g13
(I200
I0
tp5781
sg15
(I0
I1000
tp5782
ss(g166
g18
tp5783
(dp5784
g13
(I67
I2
tp5785
sg15
(I139
I464
tp5786
ss(g17
g450
tp5787
(dp5788
g13
(I200
I200
tp5789
sg15
(I600
I600
tp5790
ss(g46
g126
tp5791
(dp5792
g13
(I100
I101
tp5793
sg15
(I503
I498
tp5794
ss(g555
g68
tp5795
(dp5796
g13
(I0
I0
tp5797
sg15
(I200
I200
tp5798
ss(g656
g117
tp5799
(dp5800
g13
(I200
I200
tp5801
sg15
(I600
I600
tp5802
ss(g17
g148
tp5803
(dp5804
g13
(I200
I200
tp5805
sg15
(I600
I600
tp5806
ss(g1054
g400
tp5807
(dp5808
g13
(I200
I200
tp5809
sg15
(I600
I600
tp5810
ss(g9
g248
tp5811
(dp5812
g13
(I0
I1
tp5813
sg15
(I204
I199
tp5814
ss(g295
g243
tp5815
(dp5816
g13
(I198
I199
tp5817
sg15
(I600
I595
tp5818
ss(g271
g400
tp5819
(dp5820
g13
(I200
I200
tp5821
sg15
(I600
I600
tp5822
ss(g721
g41
tp5823
(dp5824
g13
(I200
I200
tp5825
sg15
(I600
I600
tp5826
ss(g216
g30
tp5827
(dp5828
g13
(I200
I0
tp5829
sg15
(I0
I1000
tp5830
ss(g248
g68
tp5831
(dp5832
g13
(I200
I200
tp5833
sg15
(I600
I600
tp5834
ss(g116
g171
tp5835
(dp5836
g13
(I99
I101
tp5837
sg15
(I472
I462
tp5838
ss(g472
g176
tp5839
(dp5840
g13
(I200
I0
tp5841
sg15
(I0
I1000
tp5842
ss(g526
g262
tp5843
(dp5844
g13
(I195
I7
tp5845
sg15
(I30
I970
tp5846
ss(g526
g425
tp5847
(dp5848
g13
(I198
I197
tp5849
sg15
(I594
I599
tp5850
ss(g186
g308
tp5851
(dp5852
g13
(I200
I200
tp5853
sg15
(I600
I600
tp5854
ss(g91
g74
tp5855
(dp5856
g13
(I200
I0
tp5857
sg15
(I0
I1000
tp5858
ss(g90
g137
tp5859
(dp5860
g13
(I198
I199
tp5861
sg15
(I600
I595
tp5862
ss(g29
g362
tp5863
(dp5864
g13
(I152
I151
tp5865
sg15
(I548
I553
tp5866
ss(g41
g166
tp5867
(dp5868
g13
(I200
I200
tp5869
sg15
(I600
I600
tp5870
ss(g84
g142
tp5871
(dp5872
g13
(I167
I134
tp5873
sg15
(I468
I633
tp5874
ss(g91
g371
tp5875
(dp5876
g13
(I134
I10
tp5877
sg15
(I99
I719
tp5878
ss(g116
g111
tp5879
(dp5880
g13
(I49
I150
tp5881
sg15
(I702
I197
tp5882
ss(g472
g166
tp5883
(dp5884
g13
(I200
I200
tp5885
sg15
(I600
I600
tp5886
ss(g132
g230
tp5887
(dp5888
g13
(I200
I200
tp5889
sg15
(I600
I600
tp5890
ss(g721
g249
tp5891
(dp5892
g13
(I190
I189
tp5893
sg15
(I587
I592
tp5894
ss(g79
g41
tp5895
(dp5896
g13
(I200
I200
tp5897
sg15
(I600
I600
tp5898
ss(g295
g23
tp5899
(dp5900
g13
(I198
I200
tp5901
sg15
(I604
I594
tp5902
ss(g308
g85
tp5903
(dp5904
g13
(I200
I200
tp5905
sg15
(I600
I600
tp5906
ss(g126
g721
tp5907
(dp5908
g13
(I200
I200
tp5909
sg15
(I600
I600
tp5910
ss(g132
g472
tp5911
(dp5912
g13
(I200
I200
tp5913
sg15
(I600
I600
tp5914
ss(g294
g262
tp5915
(dp5916
g13
(I200
I200
tp5917
sg15
(I600
I600
tp5918
ss(g24
g137
tp5919
(dp5920
g13
(I199
I199
tp5921
sg15
(I599
I599
tp5922
ss(g243
g24
tp5923
(dp5924
g13
(I16
I199
tp5925
sg15
(I965
I50
tp5926
ss(g47
g517
tp5927
(dp5928
g13
(I200
I200
tp5929
sg15
(I600
I600
tp5930
ss(g1054
g36
tp5931
(dp5932
g13
(I200
I199
tp5933
sg15
(I597
I602
tp5934
ss(g148
g285
tp5935
(dp5936
g13
(I200
I200
tp5937
sg15
(I600
I600
tp5938
ss(g101
g18
tp5939
(dp5940
g13
(I2
I4
tp5941
sg15
(I212
I202
tp5942
ss(g1054
g176
tp5943
(dp5944
g13
(I200
I0
tp5945
sg15
(I0
I1000
tp5946
ss(g517
g285
tp5947
(dp5948
g13
(I200
I200
tp5949
sg15
(I600
I600
tp5950
ss(g166
g249
tp5951
(dp5952
g13
(I44
I1
tp5953
sg15
(I159
I374
tp5954
ss(g249
g555
tp5955
(dp5956
g13
(I67
I66
tp5957
sg15
(I364
I369
tp5958
ss(g295
g262
tp5959
(dp5960
g13
(I198
I199
tp5961
sg15
(I600
I595
tp5962
ss(g317
g62
tp5963
(dp5964
g13
(I180
I20
tp5965
sg15
(I90
I890
tp5966
ss(g308
g47
tp5967
(dp5968
g13
(I200
I200
tp5969
sg15
(I600
I600
tp5970
ss(g46
g30
tp5971
(dp5972
g13
(I200
I0
tp5973
sg15
(I0
I1000
tp5974
ss(g90
g62
tp5975
(dp5976
g13
(I198
I200
tp5977
sg15
(I604
I594
tp5978
ss(g148
g10
tp5979
(dp5980
g13
(I13
I106
tp5981
sg15
(I609
I144
tp5982
ss(g308
g41
tp5983
(dp5984
g13
(I200
I200
tp5985
sg15
(I600
I600
tp5986
ss(g61
g116
tp5987
(dp5988
g13
(I133
I66
tp5989
sg15
(I265
I600
tp5990
ss(g85
g68
tp5991
(dp5992
g13
(I200
I200
tp5993
sg15
(I600
I600
tp5994
ss(g371
g18
tp5995
(dp5996
g13
(I10
I2
tp5997
sg15
(I196
I236
tp5998
ss(g131
g18
tp5999
(dp6000
g13
(I200
I2
tp6001
sg15
(I6
I996
tp6002
ss(g91
g221
tp6003
(dp6004
g13
(I134
I200
tp6005
sg15
(I732
I402
tp6006
ss(g91
g126
tp6007
(dp6008
g13
(I134
I134
tp6009
sg15
(I534
I534
tp6010
ss(g131
g400
tp6011
(dp6012
g13
(I200
I200
tp6013
sg15
(I600
I600
tp6014
ss(g371
g142
tp6015
(dp6016
g13
(I200
I200
tp6017
sg15
(I600
I600
tp6018
ss(g294
g96
tp6019
(dp6020
g13
(I200
I200
tp6021
sg15
(I600
I600
tp6022
ss(g91
g308
tp6023
(dp6024
g13
(I134
I3
tp6025
sg15
(I76
I731
tp6026
ss(g131
g116
tp6027
(dp6028
g13
(I200
I0
tp6029
sg15
(I0
I1000
tp6030
ss(g84
g132
tp6031
(dp6032
g13
(I167
I12
tp6033
sg15
(I71
I846
tp6034
ss(g371
g30
tp6035
(dp6036
g13
(I200
I0
tp6037
sg15
(I0
I1000
tp6038
ss(g131
g243
tp6039
(dp6040
g13
(I200
I200
tp6041
sg15
(I600
I600
tp6042
ss(g371
g166
tp6043
(dp6044
g13
(I200
I200
tp6045
sg15
(I600
I600
tp6046
ss(g131
g84
tp6047
(dp6048
g13
(I200
I167
tp6049
sg15
(I501
I666
tp6050
ss(g317
g165
tp6051
(dp6052
g13
(I200
I0
tp6053
sg15
(I0
I1000
tp6054
ss(g79
g137
tp6055
(dp6056
g13
(I200
I200
tp6057
sg15
(I600
I600
tp6058
ss(g317
g24
tp6059
(dp6060
g13
(I2
I199
tp6061
sg15
(I993
I8
tp6062
ss(g96
g18
tp6063
(dp6064
g13
(I1
I2
tp6065
sg15
(I207
I202
tp6066
ss(g294
g308
tp6067
(dp6068
g13
(I200
I200
tp6069
sg15
(I600
I600
tp6070
ss(g132
g137
tp6071
(dp6072
g13
(I200
I200
tp6073
sg15
(I600
I600
tp6074
ss(g166
g221
tp6075
(dp6076
g13
(I17
I186
tp6077
sg15
(I923
I78
tp6078
ss(g294
g62
tp6079
(dp6080
g13
(I200
I200
tp6081
sg15
(I600
I600
tp6082
ss(g102
g30
tp6083
(dp6084
g13
(I200
I0
tp6085
sg15
(I0
I1000
tp6086
ss(g308
g102
tp6087
(dp6088
g13
(I51
I50
tp6089
sg15
(I299
I304
tp6090
ss(g165
g85
tp6091
(dp6092
g13
(I0
I100
tp6093
sg15
(I600
I100
tp6094
ss(g24
g102
tp6095
(dp6096
g13
(I199
I113
tp6097
sg15
(I341
I771
tp6098
ss(g295
g285
tp6099
(dp6100
g13
(I200
I200
tp6101
sg15
(I600
I600
tp6102
ss(g17
g29
tp6103
(dp6104
g13
(I108
I193
tp6105
sg15
(I762
I337
tp6106
ss(g23
g555
tp6107
(dp6108
g13
(I92
I79
tp6109
sg15
(I411
I476
tp6110
ss(g262
g285
tp6111
(dp6112
g13
(I200
I200
tp6113
sg15
(I600
I600
tp6114
ss(g61
g91
tp6115
(dp6116
g13
(I101
I134
tp6117
sg15
(I567
I402
tp6118
ss(g46
g517
tp6119
(dp6120
g13
(I100
I18
tp6121
sg15
(I171
I581
tp6122
ss(g61
g294
tp6123
(dp6124
g13
(I200
I200
tp6125
sg15
(I600
I600
tp6126
ss(g111
g36
tp6127
(dp6128
g13
(I150
I150
tp6129
sg15
(I550
I550
tp6130
ss(g295
g102
tp6131
(dp6132
g13
(I198
I199
tp6133
sg15
(I600
I595
tp6134
ss(g79
g147
tp6135
(dp6136
g13
(I200
I199
tp6137
sg15
(I597
I602
tp6138
ss(g84
g425
tp6139
(dp6140
g13
(I167
I200
tp6141
sg15
(I666
I501
tp6142
ss(g317
g96
tp6143
(dp6144
g13
(I198
I2
tp6145
sg15
(I9
I989
tp6146
ss(g68
g177
tp6147
(dp6148
g13
(I200
I0
tp6149
sg15
(I0
I1000
tp6150
ss(g230
g221
tp6151
(dp6152
g13
(I70
I186
tp6153
sg15
(I811
I231
tp6154
ss(g47
g400
tp6155
(dp6156
g13
(I200
I200
tp6157
sg15
(I600
I600
tp6158
ss(g131
g17
tp6159
(dp6160
g13
(I200
I200
tp6161
sg15
(I600
I600
tp6162
ss(g84
g126
tp6163
(dp6164
g13
(I167
I167
tp6165
sg15
(I567
I567
tp6166
ss(g23
g362
tp6167
(dp6168
g13
(I199
I199
tp6169
sg15
(I599
I599
tp6170
ss(g101
g221
tp6171
(dp6172
g13
(I2
I200
tp6173
sg15
(I996
I6
tp6174
ss(g61
g308
tp6175
(dp6176
g13
(I200
I200
tp6177
sg15
(I600
I600
tp6178
ss(g186
g68
tp6179
(dp6180
g13
(I200
I200
tp6181
sg15
(I600
I600
tp6182
ss(g131
g61
tp6183
(dp6184
g13
(I200
I200
tp6185
sg15
(I600
I600
tp6186
ss(g131
g467
tp6187
(dp6188
g13
(I200
I0
tp6189
sg15
(I0
I1000
tp6190
ss(g317
g271
tp6191
(dp6192
g13
(I168
I32
tp6193
sg15
(I144
I824
tp6194
ss(g35
g90
tp6195
(dp6196
g13
(I182
I14
tp6197
sg15
(I64
I904
tp6198
ss(g41
g142
tp6199
(dp6200
g13
(I200
I200
tp6201
sg15
(I600
I600
tp6202
ss(g131
g230
tp6203
(dp6204
g13
(I200
I200
tp6205
sg15
(I600
I600
tp6206
ss(g96
g36
tp6207
(dp6208
g13
(I1
I1
tp6209
sg15
(I203
I203
tp6210
ss(g425
g221
tp6211
(dp6212
g13
(I175
I99
tp6213
sg15
(I338
I718
tp6214
ss(g295
g68
tp6215
(dp6216
g13
(I198
I198
tp6217
sg15
(I596
I596
tp6218
ss(g18
g467
tp6219
(dp6220
g13
(I200
I0
tp6221
sg15
(I0
I1000
tp6222
ss(g243
g285
tp6223
(dp6224
g13
(I200
I200
tp6225
sg15
(I600
I600
tp6226
ss(g79
g23
tp6227
(dp6228
g13
(I200
I200
tp6229
sg15
(I600
I600
tp6230
ss(g271
g101
tp6231
(dp6232
g13
(I1
I2
tp6233
sg15
(I207
I202
tp6234
ss(g126
g195
tp6235
(dp6236
g13
(I200
I200
tp6237
sg15
(I600
I600
tp6238
ss(g271
g425
tp6239
(dp6240
g13
(I200
I200
tp6241
sg15
(I600
I600
tp6242
ss(g221
g102
tp6243
(dp6244
g13
(I180
I22
tp6245
sg15
(I105
I895
tp6246
ss(g90
g74
tp6247
(dp6248
g13
(I200
I0
tp6249
sg15
(I0
I1000
tp6250
ss(g73
g10
tp6251
(dp6252
g13
(I200
I2
tp6253
sg15
(I6
I996
tp6254
ss(g243
g23
tp6255
(dp6256
g13
(I200
I200
tp6257
sg15
(I600
I600
tp6258
ss(g67
g450
tp6259
(dp6260
g13
(I184
I61
tp6261
sg15
(I210
I825
tp6262
ss(g73
g295
tp6263
(dp6264
g13
(I195
I8
tp6265
sg15
(I33
I968
tp6266
ss(g62
g171
tp6267
(dp6268
g13
(I200
I200
tp6269
sg15
(I600
I600
tp6270
ss(g35
g1054
tp6271
(dp6272
g13
(I182
I200
tp6273
sg15
(I636
I546
tp6274
ss(g243
g142
tp6275
(dp6276
g13
(I200
I200
tp6277
sg15
(I600
I600
tp6278
ss(g9
g116
tp6279
(dp6280
g13
(I0
I199
tp6281
sg15
(I996
I1
tp6282
ss(g47
g176
tp6283
(dp6284
g13
(I200
I0
tp6285
sg15
(I0
I1000
tp6286
ss(g249
g362
tp6287
(dp6288
g13
(I1
I2
tp6289
sg15
(I206
I201
tp6290
ss(g221
g216
tp6291
(dp6292
g13
(I182
I182
tp6293
sg15
(I564
I564
tp6294
ss(g721
g36
tp6295
(dp6296
g13
(I190
I189
tp6297
sg15
(I587
I592
tp6298
ss(g230
g85
tp6299
(dp6300
g13
(I200
I200
tp6301
sg15
(I600
I600
tp6302
ss(g91
g142
tp6303
(dp6304
g13
(I134
I68
tp6305
sg15
(I336
I666
tp6306
ss(g517
g85
tp6307
(dp6308
g13
(I200
I200
tp6309
sg15
(I600
I600
tp6310
ss(g18
g137
tp6311
(dp6312
g13
(I199
I199
tp6313
sg15
(I599
I599
tp6314
ss(g526
g721
tp6315
(dp6316
g13
(I198
I197
tp6317
sg15
(I594
I599
tp6318
ss(g526
g126
tp6319
(dp6320
g13
(I198
I198
tp6321
sg15
(I597
I597
tp6322
ss(g41
g176
tp6323
(dp6324
g13
(I200
I0
tp6325
sg15
(I0
I1000
tp6326
ss(g147
g249
tp6327
(dp6328
g13
(I2
I1
tp6329
sg15
(I201
I206
tp6330
ss(g84
g656
tp6331
(dp6332
g13
(I167
I22
tp6333
sg15
(I116
I841
tp6334
ss(g195
g148
tp6335
(dp6336
g13
(I200
I200
tp6337
sg15
(I600
I600
tp6338
ss(g62
g186
tp6339
(dp6340
g13
(I200
I200
tp6341
sg15
(I600
I600
tp6342
ss(g96
g101
tp6343
(dp6344
g13
(I1
I2
tp6345
sg15
(I207
I202
tp6346
ss(g137
g142
tp6347
(dp6348
g13
(I200
I200
tp6349
sg15
(I600
I600
tp6350
ss(g248
g67
tp6351
(dp6352
g13
(I126
I120
tp6353
sg15
(I493
I523
tp6354
ss(g165
g450
tp6355
(dp6356
g13
(I0
I13
tp6357
sg15
(I252
I187
tp6358
ss(g216
g176
tp6359
(dp6360
g13
(I199
I0
tp6361
sg15
(I1
I996
tp6362
ss(g46
g271
tp6363
(dp6364
g13
(I100
I18
tp6365
sg15
(I171
I581
tp6366
ss(g9
g243
tp6367
(dp6368
g13
(I16
I31
tp6369
sg15
(I293
I218
tp6370
ss(g17
g517
tp6371
(dp6372
g13
(I200
I200
tp6373
sg15
(I600
I600
tp6374
ss(g35
g177
tp6375
(dp6376
g13
(I200
I0
tp6377
sg15
(I0
I1000
tp6378
ss(g62
g276
tp6379
(dp6380
g13
(I105
I180
tp6381
sg15
(I728
I353
tp6382
ss(g656
g400
tp6383
(dp6384
g13
(I200
I200
tp6385
sg15
(I600
I600
tp6386
ss(g117
g276
tp6387
(dp6388
g13
(I184
I108
tp6389
sg15
(I355
I735
tp6390
ss(g35
g526
tp6391
(dp6392
g13
(I182
I198
tp6393
sg15
(I629
I549
tp6394
ss(g68
g285
tp6395
(dp6396
g13
(I200
I200
tp6397
sg15
(I600
I600
tp6398
ss(g526
g47
tp6399
(dp6400
g13
(I197
I189
tp6401
sg15
(I572
I612
tp6402
ss(g221
g74
tp6403
(dp6404
g13
(I200
I0
tp6405
sg15
(I0
I1000
tp6406
ss(g165
g230
tp6407
(dp6408
g13
(I0
I1
tp6409
sg15
(I204
I199
tp6410
ss(g41
g117
tp6411
(dp6412
g13
(I200
I200
tp6413
sg15
(I600
I600
tp6414
ss(g116
g67
tp6415
(dp6416
g13
(I0
I200
tp6417
sg15
(I1000
I0
tp6418
ss(g467
g74
tp6419
(dp6420
g13
(I200
I200
tp6421
sg15
(I600
I600
tp6422
ss(g52
g221
tp6423
(dp6424
g13
(I92
I183
tp6425
sg15
(I757
I302
tp6426
ss(g425
g308
tp6427
(dp6428
g13
(I200
I200
tp6429
sg15
(I600
I600
tp6430
ss(g131
g271
tp6431
(dp6432
g13
(I200
I200
tp6433
sg15
(I600
I600
tp6434
ss(g90
g96
tp6435
(dp6436
g13
(I198
I199
tp6437
sg15
(I600
I595
tp6438
ss(g91
g400
tp6439
(dp6440
g13
(I134
I31
tp6441
sg15
(I177
I692
tp6442
ss(g111
g248
tp6443
(dp6444
g13
(I150
I200
tp6445
sg15
(I700
I450
tp6446
ss(g46
g74
tp6447
(dp6448
g13
(I200
I0
tp6449
sg15
(I0
I1000
tp6450
ss(g117
g85
tp6451
(dp6452
g13
(I200
I200
tp6453
sg15
(I600
I600
tp6454
ss(g90
g68
tp6455
(dp6456
g13
(I198
I198
tp6457
sg15
(I596
I596
tp6458
ss(g61
g262
tp6459
(dp6460
g13
(I200
I200
tp6461
sg15
(I600
I600
tp6462
ss(g61
g467
tp6463
(dp6464
g13
(I200
I0
tp6465
sg15
(I0
I1000
tp6466
ss(g79
g308
tp6467
(dp6468
g13
(I200
I200
tp6469
sg15
(I600
I600
tp6470
ss(g67
g36
tp6471
(dp6472
g13
(I123
I123
tp6473
sg15
(I493
I493
tp6474
ss(g61
g10
tp6475
(dp6476
g13
(I199
I198
tp6477
sg15
(I595
I600
tp6478
ss(g295
g47
tp6479
(dp6480
g13
(I198
I200
tp6481
sg15
(I604
I594
tp6482
ss(g308
g362
tp6483
(dp6484
g13
(I1
I2
tp6485
sg15
(I207
I202
tp6486
ss(g276
g176
tp6487
(dp6488
g13
(I200
I0
tp6489
sg15
(I0
I1000
tp6490
ss(g243
g308
tp6491
(dp6492
g13
(I200
I200
tp6493
sg15
(I600
I600
tp6494
ss(g656
g467
tp6495
(dp6496
g13
(I200
I0
tp6497
sg15
(I0
I1000
tp6498
ss(g35
g35
tp6499
(dp6500
g13
(I182
I182
tp6501
sg15
(I564
I564
tp6502
ss(g276
g262
tp6503
(dp6504
g13
(I192
I9
tp6505
sg15
(I42
I957
tp6506
ss(g1054
g137
tp6507
(dp6508
g13
(I200
I200
tp6509
sg15
(I600
I600
tp6510
ss(g23
g117
tp6511
(dp6512
g13
(I200
I200
tp6513
sg15
(I600
I600
tp6514
ss(g1054
g30
tp6515
(dp6516
g13
(I200
I0
tp6517
sg15
(I0
I1000
tp6518
ss(g243
g450
tp6519
(dp6520
g13
(I200
I200
tp6521
sg15
(I600
I600
tp6522
ss(g126
g52
tp6523
(dp6524
g13
(I200
I200
tp6525
sg15
(I600
I600
tp6526
ss(g317
g294
tp6527
(dp6528
g13
(I1
I200
tp6529
sg15
(I998
I3
tp6530
ss(g101
g467
tp6531
(dp6532
g13
(I200
I0
tp6533
sg15
(I0
I1000
tp6534
ss(g294
g171
tp6535
(dp6536
g13
(I200
I200
tp6537
sg15
(I600
I600
tp6538
ss(g317
g73
tp6539
(dp6540
g13
(I1
I200
tp6541
sg15
(I998
I3
tp6542
ss(g467
g285
tp6543
(dp6544
g13
(I200
I200
tp6545
sg15
(I600
I600
tp6546
ss(g294
g126
tp6547
(dp6548
g13
(I200
I200
tp6549
sg15
(I600
I600
tp6550
ss(g171
g450
tp6551
(dp6552
g13
(I200
I200
tp6553
sg15
(I600
I600
tp6554
ss(g131
g74
tp6555
(dp6556
g13
(I200
I0
tp6557
sg15
(I0
I1000
tp6558
ss(g555
g262
tp6559
(dp6560
g13
(I188
I7
tp6561
sg15
(I39
I944
tp6562
ss(g91
g17
tp6563
(dp6564
g13
(I134
I16
tp6565
sg15
(I128
I718
tp6566
ss(g84
g96
tp6567
(dp6568
g13
(I167
I6
tp6569
sg15
(I52
I857
tp6570
ss(g400
g285
tp6571
(dp6572
g13
(I200
I200
tp6573
sg15
(I600
I600
tp6574
ss(g249
g117
tp6575
(dp6576
g13
(I1
I4
tp6577
sg15
(I214
I199
tp6578
ss(g96
g52
tp6579
(dp6580
g13
(I200
I200
tp6581
sg15
(I600
I600
tp6582
ss(g147
g147
tp6583
(dp6584
g13
(I199
I199
tp6585
sg15
(I598
I598
tp6586
ss(g248
g517
tp6587
(dp6588
g13
(I200
I200
tp6589
sg15
(I600
I600
tp6590
ss(g29
g10
tp6591
(dp6592
g13
(I151
I152
tp6593
sg15
(I553
I548
tp6594
ss(g166
g102
tp6595
(dp6596
g13
(I191
I84
tp6597
sg15
(I261
I796
tp6598
ss(g18
g36
tp6599
(dp6600
g13
(I199
I198
tp6601
sg15
(I595
I600
tp6602
ss(g61
g243
tp6603
(dp6604
g13
(I200
I200
tp6605
sg15
(I600
I600
tp6606
ss(g126
g148
tp6607
(dp6608
g13
(I200
I200
tp6609
sg15
(I600
I600
tp6610
ss(g91
g68
tp6611
(dp6612
g13
(I134
I134
tp6613
sg15
(I468
I468
tp6614
ss(g23
g517
tp6615
(dp6616
g13
(I200
I200
tp6617
sg15
(I600
I600
tp6618
ss(g132
g96
tp6619
(dp6620
g13
(I200
I200
tp6621
sg15
(I600
I600
tp6622
ss(g166
g555
tp6623
(dp6624
g13
(I200
I0
tp6625
sg15
(I0
I1000
tp6626
ss(g10
g137
tp6627
(dp6628
g13
(I198
I198
tp6629
sg15
(I597
I597
tp6630
ss(g46
g85
tp6631
(dp6632
g13
(I100
I100
tp6633
sg15
(I450
I450
tp6634
ss(g472
g148
tp6635
(dp6636
g13
(I200
I200
tp6637
sg15
(I600
I600
tp6638
ss(g61
g171
tp6639
(dp6640
g13
(I200
I200
tp6641
sg15
(I600
I600
tp6642
ss(g294
g294
tp6643
(dp6644
g13
(I200
I200
tp6645
sg15
(I600
I600
tp6646
ss(g317
g171
tp6647
(dp6648
g13
(I100
I101
tp6649
sg15
(I470
I465
tp6650
ss(g371
g177
tp6651
(dp6652
g13
(I200
I0
tp6653
sg15
(I0
I1000
tp6654
ss(g9
g1054
tp6655
(dp6656
g13
(I197
I200
tp6657
sg15
(I606
I591
tp6658
ss(g111
g271
tp6659
(dp6660
g13
(I150
I20
tp6661
sg15
(I127
I777
tp6662
ss(g17
g362
tp6663
(dp6664
g13
(I2
I3
tp6665
sg15
(I210
I205
tp6666
ss(g84
g249
tp6667
(dp6668
g13
(I167
I1
tp6669
sg15
(I36
I866
tp6670
ss(g111
g362
tp6671
(dp6672
g13
(I150
I150
tp6673
sg15
(I549
I549
tp6674
ss(g295
g62
tp6675
(dp6676
g13
(I198
I200
tp6677
sg15
(I604
I594
tp6678
ss(g10
g30
tp6679
(dp6680
g13
(I200
I0
tp6681
sg15
(I0
I1000
tp6682
ss(g221
g142
tp6683
(dp6684
g13
(I171
I158
tp6685
sg15
(I518
I583
tp6686
ss(g147
g555
tp6687
(dp6688
g13
(I67
I66
tp6689
sg15
(I364
I369
tp6690
ss(g111
g29
tp6691
(dp6692
g13
(I150
I152
tp6693
sg15
(I530
I520
tp6694
ss(g35
g425
tp6695
(dp6696
g13
(I182
I200
tp6697
sg15
(I636
I546
tp6698
ss(g371
g41
tp6699
(dp6700
g13
(I200
I200
tp6701
sg15
(I600
I600
tp6702
ss(g425
g67
tp6703
(dp6704
g13
(I147
I99
tp6705
sg15
(I391
I631
tp6706
ss(g147
g36
tp6707
(dp6708
g13
(I199
I198
tp6709
sg15
(I595
I600
tp6710
ss(g67
g17
tp6711
(dp6712
g13
(I187
I59
tp6713
sg15
(I198
I838
tp6714
ss(g165
g142
tp6715
(dp6716
g13
(I0
I1
tp6717
sg15
(I204
I199
tp6718
ss(g96
g230
tp6719
(dp6720
g13
(I200
I200
tp6721
sg15
(I600
I600
tp6722
ss(g9
g132
tp6723
(dp6724
g13
(I0
I2
tp6725
sg15
(I208
I198
tp6726
ss(g371
g68
tp6727
(dp6728
g13
(I200
I200
tp6729
sg15
(I600
I600
tp6730
ss(g171
g276
tp6731
(dp6732
g13
(I169
I123
tp6733
sg15
(I430
I660
tp6734
ss(g126
g41
tp6735
(dp6736
g13
(I200
I200
tp6737
sg15
(I600
I600
tp6738
ss(g472
g171
tp6739
(dp6740
g13
(I200
I200
tp6741
sg15
(I600
I600
tp6742
ss(g29
g117
tp6743
(dp6744
g13
(I105
I198
tp6745
sg15
(I783
I318
tp6746
ss(g171
g400
tp6747
(dp6748
g13
(I200
I200
tp6749
sg15
(I600
I600
tp6750
ss(g295
g18
tp6751
(dp6752
g13
(I6
I2
tp6753
sg15
(I200
I220
tp6754
ss(g73
g29
tp6755
(dp6756
g13
(I200
I1
tp6757
sg15
(I3
I998
tp6758
ss(g9
g29
tp6759
(dp6760
g13
(I5
I199
tp6761
sg15
(I987
I17
tp6762
ss(g526
g62
tp6763
(dp6764
g13
(I198
I181
tp6765
sg15
(I546
I631
tp6766
ss(g79
g47
tp6767
(dp6768
g13
(I200
I200
tp6769
sg15
(I600
I600
tp6770
ss(g1054
g67
tp6771
(dp6772
g13
(I200
I1
tp6773
sg15
(I3
I998
tp6774
ss(g126
g517
tp6775
(dp6776
g13
(I200
I200
tp6777
sg15
(I600
I600
tp6778
ss(g9
g9
tp6779
(dp6780
g13
(I0
I0
tp6781
sg15
(I200
I200
tp6782
ss(g165
g137
tp6783
(dp6784
g13
(I0
I1
tp6785
sg15
(I204
I199
tp6786
ss(g721
g467
tp6787
(dp6788
g13
(I200
I0
tp6789
sg15
(I0
I1000
tp6790
ss(g526
g96
tp6791
(dp6792
g13
(I198
I1
tp6793
sg15
(I6
I991
tp6794
ss(g126
g186
tp6795
(dp6796
g13
(I200
I200
tp6797
sg15
(I600
I600
tp6798
ss(g61
g526
tp6799
(dp6800
g13
(I199
I198
tp6801
sg15
(I595
I600
tp6802
ss(g126
g656
tp6803
(dp6804
g13
(I200
I200
tp6805
sg15
(I600
I600
tp6806
ss(g23
g221
tp6807
(dp6808
g13
(I149
I135
tp6809
sg15
(I498
I568
tp6810
ss(g116
g656
tp6811
(dp6812
g13
(I168
I31
tp6813
sg15
(I141
I826
tp6814
ss(g517
g362
tp6815
(dp6816
g13
(I1
I2
tp6817
sg15
(I207
I202
tp6818
ss(g517
g117
tp6819
(dp6820
g13
(I200
I200
tp6821
sg15
(I600
I600
tp6822
ss(g62
g721
tp6823
(dp6824
g13
(I200
I200
tp6825
sg15
(I600
I600
tp6826
ss(g317
g221
tp6827
(dp6828
g13
(I1
I200
tp6829
sg15
(I998
I3
tp6830
ss(g362
g177
tp6831
(dp6832
g13
(I200
I0
tp6833
sg15
(I0
I1000
tp6834
ss(g84
g137
tp6835
(dp6836
g13
(I167
I167
tp6837
sg15
(I567
I567
tp6838
ss(g243
g166
tp6839
(dp6840
g13
(I200
I200
tp6841
sg15
(I600
I600
tp6842
ss(g526
g285
tp6843
(dp6844
g13
(I200
I200
tp6845
sg15
(I600
I600
tp6846
ss(g317
g425
tp6847
(dp6848
g13
(I100
I101
tp6849
sg15
(I470
I465
tp6850
ss(g91
g271
tp6851
(dp6852
g13
(I134
I19
tp6853
sg15
(I140
I715
tp6854
ss(g116
g62
tp6855
(dp6856
g13
(I180
I19
tp6857
sg15
(I87
I892
tp6858
ss(g517
g262
tp6859
(dp6860
g13
(I200
I200
tp6861
sg15
(I600
I600
tp6862
ss(g41
g177
tp6863
(dp6864
g13
(I200
I0
tp6865
sg15
(I0
I1000
tp6866
ss(g61
g79
tp6867
(dp6868
g13
(I200
I200
tp6869
sg15
(I600
I600
tp6870
ss(g47
g230
tp6871
(dp6872
g13
(I200
I200
tp6873
sg15
(I600
I600
tp6874
ss(g35
g165
tp6875
(dp6876
g13
(I182
I0
tp6877
sg15
(I18
I928
tp6878
ss(g17
g147
tp6879
(dp6880
g13
(I2
I3
tp6881
sg15
(I210
I205
tp6882
ss(g35
g467
tp6883
(dp6884
g13
(I200
I0
tp6885
sg15
(I0
I1000
tp6886
ss(g73
g276
tp6887
(dp6888
g13
(I200
I1
tp6889
sg15
(I3
I998
tp6890
ss(g35
g10
tp6891
(dp6892
g13
(I182
I182
tp6893
sg15
(I582
I582
tp6894
ss(g117
g177
tp6895
(dp6896
g13
(I200
I0
tp6897
sg15
(I0
I1000
tp6898
ss(g243
g132
tp6899
(dp6900
g13
(I200
I200
tp6901
sg15
(I600
I600
tp6902
ss(g249
g102
tp6903
(dp6904
g13
(I197
I197
tp6905
sg15
(I596
I596
tp6906
ss(g230
g230
tp6907
(dp6908
g13
(I200
I200
tp6909
sg15
(I600
I600
tp6910
ss(g47
g262
tp6911
(dp6912
g13
(I200
I200
tp6913
sg15
(I600
I600
tp6914
ss(g61
g555
tp6915
(dp6916
g13
(I100
I0
tp6917
sg15
(I100
I600
tp6918
ss(g526
g517
tp6919
(dp6920
g13
(I198
I179
tp6921
sg15
(I540
I635
tp6922
ss(g9
g285
tp6923
(dp6924
g13
(I200
I200
tp6925
sg15
(I600
I600
tp6926
ss(g295
g216
tp6927
(dp6928
g13
(I198
I198
tp6929
sg15
(I596
I596
tp6930
ss(g90
g111
tp6931
(dp6932
g13
(I16
I150
tp6933
sg15
(I772
I102
tp6934
ss(g116
g52
tp6935
(dp6936
g13
(I174
I25
tp6937
sg15
(I114
I859
tp6938
ss(g294
g425
tp6939
(dp6940
g13
(I200
I200
tp6941
sg15
(I600
I600
tp6942
ss(g230
g216
tp6943
(dp6944
g13
(I200
I200
tp6945
sg15
(I600
I600
tp6946
ss(g1054
g165
tp6947
(dp6948
g13
(I200
I0
tp6949
sg15
(I0
I1000
tp6950
ss(g61
g101
tp6951
(dp6952
g13
(I199
I198
tp6953
sg15
(I595
I600
tp6954
ss(g425
g52
tp6955
(dp6956
g13
(I200
I200
tp6957
sg15
(I600
I600
tp6958
ss(g425
g10
tp6959
(dp6960
g13
(I196
I195
tp6961
sg15
(I592
I597
tp6962
ss(g467
g30
tp6963
(dp6964
g13
(I200
I200
tp6965
sg15
(I600
I600
tp6966
ss(g111
g47
tp6967
(dp6968
g13
(I150
I200
tp6969
sg15
(I700
I450
tp6970
ss(g131
g117
tp6971
(dp6972
g13
(I200
I200
tp6973
sg15
(I600
I600
tp6974
ss(g84
g148
tp6975
(dp6976
g13
(I167
I22
tp6977
sg15
(I116
I841
tp6978
ss(g371
g276
tp6979
(dp6980
g13
(I10
I190
tp6981
sg15
(I949
I49
tp6982
ss(g46
g1054
tp6983
(dp6984
g13
(I100
I200
tp6985
sg15
(I800
I300
tp6986
ss(g165
g177
tp6987
(dp6988
g13
(I200
I0
tp6989
sg15
(I0
I1000
tp6990
ss(g111
g101
tp6991
(dp6992
g13
(I150
I2
tp6993
sg15
(I57
I797
tp6994
ss(g195
g230
tp6995
(dp6996
g13
(I200
I200
tp6997
sg15
(I600
I600
tp6998
ss(g73
g166
tp6999
(dp7000
g13
(I183
I21
tp7001
sg15
(I96
I906
tp7002
ss(g35
g111
tp7003
(dp7004
g13
(I182
I150
tp7005
sg15
(I482
I642
tp7006
ss(g371
g216
tp7007
(dp7008
g13
(I200
I200
tp7009
sg15
(I600
I600
tp7010
ss(g317
g90
tp7011
(dp7012
g13
(I195
I5
tp7013
sg15
(I24
I974
tp7014
ss(g46
g472
tp7015
(dp7016
g13
(I100
I200
tp7017
sg15
(I800
I300
tp7018
ss(g116
g84
tp7019
(dp7020
g13
(I33
I167
tp7021
sg15
(I802
I132
tp7022
ss(g47
g148
tp7023
(dp7024
g13
(I200
I200
tp7025
sg15
(I600
I600
tp7026
ss(g126
g472
tp7027
(dp7028
g13
(I200
I200
tp7029
sg15
(I600
I600
tp7030
ss(g166
g29
tp7031
(dp7032
g13
(I9
I192
tp7033
sg15
(I957
I42
tp7034
ss(g35
g271
tp7035
(dp7036
g13
(I182
I57
tp7037
sg15
(I202
I827
tp7038
ss(g62
g517
tp7039
(dp7040
g13
(I200
I200
tp7041
sg15
(I600
I600
tp7042
ss(g84
g52
tp7043
(dp7044
g13
(I167
I41
tp7045
sg15
(I167
I797
tp7046
ss(g656
g68
tp7047
(dp7048
g13
(I200
I200
tp7049
sg15
(I600
I600
tp7050
ss(g165
g29
tp7051
(dp7052
g13
(I0
I200
tp7053
sg15
(I1000
I0
tp7054
ss(g295
g362
tp7055
(dp7056
g13
(I8
I6
tp7057
sg15
(I212
I222
tp7058
ss(g230
g400
tp7059
(dp7060
g13
(I200
I200
tp7061
sg15
(I600
I600
tp7062
ss(g101
g147
tp7063
(dp7064
g13
(I2
I199
tp7065
sg15
(I992
I7
tp7066
ss(g295
g400
tp7067
(dp7068
g13
(I198
I199
tp7069
sg15
(I600
I595
tp7070
ss(g294
g243
tp7071
(dp7072
g13
(I200
I200
tp7073
sg15
(I600
I600
tp7074
ss(g24
g85
tp7075
(dp7076
g13
(I199
I1
tp7077
sg15
(I5
I995
tp7078
ss(g96
g148
tp7079
(dp7080
g13
(I200
I200
tp7081
sg15
(I600
I600
tp7082
ss(g555
g85
tp7083
(dp7084
g13
(I0
I100
tp7085
sg15
(I600
I100
tp7086
ss(g9
g148
tp7087
(dp7088
g13
(I0
I1
tp7089
sg15
(I204
I199
tp7090
ss(g555
g102
tp7091
(dp7092
g13
(I19
I178
tp7093
sg15
(I892
I97
tp7094
ss(g61
g425
tp7095
(dp7096
g13
(I200
I200
tp7097
sg15
(I600
I600
tp7098
ss(g249
g517
tp7099
(dp7100
g13
(I1
I1
tp7101
sg15
(I203
I203
tp7102
ss(g450
g52
tp7103
(dp7104
g13
(I200
I200
tp7105
sg15
(I600
I600
tp7106
ss(g517
g230
tp7107
(dp7108
g13
(I200
I200
tp7109
sg15
(I600
I600
tp7110
ss(g23
g47
tp7111
(dp7112
g13
(I200
I200
tp7113
sg15
(I600
I600
tp7114
ss(g165
g67
tp7115
(dp7116
g13
(I0
I200
tp7117
sg15
(I1000
I0
tp7118
ss(g61
g17
tp7119
(dp7120
g13
(I200
I200
tp7121
sg15
(I600
I600
tp7122
ss(g73
g555
tp7123
(dp7124
g13
(I200
I0
tp7125
sg15
(I0
I1000
tp7126
ss(g165
g74
tp7127
(dp7128
g13
(I200
I0
tp7129
sg15
(I0
I1000
tp7130
ss(g46
g67
tp7131
(dp7132
g13
(I100
I146
tp7133
sg15
(I584
I354
tp7134
ss(g148
g148
tp7135
(dp7136
g13
(I200
I200
tp7137
sg15
(I600
I600
tp7138
ss(g132
g47
tp7139
(dp7140
g13
(I200
I200
tp7141
sg15
(I600
I600
tp7142
ss(g47
g102
tp7143
(dp7144
g13
(I87
I85
tp7145
sg15
(I368
I378
tp7146
ss(g111
g17
tp7147
(dp7148
g13
(I150
I4
tp7149
sg15
(I63
I793
tp7150
ss(g526
g52
tp7151
(dp7152
g13
(I198
I186
tp7153
sg15
(I561
I621
tp7154
ss(g171
g177
tp7155
(dp7156
g13
(I200
I0
tp7157
sg15
(I0
I1000
tp7158
ss(g10
g221
tp7159
(dp7160
g13
(I2
I200
tp7161
sg15
(I996
I6
tp7162
ss(g271
g262
tp7163
(dp7164
g13
(I200
I200
tp7165
sg15
(I600
I600
tp7166
ss(g308
g24
tp7167
(dp7168
g13
(I197
I199
tp7169
sg15
(I603
I593
tp7170
ss(g132
g67
tp7171
(dp7172
g13
(I3
I197
tp7173
sg15
(I984
I14
tp7174
ss(g295
g132
tp7175
(dp7176
g13
(I198
I200
tp7177
sg15
(I604
I594
tp7178
ss(g195
g36
tp7179
(dp7180
g13
(I200
I199
tp7181
sg15
(I597
I602
tp7182
ss(g1054
g262
tp7183
(dp7184
g13
(I200
I200
tp7185
sg15
(I600
I600
tp7186
ss(g472
g249
tp7187
(dp7188
g13
(I180
I179
tp7189
sg15
(I577
I582
tp7190
ss(g425
g517
tp7191
(dp7192
g13
(I200
I200
tp7193
sg15
(I600
I600
tp7194
ss(g1054
g74
tp7195
(dp7196
g13
(I200
I0
tp7197
sg15
(I0
I1000
tp7198
ss(g186
g29
tp7199
(dp7200
g13
(I176
I127
tp7201
sg15
(I428
I673
tp7202
ss(g371
g371
tp7203
(dp7204
g13
(I200
I200
tp7205
sg15
(I600
I600
tp7206
ss(g90
g248
tp7207
(dp7208
g13
(I198
I200
tp7209
sg15
(I604
I594
tp7210
ss(g526
g147
tp7211
(dp7212
g13
(I199
I199
tp7213
sg15
(I598
I598
tp7214
ss(g84
g30
tp7215
(dp7216
g13
(I200
I0
tp7217
sg15
(I0
I1000
tp7218
ss(g450
g450
tp7219
(dp7220
g13
(I200
I200
tp7221
sg15
(I600
I600
tp7222
ss(g425
g186
tp7223
(dp7224
g13
(I200
I200
tp7225
sg15
(I600
I600
tp7226
ss(g126
g101
tp7227
(dp7228
g13
(I198
I198
tp7229
sg15
(I597
I597
tp7230
ss(g90
g276
tp7231
(dp7232
g13
(I5
I195
tp7233
sg15
(I974
I24
tp7234
ss(g271
g248
tp7235
(dp7236
g13
(I200
I200
tp7237
sg15
(I600
I600
tp7238
ss(g148
g52
tp7239
(dp7240
g13
(I200
I200
tp7241
sg15
(I600
I600
tp7242
ss(g9
g400
tp7243
(dp7244
g13
(I0
I1
tp7245
sg15
(I204
I199
tp7246
ss(g46
g36
tp7247
(dp7248
g13
(I100
I100
tp7249
sg15
(I500
I500
tp7250
ss(g308
g137
tp7251
(dp7252
g13
(I200
I200
tp7253
sg15
(I600
I600
tp7254
ss(g61
g18
tp7255
(dp7256
g13
(I67
I67
tp7257
sg15
(I401
I401
tp7258
ss(g52
g362
tp7259
(dp7260
g13
(I1
I2
tp7261
sg15
(I207
I202
tp7262
ss(g23
g176
tp7263
(dp7264
g13
(I200
I0
tp7265
sg15
(I0
I1000
tp7266
ss(g271
g450
tp7267
(dp7268
g13
(I200
I200
tp7269
sg15
(I600
I600
tp7270
ss(g295
g101
tp7271
(dp7272
g13
(I6
I2
tp7273
sg15
(I200
I220
tp7274
ss(g295
g52
tp7275
(dp7276
g13
(I198
I199
tp7277
sg15
(I600
I595
tp7278
ss(g116
g371
tp7279
(dp7280
g13
(I189
I10
tp7281
sg15
(I51
I946
tp7282
ss(g656
g24
tp7283
(dp7284
g13
(I190
I199
tp7285
sg15
(I617
I572
tp7286
ss(g656
g10
tp7287
(dp7288
g13
(I13
I106
tp7289
sg15
(I609
I144
tp7290
ss(g362
g555
tp7291
(dp7292
g13
(I67
I66
tp7293
sg15
(I364
I369
tp7294
ss(g79
g517
tp7295
(dp7296
g13
(I200
I200
tp7297
sg15
(I600
I600
tp7298
ss(g52
g176
tp7299
(dp7300
g13
(I200
I0
tp7301
sg15
(I0
I1000
tp7302
ss(g1054
g148
tp7303
(dp7304
g13
(I200
I200
tp7305
sg15
(I600
I600
tp7306
ss(g526
g132
tp7307
(dp7308
g13
(I197
I2
tp7309
sg15
(I11
I986
tp7310
ss(g126
g147
tp7311
(dp7312
g13
(I199
I199
tp7313
sg15
(I599
I599
tp7314
ss(g526
g41
tp7315
(dp7316
g13
(I198
I179
tp7317
sg15
(I540
I635
tp7318
ss(g526
g230
tp7319
(dp7320
g13
(I198
I179
tp7321
sg15
(I540
I635
tp7322
ss(g148
g216
tp7323
(dp7324
g13
(I200
I200
tp7325
sg15
(I600
I600
tp7326
ss(g84
g195
tp7327
(dp7328
g13
(I167
I200
tp7329
sg15
(I666
I501
tp7330
ss(g73
g425
tp7331
(dp7332
g13
(I194
I197
tp7333
sg15
(I602
I587
tp7334
ss(g46
g96
tp7335
(dp7336
g13
(I100
I2
tp7337
sg15
(I107
I597
tp7338
ss(g131
g67
tp7339
(dp7340
g13
(I200
I1
tp7341
sg15
(I3
I998
tp7342
ss(g90
g24
tp7343
(dp7344
g13
(I198
I199
tp7345
sg15
(I601
I596
tp7346
ss(g248
g171
tp7347
(dp7348
g13
(I200
I200
tp7349
sg15
(I600
I600
tp7350
ss(g79
g221
tp7351
(dp7352
g13
(I200
I3
tp7353
sg15
(I9
I994
tp7354
ss(g91
g117
tp7355
(dp7356
g13
(I134
I200
tp7357
sg15
(I732
I402
tp7358
ss(g1054
g52
tp7359
(dp7360
g13
(I200
I200
tp7361
sg15
(I600
I600
tp7362
ss(g526
g101
tp7363
(dp7364
g13
(I199
I2
tp7365
sg15
(I7
I992
tp7366
ss(g126
g30
tp7367
(dp7368
g13
(I200
I0
tp7369
sg15
(I0
I1000
tp7370
ss(g450
g30
tp7371
(dp7372
g13
(I200
I0
tp7373
sg15
(I0
I1000
tp7374
ss(g400
g555
tp7375
(dp7376
g13
(I35
I128
tp7377
sg15
(I660
I195
tp7378
ss(g96
g249
tp7379
(dp7380
g13
(I1
I1
tp7381
sg15
(I203
I203
tp7382
ss(g73
g23
tp7383
(dp7384
g13
(I194
I194
tp7385
sg15
(I593
I593
tp7386
ss(g61
g517
tp7387
(dp7388
g13
(I200
I200
tp7389
sg15
(I600
I600
tp7390
ss(g9
g317
tp7391
(dp7392
g13
(I2
I198
tp7393
sg15
(I989
I9
tp7394
ss(g46
g294
tp7395
(dp7396
g13
(I100
I6
tp7397
sg15
(I121
I591
tp7398
ss(g176
g74
tp7399
(dp7400
g13
(I0
I200
tp7401
sg15
(I1000
I0
tp7402
ss(g23
g308
tp7403
(dp7404
g13
(I200
I200
tp7405
sg15
(I600
I600
tp7406
ss(g9
g166
tp7407
(dp7408
g13
(I14
I137
tp7409
sg15
(I721
I106
tp7410
ss(g243
g126
tp7411
(dp7412
g13
(I200
I200
tp7413
sg15
(I600
I600
tp7414
ss(g35
g61
tp7415
(dp7416
g13
(I182
I101
tp7417
sg15
(I330
I735
tp7418
ss(g126
g276
tp7419
(dp7420
g13
(I146
I145
tp7421
sg15
(I534
I539
tp7422
ss(g46
g248
tp7423
(dp7424
g13
(I100
I103
tp7425
sg15
(I509
I494
tp7426
ss(g400
g102
tp7427
(dp7428
g13
(I19
I18
tp7429
sg15
(I235
I240
tp7430
ss(g101
g249
tp7431
(dp7432
g13
(I198
I198
tp7433
sg15
(I597
I597
tp7434
ss(g195
g467
tp7435
(dp7436
g13
(I200
I0
tp7437
sg15
(I0
I1000
tp7438
ss(g116
g271
tp7439
(dp7440
g13
(I168
I31
tp7441
sg15
(I141
I826
tp7442
ss(g131
g52
tp7443
(dp7444
g13
(I200
I200
tp7445
sg15
(I600
I600
tp7446
ss(g36
g102
tp7447
(dp7448
g13
(I20
I20
tp7449
sg15
(I241
I241
tp7450
ss(g425
g117
tp7451
(dp7452
g13
(I200
I200
tp7453
sg15
(I600
I600
tp7454
ss(g517
g30
tp7455
(dp7456
g13
(I200
I0
tp7457
sg15
(I0
I1000
tp7458
ss(g186
g102
tp7459
(dp7460
g13
(I104
I150
tp7461
sg15
(I605
I375
tp7462
ss(g52
g74
tp7463
(dp7464
g13
(I200
I0
tp7465
sg15
(I0
I1000
tp7466
ss(g186
g47
tp7467
(dp7468
g13
(I200
I200
tp7469
sg15
(I600
I600
tp7470
ss(g186
g147
tp7471
(dp7472
g13
(I200
I199
tp7473
sg15
(I597
I602
tp7474
ss(g248
g400
tp7475
(dp7476
g13
(I200
I200
tp7477
sg15
(I600
I600
tp7478
ss(g271
g24
tp7479
(dp7480
g13
(I189
I199
tp7481
sg15
(I619
I569
tp7482
ss(g249
g142
tp7483
(dp7484
g13
(I1
I1
tp7485
sg15
(I203
I203
tp7486
ss(g84
g262
tp7487
(dp7488
g13
(I167
I11
tp7489
sg15
(I68
I848
tp7490
ss(g166
g30
tp7491
(dp7492
g13
(I200
I0
tp7493
sg15
(I0
I1000
tp7494
ss(g425
g166
tp7495
(dp7496
g13
(I200
I200
tp7497
sg15
(I600
I600
tp7498
ss(g35
g17
tp7499
(dp7500
g13
(I182
I56
tp7501
sg15
(I194
I824
tp7502
ss(g1054
g147
tp7503
(dp7504
g13
(I200
I199
tp7505
sg15
(I597
I602
tp7506
ss(g147
g362
tp7507
(dp7508
g13
(I199
I199
tp7509
sg15
(I598
I598
tp7510
ss(g271
g117
tp7511
(dp7512
g13
(I200
I200
tp7513
sg15
(I600
I600
tp7514
ss(g101
g148
tp7515
(dp7516
g13
(I2
I1
tp7517
sg15
(I202
I207
tp7518
ss(g46
g186
tp7519
(dp7520
g13
(I100
I200
tp7521
sg15
(I800
I300
tp7522
ss(g10
g262
tp7523
(dp7524
g13
(I97
I13
tp7525
sg15
(I151
I571
tp7526
ss(g248
g450
tp7527
(dp7528
g13
(I200
I200
tp7529
sg15
(I600
I600
tp7530
ss(g171
g29
tp7531
(dp7532
g13
(I197
I106
tp7533
sg15
(I323
I778
tp7534
ss(g62
g248
tp7535
(dp7536
g13
(I200
I200
tp7537
sg15
(I600
I600
tp7538
ss(g248
g148
tp7539
(dp7540
g13
(I200
I200
tp7541
sg15
(I600
I600
tp7542
ss(g41
g249
tp7543
(dp7544
g13
(I10
I10
tp7545
sg15
(I230
I230
tp7546
ss(g271
g176
tp7547
(dp7548
g13
(I200
I0
tp7549
sg15
(I0
I1000
tp7550
ss(g371
g656
tp7551
(dp7552
g13
(I200
I200
tp7553
sg15
(I600
I600
tp7554
ss(g295
g425
tp7555
(dp7556
g13
(I198
I200
tp7557
sg15
(I604
I594
tp7558
ss(g131
g23
tp7559
(dp7560
g13
(I200
I200
tp7561
sg15
(I600
I600
tp7562
ss(g41
g36
tp7563
(dp7564
g13
(I10
I10
tp7565
sg15
(I230
I230
tp7566
ss(g243
g216
tp7567
(dp7568
g13
(I200
I200
tp7569
sg15
(I600
I600
tp7570
ss(g294
g17
tp7571
(dp7572
g13
(I200
I200
tp7573
sg15
(I600
I600
tp7574
ss(g425
g85
tp7575
(dp7576
g13
(I200
I200
tp7577
sg15
(I600
I600
tp7578
ss(g116
g186
tp7579
(dp7580
g13
(I96
I104
tp7581
sg15
(I516
I476
tp7582
ss(g116
g142
tp7583
(dp7584
g13
(I120
I80
tp7585
sg15
(I360
I560
tp7586
ss(g91
g517
tp7587
(dp7588
g13
(I134
I46
tp7589
sg15
(I226
I666
tp7590
ss(g555
g177
tp7591
(dp7592
g13
(I200
I0
tp7593
sg15
(I0
I1000
tp7594
ss(g371
g721
tp7595
(dp7596
g13
(I200
I200
tp7597
sg15
(I600
I600
tp7598
ss(g371
g126
tp7599
(dp7600
g13
(I200
I200
tp7601
sg15
(I600
I600
tp7602
ss(g371
g85
tp7603
(dp7604
g13
(I200
I200
tp7605
sg15
(I600
I600
tp7606
ss(g62
g126
tp7607
(dp7608
g13
(I200
I200
tp7609
sg15
(I600
I600
tp7610
ss(g23
g142
tp7611
(dp7612
g13
(I200
I200
tp7613
sg15
(I600
I600
tp7614
ss(g248
g230
tp7615
(dp7616
g13
(I200
I200
tp7617
sg15
(I600
I600
tp7618
ss(g73
g177
tp7619
(dp7620
g13
(I200
I0
tp7621
sg15
(I0
I1000
tp7622
ss(g132
g362
tp7623
(dp7624
g13
(I4
I4
tp7625
sg15
(I210
I210
tp7626
ss(g17
g36
tp7627
(dp7628
g13
(I1
I1
tp7629
sg15
(I203
I203
tp7630
ss(g79
g177
tp7631
(dp7632
g13
(I200
I0
tp7633
sg15
(I0
I1000
tp7634
ss(g23
g23
tp7635
(dp7636
g13
(I200
I200
tp7637
sg15
(I600
I600
tp7638
ss(g517
g276
tp7639
(dp7640
g13
(I120
I171
tp7641
sg15
(I668
I413
tp7642
ss(g67
g177
tp7643
(dp7644
g13
(I200
I0
tp7645
sg15
(I0
I1000
tp7646
ss(g308
g18
tp7647
(dp7648
g13
(I1
I2
tp7649
sg15
(I207
I202
tp7650
ss(g243
g472
tp7651
(dp7652
g13
(I200
I200
tp7653
sg15
(I600
I600
tp7654
ss(g317
g467
tp7655
(dp7656
g13
(I200
I0
tp7657
sg15
(I0
I1000
tp7658
ss(g46
g171
tp7659
(dp7660
g13
(I100
I200
tp7661
sg15
(I800
I300
tp7662
ss(g472
g96
tp7663
(dp7664
g13
(I200
I200
tp7665
sg15
(I600
I600
tp7666
ss(g61
g148
tp7667
(dp7668
g13
(I200
I200
tp7669
sg15
(I600
I600
tp7670
ss(g132
g23
tp7671
(dp7672
g13
(I200
I200
tp7673
sg15
(I600
I600
tp7674
ss(g248
g195
tp7675
(dp7676
g13
(I200
I200
tp7677
sg15
(I600
I600
tp7678
ss(g317
g17
tp7679
(dp7680
g13
(I178
I22
tp7681
sg15
(I99
I879
tp7682
ss(g91
g467
tp7683
(dp7684
g13
(I200
I0
tp7685
sg15
(I0
I1000
tp7686
ss(g96
g96
tp7687
(dp7688
g13
(I200
I200
tp7689
sg15
(I600
I600
tp7690
ss(g24
g216
tp7691
(dp7692
g13
(I0
I0
tp7693
sg15
(I200
I200
tp7694
ss(g425
g147
tp7695
(dp7696
g13
(I199
I199
tp7697
sg15
(I599
I599
tp7698
ss(g132
g221
tp7699
(dp7700
g13
(I5
I197
tp7701
sg15
(I980
I20
tp7702
ss(g271
g47
tp7703
(dp7704
g13
(I200
I200
tp7705
sg15
(I600
I600
tp7706
ss(g400
g30
tp7707
(dp7708
g13
(I200
I0
tp7709
sg15
(I0
I1000
tp7710
ss(g111
g52
tp7711
(dp7712
g13
(I150
I24
tp7713
sg15
(I133
I763
tp7714
ss(g96
g555
tp7715
(dp7716
g13
(I1
I196
tp7717
sg15
(I983
I8
tp7718
ss(g230
g74
tp7719
(dp7720
g13
(I200
I0
tp7721
sg15
(I0
I1000
tp7722
ss(g24
g517
tp7723
(dp7724
g13
(I199
I179
tp7725
sg15
(I539
I639
tp7726
ss(g308
g276
tp7727
(dp7728
g13
(I123
I168
tp7729
sg15
(I650
I425
tp7730
ss(g271
g67
tp7731
(dp7732
g13
(I68
I176
tp7733
sg15
(I780
I240
tp7734
ss(g721
g137
tp7735
(dp7736
g13
(I200
I200
tp7737
sg15
(I600
I600
tp7738
ss(g73
g721
tp7739
(dp7740
g13
(I194
I197
tp7741
sg15
(I602
I587
tp7742
ss(g61
g52
tp7743
(dp7744
g13
(I200
I200
tp7745
sg15
(I600
I600
tp7746
ss(g84
g221
tp7747
(dp7748
g13
(I167
I197
tp7749
sg15
(I656
I506
tp7750
ss(g116
g79
tp7751
(dp7752
g13
(I2
I198
tp7753
sg15
(I989
I9
tp7754
ss(g47
g18
tp7755
(dp7756
g13
(I5
I2
tp7757
sg15
(I201
I216
tp7758
ss(g84
g111
tp7759
(dp7760
g13
(I167
I150
tp7761
sg15
(I500
I585
tp7762
ss(g317
g52
tp7763
(dp7764
g13
(I174
I26
tp7765
sg15
(I117
I857
tp7766
ss(g101
g171
tp7767
(dp7768
g13
(I197
I198
tp7769
sg15
(I600
I595
tp7770
ss(g24
g467
tp7771
(dp7772
g13
(I200
I0
tp7773
sg15
(I0
I1000
tp7774
ss(g721
g216
tp7775
(dp7776
g13
(I200
I200
tp7777
sg15
(I600
I600
tp7778
ss(g102
g102
tp7779
(dp7780
g13
(I60
I60
tp7781
sg15
(I320
I320
tp7782
ss(g166
g117
tp7783
(dp7784
g13
(I200
I200
tp7785
sg15
(I600
I600
tp7786
ss(g35
g517
tp7787
(dp7788
g13
(I182
I132
tp7789
sg15
(I429
I679
tp7790
ss(g171
g362
tp7791
(dp7792
g13
(I200
I100
tp7793
sg15
(I300
I800
tp7794
ss(g90
g362
tp7795
(dp7796
g13
(I8
I6
tp7797
sg15
(I212
I222
tp7798
ss(g36
g176
tp7799
(dp7800
g13
(I199
I0
tp7801
sg15
(I1
I996
tp7802
ss(g721
g18
tp7803
(dp7804
g13
(I199
I199
tp7805
sg15
(I599
I599
tp7806
ss(g147
g85
tp7807
(dp7808
g13
(I67
I67
tp7809
sg15
(I401
I401
tp7810
ss(g18
g249
tp7811
(dp7812
g13
(I2
I1
tp7813
sg15
(I201
I206
tp7814
ss(g721
g142
tp7815
(dp7816
g13
(I200
I200
tp7817
sg15
(I600
I600
tp7818
ss(g79
g400
tp7819
(dp7820
g13
(I200
I200
tp7821
sg15
(I600
I600
tp7822
ss(g131
g517
tp7823
(dp7824
g13
(I200
I200
tp7825
sg15
(I600
I600
tp7826
ss(g46
g195
tp7827
(dp7828
g13
(I100
I11
tp7829
sg15
(I138
I583
tp7830
ss(g176
g30
tp7831
(dp7832
g13
(I0
I200
tp7833
sg15
(I1000
I0
tp7834
ss(g131
g308
tp7835
(dp7836
g13
(I200
I200
tp7837
sg15
(I600
I600
tp7838
ss(g243
g68
tp7839
(dp7840
g13
(I200
I200
tp7841
sg15
(I600
I600
tp7842
ss(g62
g41
tp7843
(dp7844
g13
(I200
I200
tp7845
sg15
(I600
I600
tp7846
ss(g91
g526
tp7847
(dp7848
g13
(I134
I197
tp7849
sg15
(I722
I407
tp7850
ss(g91
g243
tp7851
(dp7852
g13
(I134
I10
tp7853
sg15
(I99
I719
tp7854
ss(g9
g18
tp7855
(dp7856
g13
(I0
I2
tp7857
sg15
(I208
I198
tp7858
ss(g131
g62
tp7859
(dp7860
g13
(I200
I200
tp7861
sg15
(I600
I600
tp7862
ss(g91
g41
tp7863
(dp7864
g13
(I134
I12
tp7865
sg15
(I112
I722
tp7866
ss(g243
g62
tp7867
(dp7868
g13
(I200
I200
tp7869
sg15
(I600
I600
tp7870
ss(g101
g74
tp7871
(dp7872
g13
(I200
I0
tp7873
sg15
(I0
I1000
tp7874
ss(g656
g166
tp7875
(dp7876
g13
(I200
I200
tp7877
sg15
(I600
I600
tp7878
ss(g249
g36
tp7879
(dp7880
g13
(I100
I99
tp7881
sg15
(I496
I501
tp7882
ss(g526
g248
tp7883
(dp7884
g13
(I198
I197
tp7885
sg15
(I594
I599
tp7886
ss(g62
g472
tp7887
(dp7888
g13
(I200
I200
tp7889
sg15
(I600
I600
tp7890
ss(g62
g17
tp7891
(dp7892
g13
(I200
I200
tp7893
sg15
(I600
I600
tp7894
ss(g131
g91
tp7895
(dp7896
g13
(I200
I134
tp7897
sg15
(I402
I732
tp7898
ss(g9
g472
tp7899
(dp7900
g13
(I0
I1
tp7901
sg15
(I204
I199
tp7902
ss(g41
g276
tp7903
(dp7904
g13
(I99
I193
tp7905
sg15
(I780
I310
tp7906
ss(g61
g73
tp7907
(dp7908
g13
(I199
I198
tp7909
sg15
(I595
I600
tp7910
ss(g721
g362
tp7911
(dp7912
g13
(I199
I199
tp7913
sg15
(I599
I599
tp7914
ss(g165
g362
tp7915
(dp7916
g13
(I0
I1
tp7917
sg15
(I204
I199
tp7918
ss(g30
g285
tp7919
(dp7920
g13
(I200
I200
tp7921
sg15
(I600
I600
tp7922
ss(g23
g41
tp7923
(dp7924
g13
(I200
I200
tp7925
sg15
(I600
I600
tp7926
ss(g243
g36
tp7927
(dp7928
g13
(I170
I169
tp7929
sg15
(I547
I552
tp7930
ss(g17
g17
tp7931
(dp7932
g13
(I200
I200
tp7933
sg15
(I600
I600
tp7934
ss(g96
g30
tp7935
(dp7936
g13
(I200
I0
tp7937
sg15
(I0
I1000
tp7938
ss(g46
g116
tp7939
(dp7940
g13
(I100
I99
tp7941
sg15
(I397
I402
tp7942
ss(g308
g68
tp7943
(dp7944
g13
(I200
I200
tp7945
sg15
(I600
I600
tp7946
ss(g73
g117
tp7947
(dp7948
g13
(I197
I198
tp7949
sg15
(I599
I594
tp7950
ss(g276
g177
tp7951
(dp7952
g13
(I200
I0
tp7953
sg15
(I0
I1000
tp7954
ss(g96
g176
tp7955
(dp7956
g13
(I200
I0
tp7957
sg15
(I0
I1000
tp7958
ss(g79
g230
tp7959
(dp7960
g13
(I200
I200
tp7961
sg15
(I600
I600
tp7962
ss(g186
g195
tp7963
(dp7964
g13
(I200
I200
tp7965
sg15
(I600
I600
tp7966
ss(g41
g30
tp7967
(dp7968
g13
(I200
I0
tp7969
sg15
(I0
I1000
tp7970
ss(g425
g450
tp7971
(dp7972
g13
(I200
I200
tp7973
sg15
(I600
I600
tp7974
ss(g450
g74
tp7975
(dp7976
g13
(I200
I0
tp7977
sg15
(I0
I1000
tp7978
ss(g61
g721
tp7979
(dp7980
g13
(I200
I200
tp7981
sg15
(I600
I600
tp7982
ss(g91
g165
tp7983
(dp7984
g13
(I134
I0
tp7985
sg15
(I66
I736
tp7986
ss(g295
g450
tp7987
(dp7988
g13
(I198
I199
tp7989
sg15
(I600
I595
tp7990
ss(g249
g52
tp7991
(dp7992
g13
(I1
I1
tp7993
sg15
(I203
I203
tp7994
ss(g472
g177
tp7995
(dp7996
g13
(I200
I0
tp7997
sg15
(I0
I1000
tp7998
ss(g29
g142
tp7999
(dp8000
g13
(I167
I135
tp8001
sg15
(I470
I630
tp8002
ss(g248
g137
tp8003
(dp8004
g13
(I200
I200
tp8005
sg15
(I600
I600
tp8006
ss(g1054
g656
tp8007
(dp8008
g13
(I200
I200
tp8009
sg15
(I600
I600
tp8010
ss(g73
g221
tp8011
(dp8012
g13
(I200
I3
tp8013
sg15
(I9
I994
tp8014
ss(g148
g36
tp8015
(dp8016
g13
(I1
I1
tp8017
sg15
(I203
I203
tp8018
ss(g73
g243
tp8019
(dp8020
g13
(I184
I32
tp8021
sg15
(I127
I887
tp8022
ss(g1054
g186
tp8023
(dp8024
g13
(I200
I200
tp8025
sg15
(I600
I600
tp8026
ss(g90
g249
tp8027
(dp8028
g13
(I5
I1
tp8029
sg15
(I198
I218
tp8030
ss(g62
g85
tp8031
(dp8032
g13
(I200
I200
tp8033
sg15
(I600
I600
tp8034
ss(g400
g362
tp8035
(dp8036
g13
(I199
I199
tp8037
sg15
(I599
I599
tp8038
ss(g24
g148
tp8039
(dp8040
g13
(I199
I190
tp8041
sg15
(I572
I617
tp8042
ss(g656
g656
tp8043
(dp8044
g13
(I200
I200
tp8045
sg15
(I600
I600
tp8046
ss(g52
g276
tp8047
(dp8048
g13
(I98
I189
tp8049
sg15
(I768
I313
tp8050
ss(g148
g230
tp8051
(dp8052
g13
(I200
I200
tp8053
sg15
(I600
I600
tp8054
ss(g91
g62
tp8055
(dp8056
g13
(I134
I3
tp8057
sg15
(I76
I731
tp8058
ss(g18
g176
tp8059
(dp8060
g13
(I199
I0
tp8061
sg15
(I1
I996
tp8062
ss(g85
g177
tp8063
(dp8064
g13
(I200
I0
tp8065
sg15
(I0
I1000
tp8066
ss(g111
g262
tp8067
(dp8068
g13
(I150
I8
tp8069
sg15
(I76
I786
tp8070
ss(g248
g555
tp8071
(dp8072
g13
(I80
I80
tp8073
sg15
(I420
I420
tp8074
ss(g101
g230
tp8075
(dp8076
g13
(I2
I1
tp8077
sg15
(I202
I207
tp8078
ss(g29
g285
tp8079
(dp8080
g13
(I200
I200
tp8081
sg15
(I600
I600
tp8082
ss(g171
g308
tp8083
(dp8084
g13
(I200
I200
tp8085
sg15
(I600
I600
tp8086
ss(g132
g166
tp8087
(dp8088
g13
(I200
I200
tp8089
sg15
(I600
I600
tp8090
ss(g294
g29
tp8091
(dp8092
g13
(I200
I1
tp8093
sg15
(I3
I998
tp8094
ss(g84
g276
tp8095
(dp8096
g13
(I167
I125
tp8097
sg15
(I423
I633
tp8098
ss(g526
g221
tp8099
(dp8100
g13
(I0
I200
tp8101
sg15
(I1000
I0
tp8102
ss(g90
g30
tp8103
(dp8104
g13
(I200
I0
tp8105
sg15
(I0
I1000
tp8106
ss(g147
g276
tp8107
(dp8108
g13
(I146
I146
tp8109
sg15
(I539
I539
tp8110
ss(g317
g177
tp8111
(dp8112
g13
(I200
I0
tp8113
sg15
(I0
I1000
tp8114
ss(g96
g186
tp8115
(dp8116
g13
(I200
I200
tp8117
sg15
(I600
I600
tp8118
ss(g186
g148
tp8119
(dp8120
g13
(I200
I200
tp8121
sg15
(I600
I600
tp8122
ss(g101
g195
tp8123
(dp8124
g13
(I2
I200
tp8125
sg15
(I996
I6
tp8126
ss(g249
g230
tp8127
(dp8128
g13
(I1
I1
tp8129
sg15
(I203
I203
tp8130
ss(g248
g102
tp8131
(dp8132
g13
(I151
I151
tp8133
sg15
(I505
I505
tp8134
ss(g29
g467
tp8135
(dp8136
g13
(I200
I0
tp8137
sg15
(I0
I1000
tp8138
ss(g17
g142
tp8139
(dp8140
g13
(I200
I200
tp8141
sg15
(I600
I600
tp8142
ss(g400
g216
tp8143
(dp8144
g13
(I200
I200
tp8145
sg15
(I600
I600
tp8146
ss(g17
g47
tp8147
(dp8148
g13
(I200
I200
tp8149
sg15
(I600
I600
tp8150
ss(g142
g30
tp8151
(dp8152
g13
(I200
I0
tp8153
sg15
(I0
I1000
tp8154
ss(g79
g102
tp8155
(dp8156
g13
(I200
I190
tp8157
sg15
(I570
I620
tp8158
ss(g308
g52
tp8159
(dp8160
g13
(I200
I200
tp8161
sg15
(I600
I600
tp8162
ss(g147
g30
tp8163
(dp8164
g13
(I200
I0
tp8165
sg15
(I0
I1000
tp8166
ss(g317
g29
tp8167
(dp8168
g13
(I2
I199
tp8169
sg15
(I992
I7
tp8170
ss(g148
g137
tp8171
(dp8172
g13
(I200
I200
tp8173
sg15
(I600
I600
tp8174
ss(g84
g243
tp8175
(dp8176
g13
(I167
I14
tp8177
sg15
(I77
I842
tp8178
ss(g400
g400
tp8179
(dp8180
g13
(I200
I200
tp8181
sg15
(I600
I600
tp8182
ss(g96
g10
tp8183
(dp8184
g13
(I3
I100
tp8185
sg15
(I595
I110
tp8186
ss(g131
g1054
tp8187
(dp8188
g13
(I200
I200
tp8189
sg15
(I600
I600
tp8190
ss(g52
g102
tp8191
(dp8192
g13
(I187
I198
tp8193
sg15
(I620
I565
tp8194
ss(g371
g517
tp8195
(dp8196
g13
(I200
I200
tp8197
sg15
(I600
I600
tp8198
ss(g186
g142
tp8199
(dp8200
g13
(I200
I200
tp8201
sg15
(I600
I600
tp8202
ss(g517
g148
tp8203
(dp8204
g13
(I200
I200
tp8205
sg15
(I600
I600
tp8206
ss(g79
g248
tp8207
(dp8208
g13
(I200
I200
tp8209
sg15
(I600
I600
tp8210
ss(g271
g517
tp8211
(dp8212
g13
(I200
I200
tp8213
sg15
(I600
I600
tp8214
ss(g29
g52
tp8215
(dp8216
g13
(I192
I111
tp8217
sg15
(I348
I753
tp8218
ss(g243
g85
tp8219
(dp8220
g13
(I200
I200
tp8221
sg15
(I600
I600
tp8222
ss(g171
g166
tp8223
(dp8224
g13
(I200
I200
tp8225
sg15
(I600
I600
tp8226
ss(g425
g216
tp8227
(dp8228
g13
(I200
I200
tp8229
sg15
(I600
I600
tp8230
ss(g425
g23
tp8231
(dp8232
g13
(I200
I200
tp8233
sg15
(I600
I600
tp8234
ss(g721
g147
tp8235
(dp8236
g13
(I199
I199
tp8237
sg15
(I599
I599
tp8238
ss(g186
g52
tp8239
(dp8240
g13
(I200
I200
tp8241
sg15
(I600
I600
tp8242
ss(g295
g142
tp8243
(dp8244
g13
(I198
I199
tp8245
sg15
(I600
I595
tp8246
ss(g68
g176
tp8247
(dp8248
g13
(I199
I0
tp8249
sg15
(I1
I996
tp8250
ss(g294
g111
tp8251
(dp8252
g13
(I10
I150
tp8253
sg15
(I782
I82
tp8254
ss(g126
g68
tp8255
(dp8256
g13
(I200
I200
tp8257
sg15
(I600
I600
tp8258
ss(g10
g68
tp8259
(dp8260
g13
(I198
I198
tp8261
sg15
(I596
I596
tp8262
ss(g9
g137
tp8263
(dp8264
g13
(I0
I1
tp8265
sg15
(I204
I199
tp8266
ss(g147
g176
tp8267
(dp8268
g13
(I199
I0
tp8269
sg15
(I1
I996
tp8270
ss(g62
g52
tp8271
(dp8272
g13
(I200
I200
tp8273
sg15
(I600
I600
tp8274
ss(g36
g36
tp8275
(dp8276
g13
(I0
I0
tp8277
sg15
(I200
I200
tp8278
ss(g24
g29
tp8279
(dp8280
g13
(I199
I104
tp8281
sg15
(I314
I789
tp8282
ss(g166
g24
tp8283
(dp8284
g13
(I22
I199
tp8285
sg15
(I953
I68
tp8286
ss(g166
g10
tp8287
(dp8288
g13
(I19
I99
tp8289
sg15
(I567
I167
tp8290
ss(g46
g18
tp8291
(dp8292
g13
(I100
I101
tp8293
sg15
(I503
I498
tp8294
ss(g29
g148
tp8295
(dp8296
g13
(I190
I109
tp8297
sg15
(I346
I751
tp8298
ss(g656
g102
tp8299
(dp8300
g13
(I82
I117
tp8301
sg15
(I509
I334
tp8302
ss(g79
g117
tp8303
(dp8304
g13
(I200
I200
tp8305
sg15
(I600
I600
tp8306
ss(g126
g171
tp8307
(dp8308
g13
(I200
I200
tp8309
sg15
(I600
I600
tp8310
ss(g67
g67
tp8311
(dp8312
g13
(I123
I123
tp8313
sg15
(I446
I446
tp8314
ss(g362
g221
tp8315
(dp8316
g13
(I100
I200
tp8317
sg15
(I800
I300
tp8318
ss(g9
g555
tp8319
(dp8320
g13
(I0
I0
tp8321
sg15
(I200
I200
tp8322
ss(g126
g126
tp8323
(dp8324
g13
(I200
I200
tp8325
sg15
(I600
I600
tp8326
ss(g52
g400
tp8327
(dp8328
g13
(I200
I200
tp8329
sg15
(I600
I600
tp8330
ss(g137
g216
tp8331
(dp8332
g13
(I200
I200
tp8333
sg15
(I600
I600
tp8334
ss(g450
g467
tp8335
(dp8336
g13
(I200
I0
tp8337
sg15
(I0
I1000
tp8338
ss(g248
g47
tp8339
(dp8340
g13
(I200
I200
tp8341
sg15
(I600
I600
tp8342
ss(g62
g29
tp8343
(dp8344
g13
(I119
I180
tp8345
sg15
(I701
I396
tp8346
ss(g29
g249
tp8347
(dp8348
g13
(I200
I1
tp8349
sg15
(I3
I998
tp8350
ss(g116
g85
tp8351
(dp8352
g13
(I66
I133
tp8353
sg15
(I600
I265
tp8354
ss(g171
g52
tp8355
(dp8356
g13
(I200
I200
tp8357
sg15
(I600
I600
tp8358
ss(g116
g285
tp8359
(dp8360
g13
(I200
I200
tp8361
sg15
(I600
I600
tp8362
ss(g171
g10
tp8363
(dp8364
g13
(I197
I196
tp8365
sg15
(I593
I598
tp8366
ss(g35
g721
tp8367
(dp8368
g13
(I182
I200
tp8369
sg15
(I636
I546
tp8370
ss(g249
g137
tp8371
(dp8372
g13
(I100
I100
tp8373
sg15
(I500
I500
tp8374
ss(g67
g147
tp8375
(dp8376
g13
(I123
I123
tp8377
sg15
(I493
I493
tp8378
ss(g526
g555
tp8379
(dp8380
g13
(I199
I0
tp8381
sg15
(I1
I996
tp8382
ss(g230
g117
tp8383
(dp8384
g13
(I200
I200
tp8385
sg15
(I600
I600
tp8386
ss(g721
g85
tp8387
(dp8388
g13
(I200
I200
tp8389
sg15
(I600
I600
tp8390
ss(g101
g52
tp8391
(dp8392
g13
(I2
I1
tp8393
sg15
(I202
I207
tp8394
ss(g721
g171
tp8395
(dp8396
g13
(I200
I200
tp8397
sg15
(I600
I600
tp8398
ss(g35
g656
tp8399
(dp8400
g13
(I182
I65
tp8401
sg15
(I226
I811
tp8402
ss(g9
g308
tp8403
(dp8404
g13
(I0
I1
tp8405
sg15
(I204
I199
tp8406
ss(g165
g295
tp8407
(dp8408
g13
(I0
I4
tp8409
sg15
(I216
I196
tp8410
ss(g36
g137
tp8411
(dp8412
g13
(I100
I100
tp8413
sg15
(I500
I500
tp8414
ss(g61
g67
tp8415
(dp8416
g13
(I4
I197
tp8417
sg15
(I982
I17
tp8418
ss(g61
g450
tp8419
(dp8420
g13
(I200
I200
tp8421
sg15
(I600
I600
tp8422
ss(g450
g221
tp8423
(dp8424
g13
(I92
I183
tp8425
sg15
(I757
I302
tp8426
ss(g9
g450
tp8427
(dp8428
g13
(I0
I13
tp8429
sg15
(I252
I187
tp8430
ss(g308
g195
tp8431
(dp8432
g13
(I200
I200
tp8433
sg15
(I600
I600
tp8434
ss(g371
g17
tp8435
(dp8436
g13
(I200
I200
tp8437
sg15
(I600
I600
tp8438
ss(g371
g52
tp8439
(dp8440
g13
(I200
I200
tp8441
sg15
(I600
I600
tp8442
ss(g221
g555
tp8443
(dp8444
g13
(I200
I0
tp8445
sg15
(I0
I1000
tp8446
ss(g142
g85
tp8447
(dp8448
g13
(I200
I200
tp8449
sg15
(I600
I600
tp8450
ss(g79
g10
tp8451
(dp8452
g13
(I200
I2
tp8453
sg15
(I6
I996
tp8454
ss(g41
g29
tp8455
(dp8456
g13
(I99
I194
tp8457
sg15
(I783
I308
tp8458
ss(g111
g67
tp8459
(dp8460
g13
(I150
I96
tp8461
sg15
(I350
I620
tp8462
ss(g186
g24
tp8463
(dp8464
g13
(I200
I199
tp8465
sg15
(I597
I602
tp8466
ss(g425
g68
tp8467
(dp8468
g13
(I200
I200
tp8469
sg15
(I600
I600
tp8470
ss(g116
g137
tp8471
(dp8472
g13
(I100
I100
tp8473
sg15
(I450
I450
tp8474
ss(g67
g362
tp8475
(dp8476
g13
(I123
I123
tp8477
sg15
(I494
I494
tp8478
ss(g295
g166
tp8479
(dp8480
g13
(I198
I199
tp8481
sg15
(I600
I595
tp8482
ss(g132
g30
tp8483
(dp8484
g13
(I200
I0
tp8485
sg15
(I0
I1000
tp8486
ss(g67
g85
tp8487
(dp8488
g13
(I197
I4
tp8489
sg15
(I17
I982
tp8490
ss(g450
g517
tp8491
(dp8492
g13
(I200
I200
tp8493
sg15
(I600
I600
tp8494
ss(g111
g555
tp8495
(dp8496
g13
(I150
I0
tp8497
sg15
(I50
I800
tp8498
ss(g142
g262
tp8499
(dp8500
g13
(I200
I200
tp8501
sg15
(I600
I600
tp8502
ss(g243
g262
tp8503
(dp8504
g13
(I200
I200
tp8505
sg15
(I600
I600
tp8506
ss(g67
g24
tp8507
(dp8508
g13
(I48
I199
tp8509
sg15
(I901
I146
tp8510
ss(g52
g285
tp8511
(dp8512
g13
(I200
I200
tp8513
sg15
(I600
I600
tp8514
ss(g23
g137
tp8515
(dp8516
g13
(I200
I200
tp8517
sg15
(I600
I600
tp8518
ss(g111
g308
tp8519
(dp8520
g13
(I150
I53
tp8521
sg15
(I259
I744
tp8522
ss(g73
g186
tp8523
(dp8524
g13
(I184
I176
tp8525
sg15
(I559
I599
tp8526
ss(g117
g216
tp8527
(dp8528
g13
(I200
I200
tp8529
sg15
(I600
I600
tp8530
ss(g90
g171
tp8531
(dp8532
g13
(I198
I200
tp8533
sg15
(I604
I594
tp8534
ss(g171
g171
tp8535
(dp8536
g13
(I200
I200
tp8537
sg15
(I600
I600
tp8538
ss(g132
g102
tp8539
(dp8540
g13
(I3
I184
tp8541
sg15
(I932
I27
tp8542
ss(g101
g177
tp8543
(dp8544
g13
(I200
I0
tp8545
sg15
(I0
I1000
tp8546
ss(g23
g148
tp8547
(dp8548
g13
(I200
I200
tp8549
sg15
(I600
I600
tp8550
ss(g101
g362
tp8551
(dp8552
g13
(I198
I198
tp8553
sg15
(I597
I597
tp8554
ss(g117
g467
tp8555
(dp8556
g13
(I200
I0
tp8557
sg15
(I0
I1000
tp8558
ss(g1054
g68
tp8559
(dp8560
g13
(I200
I200
tp8561
sg15
(I600
I600
tp8562
ss(g79
g68
tp8563
(dp8564
g13
(I200
I200
tp8565
sg15
(I600
I600
tp8566
ss(g91
g721
tp8567
(dp8568
g13
(I134
I200
tp8569
sg15
(I732
I402
tp8570
ss(g450
g555
tp8571
(dp8572
g13
(I26
I141
tp8573
sg15
(I723
I148
tp8574
ss(g18
g10
tp8575
(dp8576
g13
(I2
I102
tp8577
sg15
(I604
I104
tp8578
ss(g96
g24
tp8579
(dp8580
g13
(I1
I199
tp8581
sg15
(I995
I5
tp8582
ss(g101
g10
tp8583
(dp8584
g13
(I198
I199
tp8585
sg15
(I601
I596
tp8586
ss(g62
g166
tp8587
(dp8588
g13
(I200
I200
tp8589
sg15
(I600
I600
tp8590
ss(g317
g79
tp8591
(dp8592
g13
(I1
I200
tp8593
sg15
(I998
I3
tp8594
ss(g101
g29
tp8595
(dp8596
g13
(I2
I200
tp8597
sg15
(I996
I6
tp8598
ss(g294
g67
tp8599
(dp8600
g13
(I200
I1
tp8601
sg15
(I3
I998
tp8602
ss(g294
g36
tp8603
(dp8604
g13
(I200
I199
tp8605
sg15
(I597
I602
tp8606
ss(g84
g176
tp8607
(dp8608
g13
(I200
I0
tp8609
sg15
(I0
I1000
tp8610
ss(g294
g450
tp8611
(dp8612
g13
(I200
I200
tp8613
sg15
(I600
I600
tp8614
ss(g90
g176
tp8615
(dp8616
g13
(I200
I0
tp8617
sg15
(I0
I1000
tp8618
ss(g67
g400
tp8619
(dp8620
g13
(I172
I73
tp8621
sg15
(I263
I758
tp8622
ss(g294
g526
tp8623
(dp8624
g13
(I200
I0
tp8625
sg15
(I0
I1000
tp8626
ss(g90
g555
tp8627
(dp8628
g13
(I4
I193
tp8629
sg15
(I968
I23
tp8630
ss(g61
g276
tp8631
(dp8632
g13
(I6
I197
tp8633
sg15
(I978
I23
tp8634
ss(g67
g221
tp8635
(dp8636
g13
(I1
I200
tp8637
sg15
(I998
I3
tp8638
ss(g61
g137
tp8639
(dp8640
g13
(I200
I200
tp8641
sg15
(I600
I600
tp8642
ss(g101
g68
tp8643
(dp8644
g13
(I198
I198
tp8645
sg15
(I596
I596
tp8646
ss(g111
g177
tp8647
(dp8648
g13
(I200
I0
tp8649
sg15
(I0
I1000
tp8650
ss(g656
g276
tp8651
(dp8652
g13
(I104
I187
tp8653
sg15
(I750
I335
tp8654
ss(g17
g467
tp8655
(dp8656
g13
(I200
I0
tp8657
sg15
(I0
I1000
tp8658
ss(g132
g126
tp8659
(dp8660
g13
(I200
I200
tp8661
sg15
(I600
I600
tp8662
ss(g111
g276
tp8663
(dp8664
g13
(I150
I141
tp8665
sg15
(I496
I541
tp8666
ss(g132
g171
tp8667
(dp8668
g13
(I200
I200
tp8669
sg15
(I600
I600
tp8670
ss(g171
g195
tp8671
(dp8672
g13
(I200
I200
tp8673
sg15
(I600
I600
tp8674
ss(g67
g195
tp8675
(dp8676
g13
(I1
I200
tp8677
sg15
(I998
I3
tp8678
ss(g41
g262
tp8679
(dp8680
g13
(I200
I200
tp8681
sg15
(I600
I600
tp8682
ss(g36
g117
tp8683
(dp8684
g13
(I199
I200
tp8685
sg15
(I602
I597
tp8686
ss(g132
g101
tp8687
(dp8688
g13
(I2
I2
tp8689
sg15
(I206
I206
tp8690
ss(g116
g47
tp8691
(dp8692
g13
(I155
I44
tp8693
sg15
(I207
I762
tp8694
ss(g295
g271
tp8695
(dp8696
g13
(I198
I199
tp8697
sg15
(I600
I595
tp8698
ss(g132
g41
tp8699
(dp8700
g13
(I200
I200
tp8701
sg15
(I600
I600
tp8702
ss(g18
g85
tp8703
(dp8704
g13
(I67
I67
tp8705
sg15
(I401
I401
tp8706
ss(g90
g467
tp8707
(dp8708
g13
(I200
I0
tp8709
sg15
(I0
I1000
tp8710
ss(g111
g186
tp8711
(dp8712
g13
(I150
I200
tp8713
sg15
(I700
I450
tp8714
ss(g216
g74
tp8715
(dp8716
g13
(I200
I0
tp8717
sg15
(I0
I1000
tp8718
ss(g52
g262
tp8719
(dp8720
g13
(I200
I200
tp8721
sg15
(I600
I600
tp8722
ss(g186
g36
tp8723
(dp8724
g13
(I200
I199
tp8725
sg15
(I597
I602
tp8726
ss(g61
g166
tp8727
(dp8728
g13
(I200
I200
tp8729
sg15
(I600
I600
tp8730
ss(g90
g17
tp8731
(dp8732
g13
(I198
I199
tp8733
sg15
(I600
I595
tp8734
ss(g248
g18
tp8735
(dp8736
g13
(I199
I199
tp8737
sg15
(I599
I599
tp8738
ss(g29
g137
tp8739
(dp8740
g13
(I151
I152
tp8741
sg15
(I553
I548
tp8742
ss(g186
g249
tp8743
(dp8744
g13
(I13
I1
tp8745
sg15
(I190
I250
tp8746
ss(g61
g186
tp8747
(dp8748
g13
(I200
I200
tp8749
sg15
(I600
I600
tp8750
ss(g126
g74
tp8751
(dp8752
g13
(I200
I0
tp8753
sg15
(I0
I1000
tp8754
ss(g9
g276
tp8755
(dp8756
g13
(I4
I199
tp8757
sg15
(I989
I14
tp8758
ss(g371
g195
tp8759
(dp8760
g13
(I200
I200
tp8761
sg15
(I600
I600
tp8762
ss(g126
g308
tp8763
(dp8764
g13
(I200
I200
tp8765
sg15
(I600
I600
tp8766
ss(g1054
g425
tp8767
(dp8768
g13
(I200
I200
tp8769
sg15
(I600
I600
tp8770
ss(g101
g285
tp8771
(dp8772
g13
(I200
I200
tp8773
sg15
(I600
I600
tp8774
ss(g721
g29
tp8775
(dp8776
g13
(I197
I106
tp8777
sg15
(I323
I778
tp8778
ss(g221
g176
tp8779
(dp8780
g13
(I200
I0
tp8781
sg15
(I0
I1000
tp8782
ss(g295
g176
tp8783
(dp8784
g13
(I200
I0
tp8785
sg15
(I0
I1000
tp8786
ss(g9
g96
tp8787
(dp8788
g13
(I0
I1
tp8789
sg15
(I204
I199
tp8790
ss(g147
g10
tp8791
(dp8792
g13
(I199
I200
tp8793
sg15
(I602
I597
tp8794
ss(g62
g18
tp8795
(dp8796
g13
(I1
I2
tp8797
sg15
(I207
I202
tp8798
ss(g294
g285
tp8799
(dp8800
g13
(I200
I200
tp8801
sg15
(I600
I600
tp8802
ss(g79
g62
tp8803
(dp8804
g13
(I200
I200
tp8805
sg15
(I600
I600
tp8806
ss(g73
g472
tp8807
(dp8808
g13
(I194
I197
tp8809
sg15
(I602
I587
tp8810
ss(g1054
g248
tp8811
(dp8812
g13
(I200
I200
tp8813
sg15
(I600
I600
tp8814
ss(g73
g17
tp8815
(dp8816
g13
(I198
I183
tp8817
sg15
(I552
I627
tp8818
ss(g248
g166
tp8819
(dp8820
g13
(I200
I200
tp8821
sg15
(I600
I600
tp8822
ss(g35
g74
tp8823
(dp8824
g13
(I200
I0
tp8825
sg15
(I0
I1000
tp8826
ss(g148
g176
tp8827
(dp8828
g13
(I200
I0
tp8829
sg15
(I0
I1000
tp8830
ss(g17
g68
tp8831
(dp8832
g13
(I200
I200
tp8833
sg15
(I600
I600
tp8834
ss(g171
g555
tp8835
(dp8836
g13
(I75
I75
tp8837
sg15
(I400
I400
tp8838
ss(g126
g176
tp8839
(dp8840
g13
(I200
I0
tp8841
sg15
(I0
I1000
tp8842
ss(g47
g36
tp8843
(dp8844
g13
(I200
I199
tp8845
sg15
(I597
I602
tp8846
ss(g23
g721
tp8847
(dp8848
g13
(I200
I200
tp8849
sg15
(I600
I600
tp8850
ss(g126
g36
tp8851
(dp8852
g13
(I100
I100
tp8853
sg15
(I500
I500
tp8854
ss(g41
g147
tp8855
(dp8856
g13
(I10
I11
tp8857
sg15
(I234
I229
tp8858
ss(g147
g68
tp8859
(dp8860
g13
(I199
I199
tp8861
sg15
(I598
I598
tp8862
ss(g526
g176
tp8863
(dp8864
g13
(I199
I0
tp8865
sg15
(I1
I996
tp8866
ss(g91
g96
tp8867
(dp8868
g13
(I134
I3
tp8869
sg15
(I76
I731
tp8870
ss(g67
g29
tp8871
(dp8872
g13
(I48
I199
tp8873
sg15
(I900
I145
tp8874
ss(g41
g24
tp8875
(dp8876
g13
(I180
I199
tp8877
sg15
(I637
I542
tp8878
ss(g116
g126
tp8879
(dp8880
g13
(I100
I100
tp8881
sg15
(I450
I450
tp8882
ss(g425
g36
tp8883
(dp8884
g13
(I100
I100
tp8885
sg15
(I500
I500
tp8886
ss(g308
g221
tp8887
(dp8888
g13
(I147
I172
tp8889
sg15
(I608
I483
tp8890
ss(g450
g29
tp8891
(dp8892
g13
(I111
I192
tp8893
sg15
(I753
I348
tp8894
ss(g35
g221
tp8895
(dp8896
g13
(I182
I154
tp8897
sg15
(I489
I629
tp8898
ss(g248
g467
tp8899
(dp8900
g13
(I200
I0
tp8901
sg15
(I0
I1000
tp8902
ss(g148
g262
tp8903
(dp8904
g13
(I200
I200
tp8905
sg15
(I600
I600
tp8906
ss(g371
g117
tp8907
(dp8908
g13
(I200
I200
tp8909
sg15
(I600
I600
tp8910
ss(g308
g216
tp8911
(dp8912
g13
(I200
I200
tp8913
sg15
(I600
I600
tp8914
ss(g147
g400
tp8915
(dp8916
g13
(I199
I199
tp8917
sg15
(I599
I599
tp8918
ss(g126
g24
tp8919
(dp8920
g13
(I199
I199
tp8921
sg15
(I599
I599
tp8922
ss(g9
g147
tp8923
(dp8924
g13
(I0
I2
tp8925
sg15
(I208
I198
tp8926
ss(g721
g68
tp8927
(dp8928
g13
(I200
I200
tp8929
sg15
(I600
I600
tp8930
ss(g147
g102
tp8931
(dp8932
g13
(I2
I1
tp8933
sg15
(I202
I207
tp8934
ss(g73
g195
tp8935
(dp8936
g13
(I192
I193
tp8937
sg15
(I594
I589
tp8938
ss(g165
g248
tp8939
(dp8940
g13
(I0
I1
tp8941
sg15
(I204
I199
tp8942
ss(g230
g467
tp8943
(dp8944
g13
(I200
I0
tp8945
sg15
(I0
I1000
tp8946
ss(g9
g176
tp8947
(dp8948
g13
(I199
I0
tp8949
sg15
(I1
I996
tp8950
ss(g656
g41
tp8951
(dp8952
g13
(I200
I200
tp8953
sg15
(I600
I600
tp8954
ss(g9
g721
tp8955
(dp8956
g13
(I0
I1
tp8957
sg15
(I204
I199
tp8958
ss(g276
g30
tp8959
(dp8960
g13
(I200
I0
tp8961
sg15
(I0
I1000
tp8962
ss(g35
g195
tp8963
(dp8964
g13
(I182
I193
tp8965
sg15
(I614
I559
tp8966
ss(g450
g18
tp8967
(dp8968
g13
(I13
I14
tp8969
sg15
(I243
I238
tp8970
ss(g126
g18
tp8971
(dp8972
g13
(I199
I199
tp8973
sg15
(I599
I599
tp8974
ss(g9
g67
tp8975
(dp8976
g13
(I2
I199
tp8977
sg15
(I993
I8
tp8978
ss(g126
g400
tp8979
(dp8980
g13
(I200
I200
tp8981
sg15
(I600
I600
tp8982
ss(g166
g400
tp8983
(dp8984
g13
(I200
I200
tp8985
sg15
(I600
I600
tp8986
ss(g46
g450
tp8987
(dp8988
g13
(I100
I14
tp8989
sg15
(I155
I585
tp8990
ss(g165
g262
tp8991
(dp8992
g13
(I0
I4
tp8993
sg15
(I216
I196
tp8994
ss(g126
g96
tp8995
(dp8996
g13
(I200
I200
tp8997
sg15
(I600
I600
tp8998
ss(g1054
g73
tp8999
(dp9000
g13
(I200
I4
tp9001
sg15
(I12
I992
tp9002
ss(g46
g142
tp9003
(dp9004
g13
(I100
I2
tp9005
sg15
(I107
I597
tp9006
ss(g90
g308
tp9007
(dp9008
g13
(I198
I199
tp9009
sg15
(I600
I595
tp9010
ss(g248
g177
tp9011
(dp9012
g13
(I200
I0
tp9013
sg15
(I0
I1000
tp9014
ss(g656
g285
tp9015
(dp9016
g13
(I200
I200
tp9017
sg15
(I600
I600
tp9018
ss(g111
g517
tp9019
(dp9020
g13
(I150
I52
tp9021
sg15
(I231
I721
tp9022
ss(g165
g721
tp9023
(dp9024
g13
(I0
I1
tp9025
sg15
(I204
I199
tp9026
ss(g371
g271
tp9027
(dp9028
g13
(I200
I200
tp9029
sg15
(I600
I600
tp9030
ss(g555
g555
tp9031
(dp9032
g13
(I0
I0
tp9033
sg15
(I200
I200
tp9034
ss(g91
g166
tp9035
(dp9036
g13
(I134
I29
tp9037
sg15
(I163
I688
tp9038
ss(g116
g102
tp9039
(dp9040
g13
(I181
I18
tp9041
sg15
(I91
I906
tp9042
ss(g68
g74
tp9043
(dp9044
g13
(I200
I0
tp9045
sg15
(I0
I1000
tp9046
ss(g400
g176
tp9047
(dp9048
g13
(I200
I0
tp9049
sg15
(I0
I1000
tp9050
ss(g472
g41
tp9051
(dp9052
g13
(I200
I200
tp9053
sg15
(I600
I600
tp9054
ss(g84
g166
tp9055
(dp9056
g13
(I167
I30
tp9057
sg15
(I129
I814
tp9058
ss(g132
g467
tp9059
(dp9060
g13
(I200
I0
tp9061
sg15
(I0
I1000
tp9062
ss(g79
g18
tp9063
(dp9064
g13
(I200
I2
tp9065
sg15
(I6
I996
tp9066
ss(g67
g96
tp9067
(dp9068
g13
(I198
I2
tp9069
sg15
(I9
I989
tp9070
ss(g472
g47
tp9071
(dp9072
g13
(I200
I200
tp9073
sg15
(I600
I600
tp9074
ss(g147
g230
tp9075
(dp9076
g13
(I2
I1
tp9077
sg15
(I202
I207
tp9078
ss(g46
g262
tp9079
(dp9080
g13
(I100
I6
tp9081
sg15
(I121
I591
tp9082
ss(g24
g142
tp9083
(dp9084
g13
(I199
I198
tp9085
sg15
(I596
I601
tp9086
ss(g35
g276
tp9087
(dp9088
g13
(I182
I110
tp9089
sg15
(I353
I713
tp9090
ss(g62
g47
tp9091
(dp9092
g13
(I200
I200
tp9093
sg15
(I600
I600
tp9094
ss(g243
g74
tp9095
(dp9096
g13
(I200
I0
tp9097
sg15
(I0
I1000
tp9098
ss(g35
g137
tp9099
(dp9100
g13
(I182
I182
tp9101
sg15
(I582
I582
tp9102
ss(g101
g85
tp9103
(dp9104
g13
(I198
I199
tp9105
sg15
(I600
I595
tp9106
ss(g294
g18
tp9107
(dp9108
g13
(I200
I2
tp9109
sg15
(I6
I996
tp9110
ss(g17
g216
tp9111
(dp9112
g13
(I200
I200
tp9113
sg15
(I600
I600
tp9114
ss(g248
g29
tp9115
(dp9116
g13
(I176
I127
tp9117
sg15
(I428
I673
tp9118
ss(g148
g85
tp9119
(dp9120
g13
(I200
I200
tp9121
sg15
(I600
I600
tp9122
ss(g165
g17
tp9123
(dp9124
g13
(I0
I1
tp9125
sg15
(I204
I199
tp9126
ss(g271
g472
tp9127
(dp9128
g13
(I200
I200
tp9129
sg15
(I600
I600
tp9130
ss(g317
g249
tp9131
(dp9132
g13
(I199
I1
tp9133
sg15
(I4
I994
tp9134
ss(g101
g17
tp9135
(dp9136
g13
(I198
I198
tp9137
sg15
(I597
I597
tp9138
ss(g61
g371
tp9139
(dp9140
g13
(I200
I200
tp9141
sg15
(I600
I600
tp9142
ss(g400
g10
tp9143
(dp9144
g13
(I198
I198
tp9145
sg15
(I597
I597
tp9146
ss(g18
g230
tp9147
(dp9148
g13
(I2
I1
tp9149
sg15
(I202
I207
tp9150
ss(g656
g52
tp9151
(dp9152
g13
(I200
I200
tp9153
sg15
(I600
I600
tp9154
ss(g91
g555
tp9155
(dp9156
g13
(I134
I0
tp9157
sg15
(I66
I736
tp9158
ss(g142
g216
tp9159
(dp9160
g13
(I200
I200
tp9161
sg15
(I600
I600
tp9162
ss(g517
g176
tp9163
(dp9164
g13
(I200
I0
tp9165
sg15
(I0
I1000
tp9166
ss(g371
g10
tp9167
(dp9168
g13
(I10
I97
tp9169
sg15
(I576
I141
tp9170
ss(g294
g24
tp9171
(dp9172
g13
(I200
I199
tp9173
sg15
(I597
I602
tp9174
ss(g294
g137
tp9175
(dp9176
g13
(I200
I200
tp9177
sg15
(I600
I600
tp9178
ss(g131
g24
tp9179
(dp9180
g13
(I200
I199
tp9181
sg15
(I597
I602
tp9182
ss(g371
g467
tp9183
(dp9184
g13
(I200
I0
tp9185
sg15
(I0
I1000
tp9186
ss(g294
g656
tp9187
(dp9188
g13
(I200
I200
tp9189
sg15
(I600
I600
tp9190
ss(g308
g176
tp9191
(dp9192
g13
(I200
I0
tp9193
sg15
(I0
I1000
tp9194
ss(g131
g165
tp9195
(dp9196
g13
(I200
I0
tp9197
sg15
(I0
I1000
tp9198
ss(g249
g249
tp9199
(dp9200
g13
(I1
I1
tp9201
sg15
(I202
I202
tp9202
ss(g317
g142
tp9203
(dp9204
g13
(I120
I80
tp9205
sg15
(I360
I560
tp9206
ss(g317
g41
tp9207
(dp9208
g13
(I176
I24
tp9209
sg15
(I104
I864
tp9210
ss(g171
g18
tp9211
(dp9212
g13
(I5
I2
tp9213
sg15
(I201
I216
tp9214
ss(g243
g147
tp9215
(dp9216
g13
(I170
I169
tp9217
sg15
(I547
I552
tp9218
ss(g317
g18
tp9219
(dp9220
g13
(I100
I100
tp9221
sg15
(I450
I450
tp9222
ss(g90
g142
tp9223
(dp9224
g13
(I198
I199
tp9225
sg15
(I600
I595
tp9226
ss(g24
g555
tp9227
(dp9228
g13
(I0
I0
tp9229
sg15
(I200
I200
tp9230
ss(g656
g148
tp9231
(dp9232
g13
(I200
I200
tp9233
sg15
(I600
I600
tp9234
ss(g165
g517
tp9235
(dp9236
g13
(I0
I1
tp9237
sg15
(I204
I199
tp9238
ss(g116
g262
tp9239
(dp9240
g13
(I193
I6
tp9241
sg15
(I30
I965
tp9242
ss(g243
g176
tp9243
(dp9244
g13
(I200
I0
tp9245
sg15
(I0
I1000
tp9246
ss(g243
g102
tp9247
(dp9248
g13
(I16
I1
tp9249
sg15
(I187
I262
tp9250
ss(g656
g555
tp9251
(dp9252
g13
(I27
I144
tp9253
sg15
(I736
I151
tp9254
ss(g165
g186
tp9255
(dp9256
g13
(I0
I11
tp9257
sg15
(I244
I189
tp9258
ss(g73
g52
tp9259
(dp9260
g13
(I198
I186
tp9261
sg15
(I561
I621
tp9262
ss(g111
g147
tp9263
(dp9264
g13
(I150
I150
tp9265
sg15
(I550
I550
tp9266
ss(g295
g186
tp9267
(dp9268
g13
(I198
I200
tp9269
sg15
(I604
I594
tp9270
ss(g317
g10
tp9271
(dp9272
g13
(I100
I100
tp9273
sg15
(I450
I450
tp9274
ss(g90
g79
tp9275
(dp9276
g13
(I198
I200
tp9277
sg15
(I604
I594
tp9278
ss(g221
g30
tp9279
(dp9280
g13
(I200
I0
tp9281
sg15
(I0
I1000
tp9282
ss(g61
g74
tp9283
(dp9284
g13
(I200
I0
tp9285
sg15
(I0
I1000
tp9286
ss(g18
g362
tp9287
(dp9288
g13
(I2
I3
tp9289
sg15
(I208
I203
tp9290
ss(g68
g68
tp9291
(dp9292
g13
(I200
I200
tp9293
sg15
(I600
I600
tp9294
ss(g46
g165
tp9295
(dp9296
g13
(I100
I0
tp9297
sg15
(I100
I600
tp9298
ss(g400
g221
tp9299
(dp9300
g13
(I125
I176
tp9301
sg15
(I666
I411
tp9302
ss(g116
g17
tp9303
(dp9304
g13
(I176
I23
tp9305
sg15
(I105
I870
tp9306
ss(g425
g176
tp9307
(dp9308
g13
(I200
I0
tp9309
sg15
(I0
I1000
tp9310
ss(g18
g400
tp9311
(dp9312
g13
(I199
I199
tp9313
sg15
(I599
I599
tp9314
ss(g101
g166
tp9315
(dp9316
g13
(I2
I67
tp9317
sg15
(I464
I139
tp9318
ss(g721
g400
tp9319
(dp9320
g13
(I200
I200
tp9321
sg15
(I600
I600
tp9322
ss(g186
g17
tp9323
(dp9324
g13
(I200
I200
tp9325
sg15
(I600
I600
tp9326
ss(g271
g41
tp9327
(dp9328
g13
(I200
I200
tp9329
sg15
(I600
I600
tp9330
ss(g84
g101
tp9331
(dp9332
g13
(I167
I2
tp9333
sg15
(I39
I864
tp9334
ss(g721
g17
tp9335
(dp9336
g13
(I200
I200
tp9337
sg15
(I600
I600
tp9338
ss(g195
g137
tp9339
(dp9340
g13
(I200
I200
tp9341
sg15
(I600
I600
tp9342
ss(g10
g285
tp9343
(dp9344
g13
(I200
I200
tp9345
sg15
(I600
I600
tp9346
ss(g47
g142
tp9347
(dp9348
g13
(I200
I200
tp9349
sg15
(I600
I600
tp9350
ss(g295
g171
tp9351
(dp9352
g13
(I198
I200
tp9353
sg15
(I604
I594
tp9354
ss(g101
g101
tp9355
(dp9356
g13
(I198
I198
tp9357
sg15
(I596
I596
tp9358
ss(g221
g276
tp9359
(dp9360
g13
(I200
I1
tp9361
sg15
(I3
I998
tp9362
ss(g171
g517
tp9363
(dp9364
g13
(I200
I200
tp9365
sg15
(I600
I600
tp9366
ss(g35
g362
tp9367
(dp9368
g13
(I182
I182
tp9369
sg15
(I582
I582
tp9370
ss(g472
g18
tp9371
(dp9372
g13
(I199
I199
tp9373
sg15
(I599
I599
tp9374
ss(g35
g243
tp9375
(dp9376
g13
(I182
I182
tp9377
sg15
(I577
I577
tp9378
ss(g67
g117
tp9379
(dp9380
g13
(I99
I147
tp9381
sg15
(I626
I386
tp9382
ss(g111
g137
tp9383
(dp9384
g13
(I150
I151
tp9385
sg15
(I553
I548
tp9386
ss(g35
g41
tp9387
(dp9388
g13
(I182
I58
tp9389
sg15
(I199
I819
tp9390
ss(g24
g24
tp9391
(dp9392
g13
(I0
I0
tp9393
sg15
(I200
I200
tp9394
ss(g35
g79
tp9395
(dp9396
g13
(I182
I200
tp9397
sg15
(I636
I546
tp9398
ss(g23
g102
tp9399
(dp9400
g13
(I28
I22
tp9401
sg15
(I238
I268
tp9402
ss(g132
g52
tp9403
(dp9404
g13
(I200
I200
tp9405
sg15
(I600
I600
tp9406
ss(g36
g142
tp9407
(dp9408
g13
(I1
I1
tp9409
sg15
(I203
I203
tp9410
ss(g35
g171
tp9411
(dp9412
g13
(I182
I200
tp9413
sg15
(I636
I546
tp9414
ss(g46
g90
tp9415
(dp9416
g13
(I100
I8
tp9417
sg15
(I128
I588
tp9418
ss(g47
g137
tp9419
(dp9420
g13
(I200
I200
tp9421
sg15
(I600
I600
tp9422
ss(g18
g216
tp9423
(dp9424
g13
(I2
I2
tp9425
sg15
(I204
I204
tp9426
ss(g450
g195
tp9427
(dp9428
g13
(I200
I200
tp9429
sg15
(I600
I600
tp9430
ss(g91
g137
tp9431
(dp9432
g13
(I134
I134
tp9433
sg15
(I534
I534
tp9434
ss(g67
g47
tp9435
(dp9436
g13
(I168
I79
tp9437
sg15
(I295
I740
tp9438
ss(g472
g262
tp9439
(dp9440
g13
(I200
I200
tp9441
sg15
(I600
I600
tp9442
ss(g165
g271
tp9443
(dp9444
g13
(I0
I1
tp9445
sg15
(I204
I199
tp9446
ss(g721
g721
tp9447
(dp9448
g13
(I200
I200
tp9449
sg15
(I600
I600
tp9450
ss(g450
g36
tp9451
(dp9452
g13
(I13
I13
tp9453
sg15
(I239
I239
tp9454
ss(g9
g62
tp9455
(dp9456
g13
(I0
I1
tp9457
sg15
(I204
I199
tp9458
ss(g186
g10
tp9459
(dp9460
g13
(I15
I94
tp9461
sg15
(I559
I164
tp9462
ss(g362
g467
tp9463
(dp9464
g13
(I200
I0
tp9465
sg15
(I0
I1000
tp9466
ss(g62
g102
tp9467
(dp9468
g13
(I21
I18
tp9469
sg15
(I233
I248
tp9470
ss(g721
g230
tp9471
(dp9472
g13
(I200
I200
tp9473
sg15
(I600
I600
tp9474
ss(g317
g102
tp9475
(dp9476
g13
(I1
I199
tp9477
sg15
(I994
I4
tp9478
ss(g47
g555
tp9479
(dp9480
g13
(I44
I126
tp9481
sg15
(I646
I236
tp9482
ss(g91
g47
tp9483
(dp9484
g13
(I134
I200
tp9485
sg15
(I732
I402
tp9486
ss(g46
g117
tp9487
(dp9488
g13
(I100
I200
tp9489
sg15
(I800
I300
tp9490
ss(g111
g425
tp9491
(dp9492
g13
(I150
I200
tp9493
sg15
(I700
I450
tp9494
ss(g17
g656
tp9495
(dp9496
g13
(I200
I200
tp9497
sg15
(I600
I600
tp9498
ss(g73
g285
tp9499
(dp9500
g13
(I200
I200
tp9501
sg15
(I600
I600
tp9502
ss(g656
g137
tp9503
(dp9504
g13
(I200
I200
tp9505
sg15
(I600
I600
tp9506
ss(g243
g243
tp9507
(dp9508
g13
(I200
I200
tp9509
sg15
(I600
I600
tp9510
ss(g721
g47
tp9511
(dp9512
g13
(I200
I200
tp9513
sg15
(I600
I600
tp9514
ss(g117
g555
tp9515
(dp9516
g13
(I86
I56
tp9517
sg15
(I310
I460
tp9518
ss(g67
g102
tp9519
(dp9520
g13
(I151
I49
tp9521
sg15
(I244
I754
tp9522
ss(g472
g230
tp9523
(dp9524
g13
(I200
I200
tp9525
sg15
(I600
I600
tp9526
ss(g230
g10
tp9527
(dp9528
g13
(I8
I103
tp9529
sg15
(I602
I127
tp9530
ss(g1054
g111
tp9531
(dp9532
g13
(I200
I150
tp9533
sg15
(I450
I700
tp9534
ss(g721
g67
tp9535
(dp9536
g13
(I144
I102
tp9537
sg15
(I405
I615
tp9538
ss(g472
g467
tp9539
(dp9540
g13
(I200
I0
tp9541
sg15
(I0
I1000
tp9542
ss(g47
g74
tp9543
(dp9544
g13
(I200
I0
tp9545
sg15
(I0
I1000
tp9546
ss(g10
g117
tp9547
(dp9548
g13
(I197
I198
tp9549
sg15
(I599
I594
tp9550
ss(g248
g85
tp9551
(dp9552
g13
(I200
I200
tp9553
sg15
(I600
I600
tp9554
ss(g131
g555
tp9555
(dp9556
g13
(I200
I0
tp9557
sg15
(I0
I1000
tp9558
ss(g317
g68
tp9559
(dp9560
g13
(I100
I100
tp9561
sg15
(I400
I400
tp9562
ss(g271
g216
tp9563
(dp9564
g13
(I200
I200
tp9565
sg15
(I600
I600
tp9566
ss(g62
g425
tp9567
(dp9568
g13
(I200
I200
tp9569
sg15
(I600
I600
tp9570
ss(g472
g195
tp9571
(dp9572
g13
(I200
I200
tp9573
sg15
(I600
I600
tp9574
ss(g195
g10
tp9575
(dp9576
g13
(I200
I2
tp9577
sg15
(I6
I996
tp9578
ss(g132
g177
tp9579
(dp9580
g13
(I200
I0
tp9581
sg15
(I0
I1000
tp9582
ss(g295
g248
tp9583
(dp9584
g13
(I198
I200
tp9585
sg15
(I604
I594
tp9586
ss(g96
g117
tp9587
(dp9588
g13
(I200
I200
tp9589
sg15
(I600
I600
tp9590
ss(g248
g17
tp9591
(dp9592
g13
(I200
I200
tp9593
sg15
(I600
I600
tp9594
ss(g91
g176
tp9595
(dp9596
g13
(I200
I0
tp9597
sg15
(I0
I1000
tp9598
ss(g526
g148
tp9599
(dp9600
g13
(I198
I189
tp9601
sg15
(I570
I615
tp9602
ss(g271
g142
tp9603
(dp9604
g13
(I200
I200
tp9605
sg15
(I600
I600
tp9606
ss(g243
g18
tp9607
(dp9608
g13
(I18
I2
tp9609
sg15
(I188
I268
tp9610
ss(g656
g30
tp9611
(dp9612
g13
(I200
I0
tp9613
sg15
(I0
I1000
tp9614
ss(g24
g117
tp9615
(dp9616
g13
(I199
I200
tp9617
sg15
(I602
I597
tp9618
ss(g1054
g142
tp9619
(dp9620
g13
(I200
I200
tp9621
sg15
(I600
I600
tp9622
ss(g1054
g467
tp9623
(dp9624
g13
(I200
I0
tp9625
sg15
(I0
I1000
tp9626
ss(g248
g41
tp9627
(dp9628
g13
(I200
I200
tp9629
sg15
(I600
I600
tp9630
ss(g294
g371
tp9631
(dp9632
g13
(I200
I200
tp9633
sg15
(I600
I600
tp9634
ss(g46
g132
tp9635
(dp9636
g13
(I100
I4
tp9637
sg15
(I114
I594
tp9638
ss(g62
g23
tp9639
(dp9640
g13
(I200
I200
tp9641
sg15
(I600
I600
tp9642
ss(g308
g285
tp9643
(dp9644
g13
(I200
I200
tp9645
sg15
(I600
I600
tp9646
ss(g90
g85
tp9647
(dp9648
g13
(I198
I199
tp9649
sg15
(I600
I595
tp9650
ss(g472
g362
tp9651
(dp9652
g13
(I199
I199
tp9653
sg15
(I599
I599
tp9654
ss(g46
g177
tp9655
(dp9656
g13
(I200
I0
tp9657
sg15
(I0
I1000
tp9658
ss(g1054
g17
tp9659
(dp9660
g13
(I200
I200
tp9661
sg15
(I600
I600
tp9662
ss(g62
g142
tp9663
(dp9664
g13
(I200
I200
tp9665
sg15
(I600
I600
tp9666
ss(g308
g450
tp9667
(dp9668
g13
(I200
I200
tp9669
sg15
(I600
I600
tp9670
ss(g294
g68
tp9671
(dp9672
g13
(I200
I200
tp9673
sg15
(I600
I600
tp9674
ss(g23
g166
tp9675
(dp9676
g13
(I200
I200
tp9677
sg15
(I600
I600
tp9678
ss(g472
g400
tp9679
(dp9680
g13
(I200
I200
tp9681
sg15
(I600
I600
tp9682
ss(g271
g186
tp9683
(dp9684
g13
(I200
I200
tp9685
sg15
(I600
I600
tp9686
ss(g96
g450
tp9687
(dp9688
g13
(I200
I200
tp9689
sg15
(I600
I600
tp9690
ss(g131
g47
tp9691
(dp9692
g13
(I200
I200
tp9693
sg15
(I600
I600
tp9694
ss(g371
g526
tp9695
(dp9696
g13
(I10
I189
tp9697
sg15
(I946
I51
tp9698
ss(g52
g137
tp9699
(dp9700
g13
(I200
I200
tp9701
sg15
(I600
I600
tp9702
ss(g91
g101
tp9703
(dp9704
g13
(I134
I133
tp9705
sg15
(I531
I536
tp9706
ss(g131
g526
tp9707
(dp9708
g13
(I200
I0
tp9709
sg15
(I0
I1000
tp9710
ss(g91
g472
tp9711
(dp9712
g13
(I134
I200
tp9713
sg15
(I732
I402
tp9714
ss(g46
g68
tp9715
(dp9716
g13
(I100
I100
tp9717
sg15
(I400
I400
tp9718
ss(g131
g41
tp9719
(dp9720
g13
(I200
I200
tp9721
sg15
(I600
I600
tp9722
ss(g294
g271
tp9723
(dp9724
g13
(I200
I200
tp9725
sg15
(I600
I600
tp9726
ss(g131
g142
tp9727
(dp9728
g13
(I200
I200
tp9729
sg15
(I600
I600
tp9730
ss(g91
g30
tp9731
(dp9732
g13
(I200
I0
tp9733
sg15
(I0
I1000
tp9734
ss(g90
g656
tp9735
(dp9736
g13
(I198
I199
tp9737
sg15
(I600
I595
tp9738
ss(g73
g262
tp9739
(dp9740
g13
(I192
I17
tp9741
sg15
(I66
I941
tp9742
ss(g131
g294
tp9743
(dp9744
g13
(I200
I200
tp9745
sg15
(I600
I600
tp9746
ss(g371
g243
tp9747
(dp9748
g13
(I200
I200
tp9749
sg15
(I600
I600
tp9750
ss(g79
g30
tp9751
(dp9752
g13
(I200
I0
tp9753
sg15
(I0
I1000
tp9754
ss(g371
g362
tp9755
(dp9756
g13
(I10
I7
tp9757
sg15
(I213
I228
tp9758
ss(g90
g295
tp9759
(dp9760
g13
(I198
I198
tp9761
sg15
(I596
I596
tp9762
ss(g73
g85
tp9763
(dp9764
g13
(I198
I199
tp9765
sg15
(I600
I595
tp9766
ss(g317
g371
tp9767
(dp9768
g13
(I190
I10
tp9769
sg15
(I49
I949
tp9770
ss(g79
g24
tp9771
(dp9772
g13
(I200
I199
tp9773
sg15
(I597
I602
tp9774
ss(g271
g555
tp9775
(dp9776
g13
(I31
I136
tp9777
sg15
(I698
I173
tp9778
ss(g294
g166
tp9779
(dp9780
g13
(I200
I200
tp9781
sg15
(I600
I600
tp9782
ss(g308
g262
tp9783
(dp9784
g13
(I200
I200
tp9785
sg15
(I600
I600
tp9786
ss(g67
g656
tp9787
(dp9788
g13
(I176
I68
tp9789
sg15
(I240
I780
tp9790
ss(g249
g176
tp9791
(dp9792
g13
(I199
I0
tp9793
sg15
(I1
I996
tp9794
ss(g62
g36
tp9795
(dp9796
g13
(I1
I1
tp9797
sg15
(I203
I203
tp9798
ss(g1054
g555
tp9799
(dp9800
g13
(I200
I0
tp9801
sg15
(I0
I1000
tp9802
ss(g243
g276
tp9803
(dp9804
g13
(I29
I184
tp9805
sg15
(I893
I118
tp9806
ss(g61
g111
tp9807
(dp9808
g13
(I100
I150
tp9809
sg15
(I625
I375
tp9810
ss(g46
g101
tp9811
(dp9812
g13
(I100
I100
tp9813
sg15
(I499
I499
tp9814
ss(g61
g362
tp9815
(dp9816
g13
(I67
I67
tp9817
sg15
(I401
I401
tp9818
ss(g84
g517
tp9819
(dp9820
g13
(I167
I70
tp9821
sg15
(I276
I761
tp9822
ss(g17
g85
tp9823
(dp9824
g13
(I200
I200
tp9825
sg15
(I600
I600
tp9826
ss(g73
g67
tp9827
(dp9828
g13
(I200
I1
tp9829
sg15
(I3
I998
tp9830
ss(g111
g295
tp9831
(dp9832
g13
(I150
I16
tp9833
sg15
(I102
I772
tp9834
ss(g472
g137
tp9835
(dp9836
g13
(I200
I200
tp9837
sg15
(I600
I600
tp9838
ss(g295
g36
tp9839
(dp9840
g13
(I198
I198
tp9841
sg15
(I597
I597
tp9842
ss(g10
g276
tp9843
(dp9844
g13
(I146
I145
tp9845
sg15
(I534
I539
tp9846
ss(g186
g216
tp9847
(dp9848
g13
(I200
I200
tp9849
sg15
(I600
I600
tp9850
ss(g195
g68
tp9851
(dp9852
g13
(I200
I200
tp9853
sg15
(I600
I600
tp9854
ss(g450
g177
tp9855
(dp9856
g13
(I200
I0
tp9857
sg15
(I0
I1000
tp9858
ss(g131
g176
tp9859
(dp9860
g13
(I200
I0
tp9861
sg15
(I0
I1000
tp9862
ss(g126
g221
tp9863
(dp9864
g13
(I169
I168
tp9865
sg15
(I550
I555
tp9866
ss(g52
g230
tp9867
(dp9868
g13
(I200
I200
tp9869
sg15
(I600
I600
tp9870
ss(g425
g276
tp9871
(dp9872
g13
(I192
I100
tp9873
sg15
(I315
I775
tp9874
ss(g116
g400
tp9875
(dp9876
g13
(I164
I35
tp9877
sg15
(I159
I804
tp9878
ss(g276
g102
tp9879
(dp9880
g13
(I121
I170
tp9881
sg15
(I666
I421
tp9882
ss(g116
g73
tp9883
(dp9884
g13
(I0
I200
tp9885
sg15
(I1000
I0
tp9886
ss(g271
g62
tp9887
(dp9888
g13
(I200
I200
tp9889
sg15
(I600
I600
tp9890
ss(g450
g249
tp9891
(dp9892
g13
(I13
I13
tp9893
sg15
(I239
I239
tp9894
ss(g425
g195
tp9895
(dp9896
g13
(I200
I200
tp9897
sg15
(I600
I600
tp9898
ss(g472
g555
tp9899
(dp9900
g13
(I70
I94
tp9901
sg15
(I488
I368
tp9902
ss(g271
g308
tp9903
(dp9904
g13
(I200
I200
tp9905
sg15
(I600
I600
tp9906
ss(g147
g517
tp9907
(dp9908
g13
(I2
I1
tp9909
sg15
(I202
I207
tp9910
ss(g36
g216
tp9911
(dp9912
g13
(I0
I0
tp9913
sg15
(I200
I200
tp9914
ss(g276
g216
tp9915
(dp9916
g13
(I146
I146
tp9917
sg15
(I492
I492
tp9918
ss(g186
g262
tp9919
(dp9920
g13
(I200
I200
tp9921
sg15
(I600
I600
tp9922
ss(g166
g85
tp9923
(dp9924
g13
(I200
I200
tp9925
sg15
(I600
I600
tp9926
ss(g36
g467
tp9927
(dp9928
g13
(I200
I0
tp9929
sg15
(I0
I1000
tp9930
ss(g67
g285
tp9931
(dp9932
g13
(I200
I200
tp9933
sg15
(I600
I600
tp9934
ss(g84
g216
tp9935
(dp9936
g13
(I167
I167
tp9937
sg15
(I534
I534
tp9938
ss(g472
g101
tp9939
(dp9940
g13
(I179
I179
tp9941
sg15
(I578
I578
tp9942
ss(g472
g52
tp9943
(dp9944
g13
(I200
I200
tp9945
sg15
(I600
I600
tp9946
ss(g177
g74
tp9947
(dp9948
g13
(I200
I200
tp9949
sg15
(I600
I600
tp9950
ss(g1054
g450
tp9951
(dp9952
g13
(I200
I200
tp9953
sg15
(I600
I600
tp9954
ss(g248
g248
tp9955
(dp9956
g13
(I200
I200
tp9957
sg15
(I600
I600
tp9958
ss(g17
g102
tp9959
(dp9960
g13
(I119
I118
tp9961
sg15
(I436
I441
tp9962
ss(g62
g450
tp9963
(dp9964
g13
(I200
I200
tp9965
sg15
(I600
I600
tp9966
ss(g656
g47
tp9967
(dp9968
g13
(I200
I200
tp9969
sg15
(I600
I600
tp9970
ss(g656
g176
tp9971
(dp9972
g13
(I200
I0
tp9973
sg15
(I0
I1000
tp9974
ss(g18
g517
tp9975
(dp9976
g13
(I2
I1
tp9977
sg15
(I202
I207
tp9978
ss(g47
g467
tp9979
(dp9980
g13
(I200
I0
tp9981
sg15
(I0
I1000
tp9982
ss(g91
g450
tp9983
(dp9984
g13
(I134
I25
tp9985
sg15
(I151
I696
tp9986
ss(g295
g74
tp9987
(dp9988
g13
(I200
I0
tp9989
sg15
(I0
I1000
tp9990
ss(g116
g295
tp9991
(dp9992
g13
(I195
I4
tp9993
sg15
(I21
I976
tp9994
ss(g526
g472
tp9995
(dp9996
g13
(I198
I197
tp9997
sg15
(I594
I599
tp9998
ss(g249
g262
tp9999
(dp10000
g13
(I1
I14
tp10001
sg15
(I254
I189
tp10002
ss(g46
g79
tp10003
(dp10004
g13
(I100
I200
tp10005
sg15
(I800
I300
tp10006
ss(g41
g102
tp10007
(dp10008
g13
(I41
I116
tp10009
sg15
(I587
I212
tp10010
ss(g450
g137
tp10011
(dp10012
g13
(I200
I200
tp10013
sg15
(I600
I600
tp10014
ss(g46
g400
tp10015
(dp10016
g13
(I100
I20
tp10017
sg15
(I179
I579
tp10018
ss(g36
g362
tp10019
(dp10020
g13
(I99
I100
tp10021
sg15
(I501
I496
tp10022
ss(g165
g425
tp10023
(dp10024
g13
(I0
I1
tp10025
sg15
(I204
I199
tp10026
ss(g371
g137
tp10027
(dp10028
g13
(I200
I200
tp10029
sg15
(I600
I600
tp10030
ss(g216
g467
tp10031
(dp10032
g13
(I200
I0
tp10033
sg15
(I0
I1000
tp10034
ss(g526
g142
tp10035
(dp10036
g13
(I198
I197
tp10037
sg15
(I594
I599
tp10038
ss(g23
g450
tp10039
(dp10040
g13
(I200
I200
tp10041
sg15
(I600
I600
tp10042
ss(g35
g84
tp10043
(dp10044
g13
(I182
I167
tp10045
sg15
(I535
I610
tp10046
ss(g35
g30
tp10047
(dp10048
g13
(I200
I0
tp10049
sg15
(I0
I1000
tp10050
ss(g186
g230
tp10051
(dp10052
g13
(I200
I200
tp10053
sg15
(I600
I600
tp10054
ss(g35
g142
tp10055
(dp10056
g13
(I182
I164
tp10057
sg15
(I528
I618
tp10058
ss(g243
g656
tp10059
(dp10060
g13
(I200
I200
tp10061
sg15
(I600
I600
tp10062
ss(g195
g262
tp10063
(dp10064
g13
(I200
I200
tp10065
sg15
(I600
I600
tp10066
ss(g400
g177
tp10067
(dp10068
g13
(I200
I0
tp10069
sg15
(I0
I1000
tp10070
ss(g35
g18
tp10071
(dp10072
g13
(I182
I182
tp10073
sg15
(I582
I582
tp10074
ss(g721
g517
tp10075
(dp10076
g13
(I200
I200
tp10077
sg15
(I600
I600
tp10078
ss(g79
g656
tp10079
(dp10080
g13
(I200
I200
tp10081
sg15
(I600
I600
tp10082
ss(g1054
g195
tp10083
(dp10084
g13
(I200
I200
tp10085
sg15
(I600
I600
tp10086
ss(g295
g472
tp10087
(dp10088
g13
(I198
I200
tp10089
sg15
(I604
I594
tp10090
ss(g656
g74
tp10091
(dp10092
g13
(I200
I0
tp10093
sg15
(I0
I1000
tp10094
ss(g23
g262
tp10095
(dp10096
g13
(I200
I200
tp10097
sg15
(I600
I600
tp10098
ss(g46
g131
tp10099
(dp10100
g13
(I100
I6
tp10101
sg15
(I121
I591
tp10102
ss(g47
g249
tp10103
(dp10104
g13
(I4
I1
tp10105
sg15
(I199
I214
tp10106
ss(g271
g18
tp10107
(dp10108
g13
(I1
I2
tp10109
sg15
(I207
I202
tp10110
ss(g131
g96
tp10111
(dp10112
g13
(I200
I200
tp10113
sg15
(I600
I600
tp10114
ss(g526
g400
tp10115
(dp10116
g13
(I198
I198
tp10117
sg15
(I597
I597
tp10118
ss(g9
g517
tp10119
(dp10120
g13
(I0
I1
tp10121
sg15
(I204
I199
tp10122
ss(g248
g117
tp10123
(dp10124
g13
(I200
I200
tp10125
sg15
(I600
I600
tp10126
ss(g195
g221
tp10127
(dp10128
g13
(I200
I3
tp10129
sg15
(I9
I994
tp10130
ss(g317
g195
tp10131
(dp10132
g13
(I1
I200
tp10133
sg15
(I998
I3
tp10134
ss(g46
g467
tp10135
(dp10136
g13
(I200
I0
tp10137
sg15
(I0
I1000
tp10138
ss(g73
g294
tp10139
(dp10140
g13
(I4
I200
tp10141
sg15
(I992
I12
tp10142
ss(g96
g276
tp10143
(dp10144
g13
(I2
I198
tp10145
sg15
(I989
I9
tp10146
ss(g62
g400
tp10147
(dp10148
g13
(I200
I200
tp10149
sg15
(I600
I600
tp10150
ss(g116
g165
tp10151
(dp10152
g13
(I199
I0
tp10153
sg15
(I1
I996
tp10154
ss(g61
g36
tp10155
(dp10156
g13
(I67
I67
tp10157
sg15
(I401
I401
tp10158
ss(g67
g308
tp10159
(dp10160
g13
(I152
I95
tp10161
sg15
(I363
I648
tp10162
ss(g371
g165
tp10163
(dp10164
g13
(I10
I0
tp10165
sg15
(I190
I240
tp10166
ss(g721
g30
tp10167
(dp10168
g13
(I200
I0
tp10169
sg15
(I0
I1000
tp10170
ss(g111
g450
tp10171
(dp10172
g13
(I150
I16
tp10173
sg15
(I111
I781
tp10174
ss(g1054
g472
tp10175
(dp10176
g13
(I200
I200
tp10177
sg15
(I600
I600
tp10178
ss(g62
g362
tp10179
(dp10180
g13
(I1
I2
tp10181
sg15
(I207
I202
tp10182
ss(g132
g216
tp10183
(dp10184
g13
(I200
I200
tp10185
sg15
(I600
I600
tp10186
ss(g24
g230
tp10187
(dp10188
g13
(I199
I180
tp10189
sg15
(I542
I637
tp10190
ss(g1054
g117
tp10191
(dp10192
g13
(I200
I200
tp10193
sg15
(I600
I600
tp10194
ss(g29
g276
tp10195
(dp10196
g13
(I199
I93
tp10197
sg15
(I280
I810
tp10198
ss(g101
g656
tp10199
(dp10200
g13
(I11
I10
tp10201
sg15
(I229
I234
tp10202
ss(g1054
g29
tp10203
(dp10204
g13
(I200
I1
tp10205
sg15
(I3
I998
tp10206
ss(g36
g555
tp10207
(dp10208
g13
(I0
I0
tp10209
sg15
(I200
I200
tp10210
ss(g249
g68
tp10211
(dp10212
g13
(I1
I1
tp10213
sg15
(I202
I202
tp10214
ss(g317
g84
tp10215
(dp10216
g13
(I34
I167
tp10217
sg15
(I800
I135
tp10218
ss(g90
g526
tp10219
(dp10220
g13
(I4
I195
tp10221
sg15
(I976
I21
tp10222
ss(g73
g656
tp10223
(dp10224
g13
(I198
I189
tp10225
sg15
(I570
I615
tp10226
ss(g317
g243
tp10227
(dp10228
g13
(I31
I170
tp10229
sg15
(I838
I143
tp10230
ss(g84
g68
tp10231
(dp10232
g13
(I167
I167
tp10233
sg15
(I534
I534
tp10234
ss(g271
g147
tp10235
(dp10236
g13
(I1
I2
tp10237
sg15
(I207
I202
tp10238
ss(g132
g142
tp10239
(dp10240
g13
(I200
I200
tp10241
sg15
(I600
I600
tp10242
ss(g96
g166
tp10243
(dp10244
g13
(I200
I200
tp10245
sg15
(I600
I600
tp10246
ss(g41
g47
tp10247
(dp10248
g13
(I200
I200
tp10249
sg15
(I600
I600
tp10250
ss(g171
g41
tp10251
(dp10252
g13
(I200
I200
tp10253
sg15
(I600
I600
tp10254
ss(g294
g195
tp10255
(dp10256
g13
(I200
I200
tp10257
sg15
(I600
I600
tp10258
ss(g308
g555
tp10259
(dp10260
g13
(I50
I100
tp10261
sg15
(I525
I275
tp10262
ss(g9
g61
tp10263
(dp10264
g13
(I0
I100
tp10265
sg15
(I600
I100
tp10266
ss(g84
g271
tp10267
(dp10268
g13
(I167
I22
tp10269
sg15
(I116
I841
tp10270
ss(g111
g85
tp10271
(dp10272
g13
(I150
I100
tp10273
sg15
(I375
I625
tp10274
ss(g425
g148
tp10275
(dp10276
g13
(I200
I200
tp10277
sg15
(I600
I600
tp10278
ss(g18
g555
tp10279
(dp10280
g13
(I67
I66
tp10281
sg15
(I364
I369
tp10282
ss(g41
g148
tp10283
(dp10284
g13
(I200
I200
tp10285
sg15
(I600
I600
tp10286
ss(g450
g147
tp10287
(dp10288
g13
(I13
I14
tp10289
sg15
(I243
I238
tp10290
ss(g656
g85
tp10291
(dp10292
g13
(I200
I200
tp10293
sg15
(I600
I600
tp10294
ss(g84
g147
tp10295
(dp10296
g13
(I167
I166
tp10297
sg15
(I564
I569
tp10298
ss(g29
g176
tp10299
(dp10300
g13
(I200
I0
tp10301
sg15
(I0
I1000
tp10302
ss(g195
g85
tp10303
(dp10304
g13
(I200
I200
tp10305
sg15
(I600
I600
tp10306
ss(g79
g526
tp10307
(dp10308
g13
(I198
I195
tp10309
sg15
(I588
I603
tp10310
ss(g91
g52
tp10311
(dp10312
g13
(I134
I18
tp10313
sg15
(I131
I711
tp10314
ss(g294
g84
tp10315
(dp10316
g13
(I14
I167
tp10317
sg15
(I842
I77
tp10318
ss(g271
g221
tp10319
(dp10320
g13
(I101
I182
tp10321
sg15
(I735
I330
tp10322
ss(g47
g52
tp10323
(dp10324
g13
(I200
I200
tp10325
sg15
(I600
I600
tp10326
ss(g472
g102
tp10327
(dp10328
g13
(I49
I28
tp10329
sg15
(I235
I340
tp10330
ss(g148
g117
tp10331
(dp10332
g13
(I200
I200
tp10333
sg15
(I600
I600
tp10334
ss(g23
g68
tp10335
(dp10336
g13
(I200
I200
tp10337
sg15
(I600
I600
tp10338
ss(g262
g467
tp10339
(dp10340
g13
(I200
I0
tp10341
sg15
(I0
I1000
tp10342
ss(g24
g400
tp10343
(dp10344
g13
(I199
I199
tp10345
sg15
(I599
I599
tp10346
ss(g52
g467
tp10347
(dp10348
g13
(I200
I0
tp10349
sg15
(I0
I1000
tp10350
ss(g23
g67
tp10351
(dp10352
g13
(I139
I107
tp10353
sg15
(I430
I590
tp10354
ss(g171
g216
tp10355
(dp10356
g13
(I200
I200
tp10357
sg15
(I600
I600
tp10358
ss(g90
g216
tp10359
(dp10360
g13
(I198
I198
tp10361
sg15
(I596
I596
tp10362
ss(g721
g52
tp10363
(dp10364
g13
(I200
I200
tp10365
sg15
(I600
I600
tp10366
ss(g295
g126
tp10367
(dp10368
g13
(I198
I200
tp10369
sg15
(I604
I594
tp10370
ss(g195
g52
tp10371
(dp10372
g13
(I200
I200
tp10373
sg15
(I600
I600
tp10374
ss(g101
g262
tp10375
(dp10376
g13
(I2
I17
tp10377
sg15
(I264
I189
tp10378
ss(g371
g308
tp10379
(dp10380
g13
(I200
I200
tp10381
sg15
(I600
I600
tp10382
ss(g79
g472
tp10383
(dp10384
g13
(I200
I200
tp10385
sg15
(I600
I600
tp10386
ss(g317
g36
tp10387
(dp10388
g13
(I100
I100
tp10389
sg15
(I450
I450
tp10390
ss(g91
g148
tp10391
(dp10392
g13
(I134
I16
tp10393
sg15
(I128
I718
tp10394
ss(g371
g47
tp10395
(dp10396
g13
(I200
I200
tp10397
sg15
(I600
I600
tp10398
ss(g116
g177
tp10399
(dp10400
g13
(I200
I0
tp10401
sg15
(I0
I1000
tp10402
ss(g472
g10
tp10403
(dp10404
g13
(I196
I195
tp10405
sg15
(I592
I597
tp10406
ss(g371
g450
tp10407
(dp10408
g13
(I200
I200
tp10409
sg15
(I600
I600
tp10410
ss(g243
g362
tp10411
(dp10412
g13
(I168
I160
tp10413
sg15
(I522
I562
tp10414
ss(g371
g67
tp10415
(dp10416
g13
(I10
I190
tp10417
sg15
(I949
I49
tp10418
ss(g9
g52
tp10419
(dp10420
g13
(I0
I1
tp10421
sg15
(I204
I199
tp10422
ss(g9
g117
tp10423
(dp10424
g13
(I0
I2
tp10425
sg15
(I208
I198
tp10426
ss(g147
g467
tp10427
(dp10428
g13
(I200
I0
tp10429
sg15
(I0
I1000
tp10430
ss(g79
g79
tp10431
(dp10432
g13
(I200
I200
tp10433
sg15
(I600
I600
tp10434
ss(g102
g216
tp10435
(dp10436
g13
(I199
I200
tp10437
sg15
(I602
I597
tp10438
ss(g1054
g249
tp10439
(dp10440
g13
(I200
I1
tp10441
sg15
(I3
I998
tp10442
ss(g73
g216
tp10443
(dp10444
g13
(I199
I199
tp10445
sg15
(I598
I598
tp10446
ss(g47
g177
tp10447
(dp10448
g13
(I200
I0
tp10449
sg15
(I0
I1000
tp10450
ss(g126
g450
tp10451
(dp10452
g13
(I200
I200
tp10453
sg15
(I600
I600
tp10454
ss(g126
g362
tp10455
(dp10456
g13
(I199
I199
tp10457
sg15
(I599
I599
tp10458
ss(g101
g450
tp10459
(dp10460
g13
(I14
I13
tp10461
sg15
(I238
I243
tp10462
ss(g111
g142
tp10463
(dp10464
g13
(I150
I102
tp10465
sg15
(I406
I646
tp10466
ss(g10
g74
tp10467
(dp10468
g13
(I200
I0
tp10469
sg15
(I0
I1000
tp10470
ss(g656
g142
tp10471
(dp10472
g13
(I200
I200
tp10473
sg15
(I600
I600
tp10474
ss(g73
g137
tp10475
(dp10476
g13
(I198
I198
tp10477
sg15
(I597
I597
tp10478
ss(g35
g23
tp10479
(dp10480
g13
(I182
I200
tp10481
sg15
(I636
I546
tp10482
ss(g243
g195
tp10483
(dp10484
g13
(I200
I200
tp10485
sg15
(I600
I600
tp10486
ss(g61
g84
tp10487
(dp10488
g13
(I102
I167
tp10489
sg15
(I681
I356
tp10490
ss(g230
g285
tp10491
(dp10492
g13
(I200
I200
tp10493
sg15
(I600
I600
tp10494
ss(g166
g74
tp10495
(dp10496
g13
(I200
I0
tp10497
sg15
(I0
I1000
tp10498
ss(g9
g46
tp10499
(dp10500
g13
(I0
I100
tp10501
sg15
(I600
I100
tp10502
ss(g526
g117
tp10503
(dp10504
g13
(I197
I198
tp10505
sg15
(I599
I594
tp10506
ss(g9
g131
tp10507
(dp10508
g13
(I197
I200
tp10509
sg15
(I606
I591
tp10510
ss(g450
g362
tp10511
(dp10512
g13
(I13
I14
tp10513
sg15
(I243
I238
tp10514
ss(g47
g29
tp10515
(dp10516
g13
(I189
I114
tp10517
sg15
(I363
I738
tp10518
ss(g126
g230
tp10519
(dp10520
g13
(I200
I200
tp10521
sg15
(I600
I600
tp10522
ss(g47
g147
tp10523
(dp10524
g13
(I200
I199
tp10525
sg15
(I597
I602
tp10526
ss(g517
g68
tp10527
(dp10528
g13
(I200
I200
tp10529
sg15
(I600
I600
tp10530
ss(g62
g30
tp10531
(dp10532
g13
(I200
I0
tp10533
sg15
(I0
I1000
tp10534
ss(g221
g85
tp10535
(dp10536
g13
(I166
I183
tp10537
sg15
(I600
I515
tp10538
ss(g90
g36
tp10539
(dp10540
g13
(I198
I198
tp10541
sg15
(I597
I597
tp10542
ss(g91
g79
tp10543
(dp10544
g13
(I134
I200
tp10545
sg15
(I732
I402
tp10546
ss(g137
g177
tp10547
(dp10548
g13
(I200
I0
tp10549
sg15
(I0
I1000
tp10550
ss(g362
g30
tp10551
(dp10552
g13
(I200
I0
tp10553
sg15
(I0
I1000
tp10554
ss(g84
g117
tp10555
(dp10556
g13
(I167
I200
tp10557
sg15
(I666
I501
tp10558
ss(g17
g262
tp10559
(dp10560
g13
(I200
I200
tp10561
sg15
(I600
I600
tp10562
ss(g62
g96
tp10563
(dp10564
g13
(I200
I200
tp10565
sg15
(I600
I600
tp10566
ss(g526
g74
tp10567
(dp10568
g13
(I200
I0
tp10569
sg15
(I0
I1000
tp10570
ss(g46
g425
tp10571
(dp10572
g13
(I100
I200
tp10573
sg15
(I800
I300
tp10574
ss(g24
g52
tp10575
(dp10576
g13
(I199
I187
tp10577
sg15
(I563
I623
tp10578
ss(g35
g73
tp10579
(dp10580
g13
(I182
I200
tp10581
sg15
(I636
I546
tp10582
ss(g171
g230
tp10583
(dp10584
g13
(I200
I200
tp10585
sg15
(I600
I600
tp10586
ss(g425
g285
tp10587
(dp10588
g13
(I200
I200
tp10589
sg15
(I600
I600
tp10590
ss(g126
g555
tp10591
(dp10592
g13
(I67
I66
tp10593
sg15
(I364
I369
tp10594
sssb.